# command-line-arguments
command-line-arguments.LeadingZeros<1> STEXT nosplit size=7 args=0x8 locals=0x0 funcid=0x0 align=0x0
	0x0000 00000 (/home/xzl/work/golang-1.22/golang-1.22/test/codegen/mathbits.go:15)	TEXT	command-line-arguments.LeadingZeros(SB), NOSPLIT|NOFRAME|ABIInternal, $0-8
	0x0000 00000 (/home/xzl/work/golang-1.22/golang-1.22/test/codegen/mathbits.go:15)	FUNCDATA	$0, gclocals·g2BeySu+wFnoycgXfElmcg==(SB)
	0x0000 00000 (/home/xzl/work/golang-1.22/golang-1.22/test/codegen/mathbits.go:15)	FUNCDATA	$1, gclocals·g2BeySu+wFnoycgXfElmcg==(SB)
	0x0000 00000 (/home/xzl/work/golang-1.22/golang-1.22/test/codegen/mathbits.go:15)	FUNCDATA	$5, command-line-arguments.LeadingZeros.arginfo1(SB)
	0x0000 00000 (/home/xzl/work/golang-1.22/golang-1.22/test/codegen/mathbits.go:15)	FUNCDATA	$6, command-line-arguments.LeadingZeros.argliveinfo(SB)
	0x0000 00000 (/home/xzl/work/golang-1.22/golang-1.22/test/codegen/mathbits.go:15)	PCDATA	$3, $1
	0x0000 00000 (/home/xzl/work/golang-1.22/golang-1.22/test/codegen/mathbits.go:15)	XCHGL	AX, AX
	0x0001 00001 (/home/xzl/work/golang-1.22/golang-1.22/test/codegen/mathbits.go:23)	LZCNTQ	AX, AX
	0x0006 00006 (<unknown line number>)	NOP
	0x0006 00006 (/home/xzl/work/golang-1.22/golang-1.22/test/codegen/mathbits.go:23)	RET
	0x0000 90 f3 48 0f bd c0 c3                             ..H....
command-line-arguments.LeadingZeros64<1> STEXT nosplit size=7 args=0x8 locals=0x0 funcid=0x0 align=0x0
	0x0000 00000 (/home/xzl/work/golang-1.22/golang-1.22/test/codegen/mathbits.go:26)	TEXT	command-line-arguments.LeadingZeros64(SB), NOSPLIT|NOFRAME|ABIInternal, $0-8
	0x0000 00000 (/home/xzl/work/golang-1.22/golang-1.22/test/codegen/mathbits.go:26)	FUNCDATA	$0, gclocals·g2BeySu+wFnoycgXfElmcg==(SB)
	0x0000 00000 (/home/xzl/work/golang-1.22/golang-1.22/test/codegen/mathbits.go:26)	FUNCDATA	$1, gclocals·g2BeySu+wFnoycgXfElmcg==(SB)
	0x0000 00000 (/home/xzl/work/golang-1.22/golang-1.22/test/codegen/mathbits.go:26)	FUNCDATA	$5, command-line-arguments.LeadingZeros64.arginfo1(SB)
	0x0000 00000 (/home/xzl/work/golang-1.22/golang-1.22/test/codegen/mathbits.go:26)	FUNCDATA	$6, command-line-arguments.LeadingZeros64.argliveinfo(SB)
	0x0000 00000 (/home/xzl/work/golang-1.22/golang-1.22/test/codegen/mathbits.go:26)	PCDATA	$3, $1
	0x0000 00000 (/home/xzl/work/golang-1.22/golang-1.22/test/codegen/mathbits.go:26)	XCHGL	AX, AX
	0x0001 00001 (/home/xzl/work/golang-1.22/golang-1.22/test/codegen/mathbits.go:34)	LZCNTQ	AX, AX
	0x0006 00006 (<unknown line number>)	NOP
	0x0006 00006 (/home/xzl/work/golang-1.22/golang-1.22/test/codegen/mathbits.go:34)	RET
	0x0000 90 f3 48 0f bd c0 c3                             ..H....
command-line-arguments.LeadingZeros32<1> STEXT nosplit size=6 args=0x8 locals=0x0 funcid=0x0 align=0x0
	0x0000 00000 (/home/xzl/work/golang-1.22/golang-1.22/test/codegen/mathbits.go:37)	TEXT	command-line-arguments.LeadingZeros32(SB), NOSPLIT|NOFRAME|ABIInternal, $0-8
	0x0000 00000 (/home/xzl/work/golang-1.22/golang-1.22/test/codegen/mathbits.go:37)	FUNCDATA	$0, gclocals·g2BeySu+wFnoycgXfElmcg==(SB)
	0x0000 00000 (/home/xzl/work/golang-1.22/golang-1.22/test/codegen/mathbits.go:37)	FUNCDATA	$1, gclocals·g2BeySu+wFnoycgXfElmcg==(SB)
	0x0000 00000 (/home/xzl/work/golang-1.22/golang-1.22/test/codegen/mathbits.go:37)	FUNCDATA	$5, command-line-arguments.LeadingZeros32.arginfo1(SB)
	0x0000 00000 (/home/xzl/work/golang-1.22/golang-1.22/test/codegen/mathbits.go:37)	FUNCDATA	$6, command-line-arguments.LeadingZeros32.argliveinfo(SB)
	0x0000 00000 (/home/xzl/work/golang-1.22/golang-1.22/test/codegen/mathbits.go:37)	PCDATA	$3, $1
	0x0000 00000 (/home/xzl/work/golang-1.22/golang-1.22/test/codegen/mathbits.go:37)	XCHGL	AX, AX
	0x0001 00001 (/home/xzl/work/golang-1.22/golang-1.22/test/codegen/mathbits.go:45)	LZCNTL	AX, AX
	0x0005 00005 (<unknown line number>)	NOP
	0x0005 00005 (/home/xzl/work/golang-1.22/golang-1.22/test/codegen/mathbits.go:45)	RET
	0x0000 90 f3 0f bd c0 c3                                ......
command-line-arguments.LeadingZeros16<1> STEXT nosplit size=15 args=0x8 locals=0x0 funcid=0x0 align=0x0
	0x0000 00000 (/home/xzl/work/golang-1.22/golang-1.22/test/codegen/mathbits.go:48)	TEXT	command-line-arguments.LeadingZeros16(SB), NOSPLIT|NOFRAME|ABIInternal, $0-8
	0x0000 00000 (/home/xzl/work/golang-1.22/golang-1.22/test/codegen/mathbits.go:48)	FUNCDATA	$0, gclocals·g2BeySu+wFnoycgXfElmcg==(SB)
	0x0000 00000 (/home/xzl/work/golang-1.22/golang-1.22/test/codegen/mathbits.go:48)	FUNCDATA	$1, gclocals·g2BeySu+wFnoycgXfElmcg==(SB)
	0x0000 00000 (/home/xzl/work/golang-1.22/golang-1.22/test/codegen/mathbits.go:48)	FUNCDATA	$5, command-line-arguments.LeadingZeros16.arginfo1(SB)
	0x0000 00000 (/home/xzl/work/golang-1.22/golang-1.22/test/codegen/mathbits.go:48)	FUNCDATA	$6, command-line-arguments.LeadingZeros16.argliveinfo(SB)
	0x0000 00000 (/home/xzl/work/golang-1.22/golang-1.22/test/codegen/mathbits.go:48)	PCDATA	$3, $1
	0x0000 00000 (/home/xzl/work/golang-1.22/golang-1.22/test/codegen/mathbits.go:48)	XCHGL	AX, AX
	0x0001 00001 (/home/xzl/work/golang-1.22/golang-1.22/test/codegen/mathbits.go:56)	MOVWLZX	AX, CX
	0x0004 00004 (/home/xzl/work/golang-1.22/golang-1.22/test/codegen/mathbits.go:56)	XORL	AX, AX
	0x0006 00006 (/home/xzl/work/golang-1.22/golang-1.22/test/codegen/mathbits.go:56)	LZCNTL	CX, AX
	0x000a 00010 (/home/xzl/work/golang-1.22/golang-1.22/test/codegen/mathbits.go:56)	ADDQ	$-16, AX
	0x000e 00014 (<unknown line number>)	NOP
	0x000e 00014 (/home/xzl/work/golang-1.22/golang-1.22/test/codegen/mathbits.go:56)	RET
	0x0000 90 0f b7 c8 31 c0 f3 0f bd c1 48 83 c0 f0 c3     ....1.....H....
command-line-arguments.LeadingZeros8<1> STEXT nosplit size=15 args=0x8 locals=0x0 funcid=0x0 align=0x0
	0x0000 00000 (/home/xzl/work/golang-1.22/golang-1.22/test/codegen/mathbits.go:59)	TEXT	command-line-arguments.LeadingZeros8(SB), NOSPLIT|NOFRAME|ABIInternal, $0-8
	0x0000 00000 (/home/xzl/work/golang-1.22/golang-1.22/test/codegen/mathbits.go:59)	FUNCDATA	$0, gclocals·g2BeySu+wFnoycgXfElmcg==(SB)
	0x0000 00000 (/home/xzl/work/golang-1.22/golang-1.22/test/codegen/mathbits.go:59)	FUNCDATA	$1, gclocals·g2BeySu+wFnoycgXfElmcg==(SB)
	0x0000 00000 (/home/xzl/work/golang-1.22/golang-1.22/test/codegen/mathbits.go:59)	FUNCDATA	$5, command-line-arguments.LeadingZeros8.arginfo1(SB)
	0x0000 00000 (/home/xzl/work/golang-1.22/golang-1.22/test/codegen/mathbits.go:59)	FUNCDATA	$6, command-line-arguments.LeadingZeros8.argliveinfo(SB)
	0x0000 00000 (/home/xzl/work/golang-1.22/golang-1.22/test/codegen/mathbits.go:59)	PCDATA	$3, $1
	0x0000 00000 (/home/xzl/work/golang-1.22/golang-1.22/test/codegen/mathbits.go:59)	XCHGL	AX, AX
	0x0001 00001 (/home/xzl/work/golang-1.22/golang-1.22/test/codegen/mathbits.go:67)	MOVBLZX	AL, CX
	0x0004 00004 (/home/xzl/work/golang-1.22/golang-1.22/test/codegen/mathbits.go:67)	XORL	AX, AX
	0x0006 00006 (/home/xzl/work/golang-1.22/golang-1.22/test/codegen/mathbits.go:67)	LZCNTL	CX, AX
	0x000a 00010 (/home/xzl/work/golang-1.22/golang-1.22/test/codegen/mathbits.go:67)	ADDQ	$-24, AX
	0x000e 00014 (<unknown line number>)	NOP
	0x000e 00014 (/home/xzl/work/golang-1.22/golang-1.22/test/codegen/mathbits.go:67)	RET
	0x0000 90 0f b6 c8 31 c0 f3 0f bd c1 48 83 c0 e8 c3     ....1.....H....
command-line-arguments.Len<1> STEXT nosplit size=13 args=0x8 locals=0x0 funcid=0x0 align=0x0
	0x0000 00000 (/home/xzl/work/golang-1.22/golang-1.22/test/codegen/mathbits.go:74)	TEXT	command-line-arguments.Len(SB), NOSPLIT|NOFRAME|ABIInternal, $0-8
	0x0000 00000 (/home/xzl/work/golang-1.22/golang-1.22/test/codegen/mathbits.go:74)	FUNCDATA	$0, gclocals·g2BeySu+wFnoycgXfElmcg==(SB)
	0x0000 00000 (/home/xzl/work/golang-1.22/golang-1.22/test/codegen/mathbits.go:74)	FUNCDATA	$1, gclocals·g2BeySu+wFnoycgXfElmcg==(SB)
	0x0000 00000 (/home/xzl/work/golang-1.22/golang-1.22/test/codegen/mathbits.go:74)	FUNCDATA	$5, command-line-arguments.Len.arginfo1(SB)
	0x0000 00000 (/home/xzl/work/golang-1.22/golang-1.22/test/codegen/mathbits.go:74)	FUNCDATA	$6, command-line-arguments.Len.argliveinfo(SB)
	0x0000 00000 (/home/xzl/work/golang-1.22/golang-1.22/test/codegen/mathbits.go:74)	PCDATA	$3, $1
	0x0000 00000 (/home/xzl/work/golang-1.22/golang-1.22/test/codegen/mathbits.go:82)	LZCNTQ	AX, AX
	0x0005 00005 (/home/xzl/work/golang-1.22/golang-1.22/test/codegen/mathbits.go:82)	ADDQ	$-64, AX
	0x0009 00009 (/home/xzl/work/golang-1.22/golang-1.22/test/codegen/mathbits.go:82)	NEGQ	AX
	0x000c 00012 (/home/xzl/work/golang-1.22/golang-1.22/test/codegen/mathbits.go:82)	RET
	0x0000 f3 48 0f bd c0 48 83 c0 c0 48 f7 d8 c3           .H...H...H...
command-line-arguments.Len64<1> STEXT nosplit size=13 args=0x8 locals=0x0 funcid=0x0 align=0x0
	0x0000 00000 (/home/xzl/work/golang-1.22/golang-1.22/test/codegen/mathbits.go:85)	TEXT	command-line-arguments.Len64(SB), NOSPLIT|NOFRAME|ABIInternal, $0-8
	0x0000 00000 (/home/xzl/work/golang-1.22/golang-1.22/test/codegen/mathbits.go:85)	FUNCDATA	$0, gclocals·g2BeySu+wFnoycgXfElmcg==(SB)
	0x0000 00000 (/home/xzl/work/golang-1.22/golang-1.22/test/codegen/mathbits.go:85)	FUNCDATA	$1, gclocals·g2BeySu+wFnoycgXfElmcg==(SB)
	0x0000 00000 (/home/xzl/work/golang-1.22/golang-1.22/test/codegen/mathbits.go:85)	FUNCDATA	$5, command-line-arguments.Len64.arginfo1(SB)
	0x0000 00000 (/home/xzl/work/golang-1.22/golang-1.22/test/codegen/mathbits.go:85)	FUNCDATA	$6, command-line-arguments.Len64.argliveinfo(SB)
	0x0000 00000 (/home/xzl/work/golang-1.22/golang-1.22/test/codegen/mathbits.go:85)	PCDATA	$3, $1
	0x0000 00000 (/home/xzl/work/golang-1.22/golang-1.22/test/codegen/mathbits.go:93)	LZCNTQ	AX, AX
	0x0005 00005 (/home/xzl/work/golang-1.22/golang-1.22/test/codegen/mathbits.go:93)	ADDQ	$-64, AX
	0x0009 00009 (/home/xzl/work/golang-1.22/golang-1.22/test/codegen/mathbits.go:93)	NEGQ	AX
	0x000c 00012 (/home/xzl/work/golang-1.22/golang-1.22/test/codegen/mathbits.go:93)	RET
	0x0000 f3 48 0f bd c0 48 83 c0 c0 48 f7 d8 c3           .H...H...H...
command-line-arguments.SubFromLen64<1> STEXT nosplit size=6 args=0x8 locals=0x0 funcid=0x0 align=0x0
	0x0000 00000 (/home/xzl/work/golang-1.22/golang-1.22/test/codegen/mathbits.go:96)	TEXT	command-line-arguments.SubFromLen64(SB), NOSPLIT|NOFRAME|ABIInternal, $0-8
	0x0000 00000 (/home/xzl/work/golang-1.22/golang-1.22/test/codegen/mathbits.go:96)	FUNCDATA	$0, gclocals·g2BeySu+wFnoycgXfElmcg==(SB)
	0x0000 00000 (/home/xzl/work/golang-1.22/golang-1.22/test/codegen/mathbits.go:96)	FUNCDATA	$1, gclocals·g2BeySu+wFnoycgXfElmcg==(SB)
	0x0000 00000 (/home/xzl/work/golang-1.22/golang-1.22/test/codegen/mathbits.go:96)	FUNCDATA	$5, command-line-arguments.SubFromLen64.arginfo1(SB)
	0x0000 00000 (/home/xzl/work/golang-1.22/golang-1.22/test/codegen/mathbits.go:96)	FUNCDATA	$6, command-line-arguments.SubFromLen64.argliveinfo(SB)
	0x0000 00000 (/home/xzl/work/golang-1.22/golang-1.22/test/codegen/mathbits.go:96)	PCDATA	$3, $1
	0x0000 00000 (/home/xzl/work/golang-1.22/golang-1.22/test/codegen/mathbits.go:98)	LZCNTQ	AX, AX
	0x0005 00005 (/home/xzl/work/golang-1.22/golang-1.22/test/codegen/mathbits.go:98)	RET
	0x0000 f3 48 0f bd c0 c3                                .H....
command-line-arguments.Len32<1> STEXT nosplit size=12 args=0x8 locals=0x0 funcid=0x0 align=0x0
	0x0000 00000 (/home/xzl/work/golang-1.22/golang-1.22/test/codegen/mathbits.go:101)	TEXT	command-line-arguments.Len32(SB), NOSPLIT|NOFRAME|ABIInternal, $0-8
	0x0000 00000 (/home/xzl/work/golang-1.22/golang-1.22/test/codegen/mathbits.go:101)	FUNCDATA	$0, gclocals·g2BeySu+wFnoycgXfElmcg==(SB)
	0x0000 00000 (/home/xzl/work/golang-1.22/golang-1.22/test/codegen/mathbits.go:101)	FUNCDATA	$1, gclocals·g2BeySu+wFnoycgXfElmcg==(SB)
	0x0000 00000 (/home/xzl/work/golang-1.22/golang-1.22/test/codegen/mathbits.go:101)	FUNCDATA	$5, command-line-arguments.Len32.arginfo1(SB)
	0x0000 00000 (/home/xzl/work/golang-1.22/golang-1.22/test/codegen/mathbits.go:101)	FUNCDATA	$6, command-line-arguments.Len32.argliveinfo(SB)
	0x0000 00000 (/home/xzl/work/golang-1.22/golang-1.22/test/codegen/mathbits.go:101)	PCDATA	$3, $1
	0x0000 00000 (/home/xzl/work/golang-1.22/golang-1.22/test/codegen/mathbits.go:109)	LZCNTL	AX, AX
	0x0004 00004 (/home/xzl/work/golang-1.22/golang-1.22/test/codegen/mathbits.go:109)	ADDQ	$-32, AX
	0x0008 00008 (/home/xzl/work/golang-1.22/golang-1.22/test/codegen/mathbits.go:109)	NEGQ	AX
	0x000b 00011 (/home/xzl/work/golang-1.22/golang-1.22/test/codegen/mathbits.go:109)	RET
	0x0000 f3 0f bd c0 48 83 c0 e0 48 f7 d8 c3              ....H...H...
command-line-arguments.Len16<1> STEXT nosplit size=17 args=0x8 locals=0x0 funcid=0x0 align=0x0
	0x0000 00000 (/home/xzl/work/golang-1.22/golang-1.22/test/codegen/mathbits.go:112)	TEXT	command-line-arguments.Len16(SB), NOSPLIT|NOFRAME|ABIInternal, $0-8
	0x0000 00000 (/home/xzl/work/golang-1.22/golang-1.22/test/codegen/mathbits.go:112)	FUNCDATA	$0, gclocals·g2BeySu+wFnoycgXfElmcg==(SB)
	0x0000 00000 (/home/xzl/work/golang-1.22/golang-1.22/test/codegen/mathbits.go:112)	FUNCDATA	$1, gclocals·g2BeySu+wFnoycgXfElmcg==(SB)
	0x0000 00000 (/home/xzl/work/golang-1.22/golang-1.22/test/codegen/mathbits.go:112)	FUNCDATA	$5, command-line-arguments.Len16.arginfo1(SB)
	0x0000 00000 (/home/xzl/work/golang-1.22/golang-1.22/test/codegen/mathbits.go:112)	FUNCDATA	$6, command-line-arguments.Len16.argliveinfo(SB)
	0x0000 00000 (/home/xzl/work/golang-1.22/golang-1.22/test/codegen/mathbits.go:112)	PCDATA	$3, $1
	0x0000 00000 (/home/xzl/work/golang-1.22/golang-1.22/test/codegen/mathbits.go:120)	MOVWLZX	AX, CX
	0x0003 00003 (/home/xzl/work/golang-1.22/golang-1.22/test/codegen/mathbits.go:120)	XORL	AX, AX
	0x0005 00005 (/home/xzl/work/golang-1.22/golang-1.22/test/codegen/mathbits.go:120)	LZCNTL	CX, AX
	0x0009 00009 (/home/xzl/work/golang-1.22/golang-1.22/test/codegen/mathbits.go:120)	ADDQ	$-32, AX
	0x000d 00013 (/home/xzl/work/golang-1.22/golang-1.22/test/codegen/mathbits.go:120)	NEGQ	AX
	0x0010 00016 (/home/xzl/work/golang-1.22/golang-1.22/test/codegen/mathbits.go:120)	RET
	0x0000 0f b7 c8 31 c0 f3 0f bd c1 48 83 c0 e0 48 f7 d8  ...1.....H...H..
	0x0010 c3                                               .
command-line-arguments.Len8<1> STEXT nosplit size=17 args=0x8 locals=0x0 funcid=0x0 align=0x0
	0x0000 00000 (/home/xzl/work/golang-1.22/golang-1.22/test/codegen/mathbits.go:123)	TEXT	command-line-arguments.Len8(SB), NOSPLIT|NOFRAME|ABIInternal, $0-8
	0x0000 00000 (/home/xzl/work/golang-1.22/golang-1.22/test/codegen/mathbits.go:123)	FUNCDATA	$0, gclocals·g2BeySu+wFnoycgXfElmcg==(SB)
	0x0000 00000 (/home/xzl/work/golang-1.22/golang-1.22/test/codegen/mathbits.go:123)	FUNCDATA	$1, gclocals·g2BeySu+wFnoycgXfElmcg==(SB)
	0x0000 00000 (/home/xzl/work/golang-1.22/golang-1.22/test/codegen/mathbits.go:123)	FUNCDATA	$5, command-line-arguments.Len8.arginfo1(SB)
	0x0000 00000 (/home/xzl/work/golang-1.22/golang-1.22/test/codegen/mathbits.go:123)	FUNCDATA	$6, command-line-arguments.Len8.argliveinfo(SB)
	0x0000 00000 (/home/xzl/work/golang-1.22/golang-1.22/test/codegen/mathbits.go:123)	PCDATA	$3, $1
	0x0000 00000 (/home/xzl/work/golang-1.22/golang-1.22/test/codegen/mathbits.go:131)	MOVBLZX	AL, CX
	0x0003 00003 (/home/xzl/work/golang-1.22/golang-1.22/test/codegen/mathbits.go:131)	XORL	AX, AX
	0x0005 00005 (/home/xzl/work/golang-1.22/golang-1.22/test/codegen/mathbits.go:131)	LZCNTL	CX, AX
	0x0009 00009 (/home/xzl/work/golang-1.22/golang-1.22/test/codegen/mathbits.go:131)	ADDQ	$-32, AX
	0x000d 00013 (/home/xzl/work/golang-1.22/golang-1.22/test/codegen/mathbits.go:131)	NEGQ	AX
	0x0010 00016 (/home/xzl/work/golang-1.22/golang-1.22/test/codegen/mathbits.go:131)	RET
	0x0000 0f b6 c8 31 c0 f3 0f bd c1 48 83 c0 e0 48 f7 d8  ...1.....H...H..
	0x0010 c3                                               .
command-line-arguments.OnesCount<1> STEXT nosplit size=6 args=0x8 locals=0x0 funcid=0x0 align=0x0
	0x0000 00000 (/home/xzl/work/golang-1.22/golang-1.22/test/codegen/mathbits.go:139)	TEXT	command-line-arguments.OnesCount(SB), NOSPLIT|NOFRAME|ABIInternal, $0-8
	0x0000 00000 (/home/xzl/work/golang-1.22/golang-1.22/test/codegen/mathbits.go:139)	FUNCDATA	$0, gclocals·g2BeySu+wFnoycgXfElmcg==(SB)
	0x0000 00000 (/home/xzl/work/golang-1.22/golang-1.22/test/codegen/mathbits.go:139)	FUNCDATA	$1, gclocals·g2BeySu+wFnoycgXfElmcg==(SB)
	0x0000 00000 (/home/xzl/work/golang-1.22/golang-1.22/test/codegen/mathbits.go:139)	FUNCDATA	$5, command-line-arguments.OnesCount.arginfo1(SB)
	0x0000 00000 (/home/xzl/work/golang-1.22/golang-1.22/test/codegen/mathbits.go:139)	FUNCDATA	$6, command-line-arguments.OnesCount.argliveinfo(SB)
	0x0000 00000 (/home/xzl/work/golang-1.22/golang-1.22/test/codegen/mathbits.go:139)	PCDATA	$3, $1
	0x0000 00000 (/home/xzl/work/golang-1.22/golang-1.22/test/codegen/mathbits.go:146)	POPCNTQ	AX, AX
	0x0005 00005 (/home/xzl/work/golang-1.22/golang-1.22/test/codegen/mathbits.go:146)	RET
	0x0000 f3 48 0f b8 c0 c3                                .H....
command-line-arguments.OnesCount64<1> STEXT nosplit size=6 args=0x8 locals=0x0 funcid=0x0 align=0x0
	0x0000 00000 (/home/xzl/work/golang-1.22/golang-1.22/test/codegen/mathbits.go:149)	TEXT	command-line-arguments.OnesCount64(SB), NOSPLIT|NOFRAME|ABIInternal, $0-8
	0x0000 00000 (/home/xzl/work/golang-1.22/golang-1.22/test/codegen/mathbits.go:149)	FUNCDATA	$0, gclocals·g2BeySu+wFnoycgXfElmcg==(SB)
	0x0000 00000 (/home/xzl/work/golang-1.22/golang-1.22/test/codegen/mathbits.go:149)	FUNCDATA	$1, gclocals·g2BeySu+wFnoycgXfElmcg==(SB)
	0x0000 00000 (/home/xzl/work/golang-1.22/golang-1.22/test/codegen/mathbits.go:149)	FUNCDATA	$5, command-line-arguments.OnesCount64.arginfo1(SB)
	0x0000 00000 (/home/xzl/work/golang-1.22/golang-1.22/test/codegen/mathbits.go:149)	FUNCDATA	$6, command-line-arguments.OnesCount64.argliveinfo(SB)
	0x0000 00000 (/home/xzl/work/golang-1.22/golang-1.22/test/codegen/mathbits.go:149)	PCDATA	$3, $1
	0x0000 00000 (/home/xzl/work/golang-1.22/golang-1.22/test/codegen/mathbits.go:156)	POPCNTQ	AX, AX
	0x0005 00005 (/home/xzl/work/golang-1.22/golang-1.22/test/codegen/mathbits.go:156)	RET
	0x0000 f3 48 0f b8 c0 c3                                .H....
command-line-arguments.OnesCount32<1> STEXT nosplit size=5 args=0x8 locals=0x0 funcid=0x0 align=0x0
	0x0000 00000 (/home/xzl/work/golang-1.22/golang-1.22/test/codegen/mathbits.go:159)	TEXT	command-line-arguments.OnesCount32(SB), NOSPLIT|NOFRAME|ABIInternal, $0-8
	0x0000 00000 (/home/xzl/work/golang-1.22/golang-1.22/test/codegen/mathbits.go:159)	FUNCDATA	$0, gclocals·g2BeySu+wFnoycgXfElmcg==(SB)
	0x0000 00000 (/home/xzl/work/golang-1.22/golang-1.22/test/codegen/mathbits.go:159)	FUNCDATA	$1, gclocals·g2BeySu+wFnoycgXfElmcg==(SB)
	0x0000 00000 (/home/xzl/work/golang-1.22/golang-1.22/test/codegen/mathbits.go:159)	FUNCDATA	$5, command-line-arguments.OnesCount32.arginfo1(SB)
	0x0000 00000 (/home/xzl/work/golang-1.22/golang-1.22/test/codegen/mathbits.go:159)	FUNCDATA	$6, command-line-arguments.OnesCount32.argliveinfo(SB)
	0x0000 00000 (/home/xzl/work/golang-1.22/golang-1.22/test/codegen/mathbits.go:159)	PCDATA	$3, $1
	0x0000 00000 (/home/xzl/work/golang-1.22/golang-1.22/test/codegen/mathbits.go:166)	POPCNTL	AX, AX
	0x0004 00004 (/home/xzl/work/golang-1.22/golang-1.22/test/codegen/mathbits.go:166)	RET
	0x0000 f3 0f b8 c0 c3                                   .....
command-line-arguments.OnesCount16<1> STEXT nosplit size=10 args=0x8 locals=0x0 funcid=0x0 align=0x0
	0x0000 00000 (/home/xzl/work/golang-1.22/golang-1.22/test/codegen/mathbits.go:169)	TEXT	command-line-arguments.OnesCount16(SB), NOSPLIT|NOFRAME|ABIInternal, $0-8
	0x0000 00000 (/home/xzl/work/golang-1.22/golang-1.22/test/codegen/mathbits.go:169)	FUNCDATA	$0, gclocals·g2BeySu+wFnoycgXfElmcg==(SB)
	0x0000 00000 (/home/xzl/work/golang-1.22/golang-1.22/test/codegen/mathbits.go:169)	FUNCDATA	$1, gclocals·g2BeySu+wFnoycgXfElmcg==(SB)
	0x0000 00000 (/home/xzl/work/golang-1.22/golang-1.22/test/codegen/mathbits.go:169)	FUNCDATA	$5, command-line-arguments.OnesCount16.arginfo1(SB)
	0x0000 00000 (/home/xzl/work/golang-1.22/golang-1.22/test/codegen/mathbits.go:169)	FUNCDATA	$6, command-line-arguments.OnesCount16.argliveinfo(SB)
	0x0000 00000 (/home/xzl/work/golang-1.22/golang-1.22/test/codegen/mathbits.go:169)	PCDATA	$3, $1
	0x0000 00000 (/home/xzl/work/golang-1.22/golang-1.22/test/codegen/mathbits.go:176)	MOVWLZX	AX, CX
	0x0003 00003 (/home/xzl/work/golang-1.22/golang-1.22/test/codegen/mathbits.go:176)	XORL	AX, AX
	0x0005 00005 (/home/xzl/work/golang-1.22/golang-1.22/test/codegen/mathbits.go:176)	POPCNTL	CX, AX
	0x0009 00009 (/home/xzl/work/golang-1.22/golang-1.22/test/codegen/mathbits.go:176)	RET
	0x0000 0f b7 c8 31 c0 f3 0f b8 c1 c3                    ...1......
command-line-arguments.OnesCount8<1> STEXT nosplit size=16 args=0x8 locals=0x0 funcid=0x0 align=0x0
	0x0000 00000 (/home/xzl/work/golang-1.22/golang-1.22/test/codegen/mathbits.go:179)	TEXT	command-line-arguments.OnesCount8(SB), NOSPLIT|NOFRAME|ABIInternal, $0-8
	0x0000 00000 (/home/xzl/work/golang-1.22/golang-1.22/test/codegen/mathbits.go:179)	FUNCDATA	$0, gclocals·g2BeySu+wFnoycgXfElmcg==(SB)
	0x0000 00000 (/home/xzl/work/golang-1.22/golang-1.22/test/codegen/mathbits.go:179)	FUNCDATA	$1, gclocals·g2BeySu+wFnoycgXfElmcg==(SB)
	0x0000 00000 (/home/xzl/work/golang-1.22/golang-1.22/test/codegen/mathbits.go:179)	FUNCDATA	$5, command-line-arguments.OnesCount8.arginfo1(SB)
	0x0000 00000 (/home/xzl/work/golang-1.22/golang-1.22/test/codegen/mathbits.go:179)	FUNCDATA	$6, command-line-arguments.OnesCount8.argliveinfo(SB)
	0x0000 00000 (/home/xzl/work/golang-1.22/golang-1.22/test/codegen/mathbits.go:179)	PCDATA	$3, $1
	0x0000 00000 (/home/xzl/work/golang-1.22/golang-1.22/test/codegen/mathbits.go:179)	XCHGL	AX, AX
	0x0001 00001 (/home/xzl/work/golang-1.22/golang-1.22/test/codegen/mathbits.go:183)	MOVBLZX	AL, CX
	0x0004 00004 (/home/xzl/work/golang-1.22/golang-1.22/test/codegen/mathbits.go:183)	LEAQ	go:string..gostring.256.IIS8Kia8zlWqeowMPazRBA==(SB), DX
	0x000b 00011 (/home/xzl/work/golang-1.22/golang-1.22/test/codegen/mathbits.go:183)	MOVBLZX	(DX)(CX*1), AX
	0x000f 00015 (<unknown line number>)	NOP
	0x000f 00015 (/home/xzl/work/golang-1.22/golang-1.22/test/codegen/mathbits.go:183)	RET
	0x0000 90 0f b6 c8 48 8d 15 00 00 00 00 0f b6 04 0a c3  ....H...........
	rel 7+4 t=R_PCREL go:string..gostring.256.IIS8Kia8zlWqeowMPazRBA==<0>+0
command-line-arguments.ReverseBytes<1> STEXT nosplit size=5 args=0x8 locals=0x0 funcid=0x0 align=0x0
	0x0000 00000 (/home/xzl/work/golang-1.22/golang-1.22/test/codegen/mathbits.go:190)	TEXT	command-line-arguments.ReverseBytes(SB), NOSPLIT|NOFRAME|ABIInternal, $0-8
	0x0000 00000 (/home/xzl/work/golang-1.22/golang-1.22/test/codegen/mathbits.go:190)	FUNCDATA	$0, gclocals·g2BeySu+wFnoycgXfElmcg==(SB)
	0x0000 00000 (/home/xzl/work/golang-1.22/golang-1.22/test/codegen/mathbits.go:190)	FUNCDATA	$1, gclocals·g2BeySu+wFnoycgXfElmcg==(SB)
	0x0000 00000 (/home/xzl/work/golang-1.22/golang-1.22/test/codegen/mathbits.go:190)	FUNCDATA	$5, command-line-arguments.ReverseBytes.arginfo1(SB)
	0x0000 00000 (/home/xzl/work/golang-1.22/golang-1.22/test/codegen/mathbits.go:190)	FUNCDATA	$6, command-line-arguments.ReverseBytes.argliveinfo(SB)
	0x0000 00000 (/home/xzl/work/golang-1.22/golang-1.22/test/codegen/mathbits.go:190)	PCDATA	$3, $1
	0x0000 00000 (/home/xzl/work/golang-1.22/golang-1.22/test/codegen/mathbits.go:190)	XCHGL	AX, AX
	0x0001 00001 (/home/xzl/work/golang-1.22/golang-1.22/test/codegen/mathbits.go:195)	BSWAPQ	AX
	0x0004 00004 (<unknown line number>)	NOP
	0x0004 00004 (/home/xzl/work/golang-1.22/golang-1.22/test/codegen/mathbits.go:195)	RET
	0x0000 90 48 0f c8 c3                                   .H...
command-line-arguments.ReverseBytes64<1> STEXT nosplit size=4 args=0x8 locals=0x0 funcid=0x0 align=0x0
	0x0000 00000 (/home/xzl/work/golang-1.22/golang-1.22/test/codegen/mathbits.go:198)	TEXT	command-line-arguments.ReverseBytes64(SB), NOSPLIT|NOFRAME|ABIInternal, $0-8
	0x0000 00000 (/home/xzl/work/golang-1.22/golang-1.22/test/codegen/mathbits.go:198)	FUNCDATA	$0, gclocals·g2BeySu+wFnoycgXfElmcg==(SB)
	0x0000 00000 (/home/xzl/work/golang-1.22/golang-1.22/test/codegen/mathbits.go:198)	FUNCDATA	$1, gclocals·g2BeySu+wFnoycgXfElmcg==(SB)
	0x0000 00000 (/home/xzl/work/golang-1.22/golang-1.22/test/codegen/mathbits.go:198)	FUNCDATA	$5, command-line-arguments.ReverseBytes64.arginfo1(SB)
	0x0000 00000 (/home/xzl/work/golang-1.22/golang-1.22/test/codegen/mathbits.go:198)	FUNCDATA	$6, command-line-arguments.ReverseBytes64.argliveinfo(SB)
	0x0000 00000 (/home/xzl/work/golang-1.22/golang-1.22/test/codegen/mathbits.go:198)	PCDATA	$3, $1
	0x0000 00000 (/home/xzl/work/golang-1.22/golang-1.22/test/codegen/mathbits.go:204)	BSWAPQ	AX
	0x0003 00003 (/home/xzl/work/golang-1.22/golang-1.22/test/codegen/mathbits.go:204)	RET
	0x0000 48 0f c8 c3                                      H...
command-line-arguments.ReverseBytes32<1> STEXT nosplit size=3 args=0x8 locals=0x0 funcid=0x0 align=0x0
	0x0000 00000 (/home/xzl/work/golang-1.22/golang-1.22/test/codegen/mathbits.go:207)	TEXT	command-line-arguments.ReverseBytes32(SB), NOSPLIT|NOFRAME|ABIInternal, $0-8
	0x0000 00000 (/home/xzl/work/golang-1.22/golang-1.22/test/codegen/mathbits.go:207)	FUNCDATA	$0, gclocals·g2BeySu+wFnoycgXfElmcg==(SB)
	0x0000 00000 (/home/xzl/work/golang-1.22/golang-1.22/test/codegen/mathbits.go:207)	FUNCDATA	$1, gclocals·g2BeySu+wFnoycgXfElmcg==(SB)
	0x0000 00000 (/home/xzl/work/golang-1.22/golang-1.22/test/codegen/mathbits.go:207)	FUNCDATA	$5, command-line-arguments.ReverseBytes32.arginfo1(SB)
	0x0000 00000 (/home/xzl/work/golang-1.22/golang-1.22/test/codegen/mathbits.go:207)	FUNCDATA	$6, command-line-arguments.ReverseBytes32.argliveinfo(SB)
	0x0000 00000 (/home/xzl/work/golang-1.22/golang-1.22/test/codegen/mathbits.go:207)	PCDATA	$3, $1
	0x0000 00000 (/home/xzl/work/golang-1.22/golang-1.22/test/codegen/mathbits.go:213)	BSWAPL	AX
	0x0002 00002 (/home/xzl/work/golang-1.22/golang-1.22/test/codegen/mathbits.go:213)	RET
	0x0000 0f c8 c3                                         ...
command-line-arguments.ReverseBytes16<1> STEXT nosplit size=6 args=0x8 locals=0x0 funcid=0x0 align=0x0
	0x0000 00000 (/home/xzl/work/golang-1.22/golang-1.22/test/codegen/mathbits.go:216)	TEXT	command-line-arguments.ReverseBytes16(SB), NOSPLIT|NOFRAME|ABIInternal, $0-8
	0x0000 00000 (/home/xzl/work/golang-1.22/golang-1.22/test/codegen/mathbits.go:216)	FUNCDATA	$0, gclocals·g2BeySu+wFnoycgXfElmcg==(SB)
	0x0000 00000 (/home/xzl/work/golang-1.22/golang-1.22/test/codegen/mathbits.go:216)	FUNCDATA	$1, gclocals·g2BeySu+wFnoycgXfElmcg==(SB)
	0x0000 00000 (/home/xzl/work/golang-1.22/golang-1.22/test/codegen/mathbits.go:216)	FUNCDATA	$5, command-line-arguments.ReverseBytes16.arginfo1(SB)
	0x0000 00000 (/home/xzl/work/golang-1.22/golang-1.22/test/codegen/mathbits.go:216)	FUNCDATA	$6, command-line-arguments.ReverseBytes16.argliveinfo(SB)
	0x0000 00000 (/home/xzl/work/golang-1.22/golang-1.22/test/codegen/mathbits.go:216)	PCDATA	$3, $1
	0x0000 00000 (/home/xzl/work/golang-1.22/golang-1.22/test/codegen/mathbits.go:216)	XCHGL	AX, AX
	0x0001 00001 (/home/xzl/work/golang-1.22/golang-1.22/test/codegen/mathbits.go:223)	ROLW	$8, AX
	0x0005 00005 (<unknown line number>)	NOP
	0x0005 00005 (/home/xzl/work/golang-1.22/golang-1.22/test/codegen/mathbits.go:223)	RET
	0x0000 90 66 c1 c0 08 c3                                .f....
command-line-arguments.RotateLeft64<1> STEXT nosplit size=5 args=0x8 locals=0x0 funcid=0x0 align=0x0
	0x0000 00000 (/home/xzl/work/golang-1.22/golang-1.22/test/codegen/mathbits.go:230)	TEXT	command-line-arguments.RotateLeft64(SB), NOSPLIT|NOFRAME|ABIInternal, $0-8
	0x0000 00000 (/home/xzl/work/golang-1.22/golang-1.22/test/codegen/mathbits.go:230)	FUNCDATA	$0, gclocals·g2BeySu+wFnoycgXfElmcg==(SB)
	0x0000 00000 (/home/xzl/work/golang-1.22/golang-1.22/test/codegen/mathbits.go:230)	FUNCDATA	$1, gclocals·g2BeySu+wFnoycgXfElmcg==(SB)
	0x0000 00000 (/home/xzl/work/golang-1.22/golang-1.22/test/codegen/mathbits.go:230)	FUNCDATA	$5, command-line-arguments.RotateLeft64.arginfo1(SB)
	0x0000 00000 (/home/xzl/work/golang-1.22/golang-1.22/test/codegen/mathbits.go:230)	FUNCDATA	$6, command-line-arguments.RotateLeft64.argliveinfo(SB)
	0x0000 00000 (/home/xzl/work/golang-1.22/golang-1.22/test/codegen/mathbits.go:230)	PCDATA	$3, $1
	0x0000 00000 (/home/xzl/work/golang-1.22/golang-1.22/test/codegen/mathbits.go:236)	ROLQ	$37, AX
	0x0004 00004 (/home/xzl/work/golang-1.22/golang-1.22/test/codegen/mathbits.go:236)	RET
	0x0000 48 c1 c0 25 c3                                   H..%.
command-line-arguments.RotateLeft32<1> STEXT nosplit size=4 args=0x8 locals=0x0 funcid=0x0 align=0x0
	0x0000 00000 (/home/xzl/work/golang-1.22/golang-1.22/test/codegen/mathbits.go:239)	TEXT	command-line-arguments.RotateLeft32(SB), NOSPLIT|NOFRAME|ABIInternal, $0-8
	0x0000 00000 (/home/xzl/work/golang-1.22/golang-1.22/test/codegen/mathbits.go:239)	FUNCDATA	$0, gclocals·g2BeySu+wFnoycgXfElmcg==(SB)
	0x0000 00000 (/home/xzl/work/golang-1.22/golang-1.22/test/codegen/mathbits.go:239)	FUNCDATA	$1, gclocals·g2BeySu+wFnoycgXfElmcg==(SB)
	0x0000 00000 (/home/xzl/work/golang-1.22/golang-1.22/test/codegen/mathbits.go:239)	FUNCDATA	$5, command-line-arguments.RotateLeft32.arginfo1(SB)
	0x0000 00000 (/home/xzl/work/golang-1.22/golang-1.22/test/codegen/mathbits.go:239)	FUNCDATA	$6, command-line-arguments.RotateLeft32.argliveinfo(SB)
	0x0000 00000 (/home/xzl/work/golang-1.22/golang-1.22/test/codegen/mathbits.go:239)	PCDATA	$3, $1
	0x0000 00000 (/home/xzl/work/golang-1.22/golang-1.22/test/codegen/mathbits.go:246)	ROLL	$9, AX
	0x0003 00003 (/home/xzl/work/golang-1.22/golang-1.22/test/codegen/mathbits.go:246)	RET
	0x0000 c1 c0 09 c3                                      ....
command-line-arguments.RotateLeft16<1> STEXT nosplit size=7 args=0x10 locals=0x0 funcid=0x0 align=0x0
	0x0000 00000 (/home/xzl/work/golang-1.22/golang-1.22/test/codegen/mathbits.go:249)	TEXT	command-line-arguments.RotateLeft16(SB), NOSPLIT|NOFRAME|ABIInternal, $0-16
	0x0000 00000 (/home/xzl/work/golang-1.22/golang-1.22/test/codegen/mathbits.go:249)	FUNCDATA	$0, gclocals·g2BeySu+wFnoycgXfElmcg==(SB)
	0x0000 00000 (/home/xzl/work/golang-1.22/golang-1.22/test/codegen/mathbits.go:249)	FUNCDATA	$1, gclocals·g2BeySu+wFnoycgXfElmcg==(SB)
	0x0000 00000 (/home/xzl/work/golang-1.22/golang-1.22/test/codegen/mathbits.go:249)	FUNCDATA	$5, command-line-arguments.RotateLeft16.arginfo1(SB)
	0x0000 00000 (/home/xzl/work/golang-1.22/golang-1.22/test/codegen/mathbits.go:249)	FUNCDATA	$6, command-line-arguments.RotateLeft16.argliveinfo(SB)
	0x0000 00000 (/home/xzl/work/golang-1.22/golang-1.22/test/codegen/mathbits.go:249)	PCDATA	$3, $1
	0x0000 00000 (/home/xzl/work/golang-1.22/golang-1.22/test/codegen/mathbits.go:252)	MOVQ	BX, CX
	0x0003 00003 (/home/xzl/work/golang-1.22/golang-1.22/test/codegen/mathbits.go:252)	ROLW	CX, AX
	0x0006 00006 (/home/xzl/work/golang-1.22/golang-1.22/test/codegen/mathbits.go:252)	RET
	0x0000 48 89 d9 66 d3 c0 c3                             H..f...
command-line-arguments.RotateLeft8<1> STEXT nosplit size=6 args=0x10 locals=0x0 funcid=0x0 align=0x0
	0x0000 00000 (/home/xzl/work/golang-1.22/golang-1.22/test/codegen/mathbits.go:255)	TEXT	command-line-arguments.RotateLeft8(SB), NOSPLIT|NOFRAME|ABIInternal, $0-16
	0x0000 00000 (/home/xzl/work/golang-1.22/golang-1.22/test/codegen/mathbits.go:255)	FUNCDATA	$0, gclocals·g2BeySu+wFnoycgXfElmcg==(SB)
	0x0000 00000 (/home/xzl/work/golang-1.22/golang-1.22/test/codegen/mathbits.go:255)	FUNCDATA	$1, gclocals·g2BeySu+wFnoycgXfElmcg==(SB)
	0x0000 00000 (/home/xzl/work/golang-1.22/golang-1.22/test/codegen/mathbits.go:255)	FUNCDATA	$5, command-line-arguments.RotateLeft8.arginfo1(SB)
	0x0000 00000 (/home/xzl/work/golang-1.22/golang-1.22/test/codegen/mathbits.go:255)	FUNCDATA	$6, command-line-arguments.RotateLeft8.argliveinfo(SB)
	0x0000 00000 (/home/xzl/work/golang-1.22/golang-1.22/test/codegen/mathbits.go:255)	PCDATA	$3, $1
	0x0000 00000 (/home/xzl/work/golang-1.22/golang-1.22/test/codegen/mathbits.go:258)	MOVQ	BX, CX
	0x0003 00003 (/home/xzl/work/golang-1.22/golang-1.22/test/codegen/mathbits.go:258)	ROLB	CL, AL
	0x0005 00005 (/home/xzl/work/golang-1.22/golang-1.22/test/codegen/mathbits.go:258)	RET
	0x0000 48 89 d9 d2 c0 c3                                H.....
command-line-arguments.RotateLeftVariable<1> STEXT nosplit size=7 args=0x10 locals=0x0 funcid=0x0 align=0x0
	0x0000 00000 (/home/xzl/work/golang-1.22/golang-1.22/test/codegen/mathbits.go:261)	TEXT	command-line-arguments.RotateLeftVariable(SB), NOSPLIT|NOFRAME|ABIInternal, $0-16
	0x0000 00000 (/home/xzl/work/golang-1.22/golang-1.22/test/codegen/mathbits.go:261)	FUNCDATA	$0, gclocals·g2BeySu+wFnoycgXfElmcg==(SB)
	0x0000 00000 (/home/xzl/work/golang-1.22/golang-1.22/test/codegen/mathbits.go:261)	FUNCDATA	$1, gclocals·g2BeySu+wFnoycgXfElmcg==(SB)
	0x0000 00000 (/home/xzl/work/golang-1.22/golang-1.22/test/codegen/mathbits.go:261)	FUNCDATA	$5, command-line-arguments.RotateLeftVariable.arginfo1(SB)
	0x0000 00000 (/home/xzl/work/golang-1.22/golang-1.22/test/codegen/mathbits.go:261)	FUNCDATA	$6, command-line-arguments.RotateLeftVariable.argliveinfo(SB)
	0x0000 00000 (/home/xzl/work/golang-1.22/golang-1.22/test/codegen/mathbits.go:261)	PCDATA	$3, $1
	0x0000 00000 (/home/xzl/work/golang-1.22/golang-1.22/test/codegen/mathbits.go:267)	MOVQ	BX, CX
	0x0003 00003 (/home/xzl/work/golang-1.22/golang-1.22/test/codegen/mathbits.go:267)	ROLQ	CX, AX
	0x0006 00006 (/home/xzl/work/golang-1.22/golang-1.22/test/codegen/mathbits.go:267)	RET
	0x0000 48 89 d9 48 d3 c0 c3                             H..H...
command-line-arguments.RotateLeftVariable64<1> STEXT nosplit size=7 args=0x10 locals=0x0 funcid=0x0 align=0x0
	0x0000 00000 (/home/xzl/work/golang-1.22/golang-1.22/test/codegen/mathbits.go:270)	TEXT	command-line-arguments.RotateLeftVariable64(SB), NOSPLIT|NOFRAME|ABIInternal, $0-16
	0x0000 00000 (/home/xzl/work/golang-1.22/golang-1.22/test/codegen/mathbits.go:270)	FUNCDATA	$0, gclocals·g2BeySu+wFnoycgXfElmcg==(SB)
	0x0000 00000 (/home/xzl/work/golang-1.22/golang-1.22/test/codegen/mathbits.go:270)	FUNCDATA	$1, gclocals·g2BeySu+wFnoycgXfElmcg==(SB)
	0x0000 00000 (/home/xzl/work/golang-1.22/golang-1.22/test/codegen/mathbits.go:270)	FUNCDATA	$5, command-line-arguments.RotateLeftVariable64.arginfo1(SB)
	0x0000 00000 (/home/xzl/work/golang-1.22/golang-1.22/test/codegen/mathbits.go:270)	FUNCDATA	$6, command-line-arguments.RotateLeftVariable64.argliveinfo(SB)
	0x0000 00000 (/home/xzl/work/golang-1.22/golang-1.22/test/codegen/mathbits.go:270)	PCDATA	$3, $1
	0x0000 00000 (/home/xzl/work/golang-1.22/golang-1.22/test/codegen/mathbits.go:276)	MOVQ	BX, CX
	0x0003 00003 (/home/xzl/work/golang-1.22/golang-1.22/test/codegen/mathbits.go:276)	ROLQ	CX, AX
	0x0006 00006 (/home/xzl/work/golang-1.22/golang-1.22/test/codegen/mathbits.go:276)	RET
	0x0000 48 89 d9 48 d3 c0 c3                             H..H...
command-line-arguments.RotateLeftVariable32<1> STEXT nosplit size=6 args=0x10 locals=0x0 funcid=0x0 align=0x0
	0x0000 00000 (/home/xzl/work/golang-1.22/golang-1.22/test/codegen/mathbits.go:279)	TEXT	command-line-arguments.RotateLeftVariable32(SB), NOSPLIT|NOFRAME|ABIInternal, $0-16
	0x0000 00000 (/home/xzl/work/golang-1.22/golang-1.22/test/codegen/mathbits.go:279)	FUNCDATA	$0, gclocals·g2BeySu+wFnoycgXfElmcg==(SB)
	0x0000 00000 (/home/xzl/work/golang-1.22/golang-1.22/test/codegen/mathbits.go:279)	FUNCDATA	$1, gclocals·g2BeySu+wFnoycgXfElmcg==(SB)
	0x0000 00000 (/home/xzl/work/golang-1.22/golang-1.22/test/codegen/mathbits.go:279)	FUNCDATA	$5, command-line-arguments.RotateLeftVariable32.arginfo1(SB)
	0x0000 00000 (/home/xzl/work/golang-1.22/golang-1.22/test/codegen/mathbits.go:279)	FUNCDATA	$6, command-line-arguments.RotateLeftVariable32.argliveinfo(SB)
	0x0000 00000 (/home/xzl/work/golang-1.22/golang-1.22/test/codegen/mathbits.go:279)	PCDATA	$3, $1
	0x0000 00000 (/home/xzl/work/golang-1.22/golang-1.22/test/codegen/mathbits.go:286)	MOVQ	BX, CX
	0x0003 00003 (/home/xzl/work/golang-1.22/golang-1.22/test/codegen/mathbits.go:286)	ROLL	CX, AX
	0x0005 00005 (/home/xzl/work/golang-1.22/golang-1.22/test/codegen/mathbits.go:286)	RET
	0x0000 48 89 d9 d3 c0 c3                                H.....
command-line-arguments.TrailingZeros<1> STEXT nosplit size=7 args=0x8 locals=0x0 funcid=0x0 align=0x0
	0x0000 00000 (/home/xzl/work/golang-1.22/golang-1.22/test/codegen/mathbits.go:293)	TEXT	command-line-arguments.TrailingZeros(SB), NOSPLIT|NOFRAME|ABIInternal, $0-8
	0x0000 00000 (/home/xzl/work/golang-1.22/golang-1.22/test/codegen/mathbits.go:293)	FUNCDATA	$0, gclocals·g2BeySu+wFnoycgXfElmcg==(SB)
	0x0000 00000 (/home/xzl/work/golang-1.22/golang-1.22/test/codegen/mathbits.go:293)	FUNCDATA	$1, gclocals·g2BeySu+wFnoycgXfElmcg==(SB)
	0x0000 00000 (/home/xzl/work/golang-1.22/golang-1.22/test/codegen/mathbits.go:293)	FUNCDATA	$5, command-line-arguments.TrailingZeros.arginfo1(SB)
	0x0000 00000 (/home/xzl/work/golang-1.22/golang-1.22/test/codegen/mathbits.go:293)	FUNCDATA	$6, command-line-arguments.TrailingZeros.argliveinfo(SB)
	0x0000 00000 (/home/xzl/work/golang-1.22/golang-1.22/test/codegen/mathbits.go:293)	PCDATA	$3, $1
	0x0000 00000 (/home/xzl/work/golang-1.22/golang-1.22/test/codegen/mathbits.go:293)	XCHGL	AX, AX
	0x0001 00001 (/home/xzl/work/golang-1.22/golang-1.22/test/codegen/mathbits.go:303)	TZCNTQ	AX, AX
	0x0006 00006 (<unknown line number>)	NOP
	0x0006 00006 (/home/xzl/work/golang-1.22/golang-1.22/test/codegen/mathbits.go:303)	RET
	0x0000 90 f3 48 0f bc c0 c3                             ..H....
command-line-arguments.TrailingZeros64<1> STEXT nosplit size=6 args=0x8 locals=0x0 funcid=0x0 align=0x0
	0x0000 00000 (/home/xzl/work/golang-1.22/golang-1.22/test/codegen/mathbits.go:306)	TEXT	command-line-arguments.TrailingZeros64(SB), NOSPLIT|NOFRAME|ABIInternal, $0-8
	0x0000 00000 (/home/xzl/work/golang-1.22/golang-1.22/test/codegen/mathbits.go:306)	FUNCDATA	$0, gclocals·g2BeySu+wFnoycgXfElmcg==(SB)
	0x0000 00000 (/home/xzl/work/golang-1.22/golang-1.22/test/codegen/mathbits.go:306)	FUNCDATA	$1, gclocals·g2BeySu+wFnoycgXfElmcg==(SB)
	0x0000 00000 (/home/xzl/work/golang-1.22/golang-1.22/test/codegen/mathbits.go:306)	FUNCDATA	$5, command-line-arguments.TrailingZeros64.arginfo1(SB)
	0x0000 00000 (/home/xzl/work/golang-1.22/golang-1.22/test/codegen/mathbits.go:306)	FUNCDATA	$6, command-line-arguments.TrailingZeros64.argliveinfo(SB)
	0x0000 00000 (/home/xzl/work/golang-1.22/golang-1.22/test/codegen/mathbits.go:306)	PCDATA	$3, $1
	0x0000 00000 (/home/xzl/work/golang-1.22/golang-1.22/test/codegen/mathbits.go:315)	TZCNTQ	AX, AX
	0x0005 00005 (/home/xzl/work/golang-1.22/golang-1.22/test/codegen/mathbits.go:315)	RET
	0x0000 f3 48 0f bc c0 c3                                .H....
command-line-arguments.TrailingZeros64Subtract<1> STEXT nosplit size=15 args=0x8 locals=0x0 funcid=0x0 align=0x0
	0x0000 00000 (/home/xzl/work/golang-1.22/golang-1.22/test/codegen/mathbits.go:318)	TEXT	command-line-arguments.TrailingZeros64Subtract(SB), NOSPLIT|NOFRAME|ABIInternal, $0-8
	0x0000 00000 (/home/xzl/work/golang-1.22/golang-1.22/test/codegen/mathbits.go:318)	FUNCDATA	$0, gclocals·g2BeySu+wFnoycgXfElmcg==(SB)
	0x0000 00000 (/home/xzl/work/golang-1.22/golang-1.22/test/codegen/mathbits.go:318)	FUNCDATA	$1, gclocals·g2BeySu+wFnoycgXfElmcg==(SB)
	0x0000 00000 (/home/xzl/work/golang-1.22/golang-1.22/test/codegen/mathbits.go:318)	FUNCDATA	$5, command-line-arguments.TrailingZeros64Subtract.arginfo1(SB)
	0x0000 00000 (/home/xzl/work/golang-1.22/golang-1.22/test/codegen/mathbits.go:318)	FUNCDATA	$6, command-line-arguments.TrailingZeros64Subtract.argliveinfo(SB)
	0x0000 00000 (/home/xzl/work/golang-1.22/golang-1.22/test/codegen/mathbits.go:318)	PCDATA	$3, $1
	0x0000 00000 (/home/xzl/work/golang-1.22/golang-1.22/test/codegen/mathbits.go:321)	LEAQ	-1(AX), CX
	0x0004 00004 (/home/xzl/work/golang-1.22/golang-1.22/test/codegen/mathbits.go:321)	NEGQ	CX
	0x0007 00007 (/home/xzl/work/golang-1.22/golang-1.22/test/codegen/mathbits.go:321)	XORL	AX, AX
	0x0009 00009 (/home/xzl/work/golang-1.22/golang-1.22/test/codegen/mathbits.go:321)	TZCNTQ	CX, AX
	0x000e 00014 (/home/xzl/work/golang-1.22/golang-1.22/test/codegen/mathbits.go:321)	RET
	0x0000 48 8d 48 ff 48 f7 d9 31 c0 f3 48 0f bc c1 c3     H.H.H..1..H....
command-line-arguments.TrailingZeros32<1> STEXT nosplit size=5 args=0x8 locals=0x0 funcid=0x0 align=0x0
	0x0000 00000 (/home/xzl/work/golang-1.22/golang-1.22/test/codegen/mathbits.go:324)	TEXT	command-line-arguments.TrailingZeros32(SB), NOSPLIT|NOFRAME|ABIInternal, $0-8
	0x0000 00000 (/home/xzl/work/golang-1.22/golang-1.22/test/codegen/mathbits.go:324)	FUNCDATA	$0, gclocals·g2BeySu+wFnoycgXfElmcg==(SB)
	0x0000 00000 (/home/xzl/work/golang-1.22/golang-1.22/test/codegen/mathbits.go:324)	FUNCDATA	$1, gclocals·g2BeySu+wFnoycgXfElmcg==(SB)
	0x0000 00000 (/home/xzl/work/golang-1.22/golang-1.22/test/codegen/mathbits.go:324)	FUNCDATA	$5, command-line-arguments.TrailingZeros32.arginfo1(SB)
	0x0000 00000 (/home/xzl/work/golang-1.22/golang-1.22/test/codegen/mathbits.go:324)	FUNCDATA	$6, command-line-arguments.TrailingZeros32.argliveinfo(SB)
	0x0000 00000 (/home/xzl/work/golang-1.22/golang-1.22/test/codegen/mathbits.go:324)	PCDATA	$3, $1
	0x0000 00000 (/home/xzl/work/golang-1.22/golang-1.22/test/codegen/mathbits.go:334)	TZCNTL	AX, AX
	0x0004 00004 (/home/xzl/work/golang-1.22/golang-1.22/test/codegen/mathbits.go:334)	RET
	0x0000 f3 0f bc c0 c3                                   .....
command-line-arguments.TrailingZeros16<1> STEXT nosplit size=9 args=0x8 locals=0x0 funcid=0x0 align=0x0
	0x0000 00000 (/home/xzl/work/golang-1.22/golang-1.22/test/codegen/mathbits.go:337)	TEXT	command-line-arguments.TrailingZeros16(SB), NOSPLIT|NOFRAME|ABIInternal, $0-8
	0x0000 00000 (/home/xzl/work/golang-1.22/golang-1.22/test/codegen/mathbits.go:337)	FUNCDATA	$0, gclocals·g2BeySu+wFnoycgXfElmcg==(SB)
	0x0000 00000 (/home/xzl/work/golang-1.22/golang-1.22/test/codegen/mathbits.go:337)	FUNCDATA	$1, gclocals·g2BeySu+wFnoycgXfElmcg==(SB)
	0x0000 00000 (/home/xzl/work/golang-1.22/golang-1.22/test/codegen/mathbits.go:337)	FUNCDATA	$5, command-line-arguments.TrailingZeros16.arginfo1(SB)
	0x0000 00000 (/home/xzl/work/golang-1.22/golang-1.22/test/codegen/mathbits.go:337)	FUNCDATA	$6, command-line-arguments.TrailingZeros16.argliveinfo(SB)
	0x0000 00000 (/home/xzl/work/golang-1.22/golang-1.22/test/codegen/mathbits.go:337)	PCDATA	$3, $1
	0x0000 00000 (/home/xzl/work/golang-1.22/golang-1.22/test/codegen/mathbits.go:346)	ORL	$65536, AX
	0x0005 00005 (/home/xzl/work/golang-1.22/golang-1.22/test/codegen/mathbits.go:346)	BSFL	AX, AX
	0x0008 00008 (/home/xzl/work/golang-1.22/golang-1.22/test/codegen/mathbits.go:346)	RET
	0x0000 0d 00 00 01 00 0f bc c0 c3                       .........
command-line-arguments.TrailingZeros8<1> STEXT nosplit size=9 args=0x8 locals=0x0 funcid=0x0 align=0x0
	0x0000 00000 (/home/xzl/work/golang-1.22/golang-1.22/test/codegen/mathbits.go:349)	TEXT	command-line-arguments.TrailingZeros8(SB), NOSPLIT|NOFRAME|ABIInternal, $0-8
	0x0000 00000 (/home/xzl/work/golang-1.22/golang-1.22/test/codegen/mathbits.go:349)	FUNCDATA	$0, gclocals·g2BeySu+wFnoycgXfElmcg==(SB)
	0x0000 00000 (/home/xzl/work/golang-1.22/golang-1.22/test/codegen/mathbits.go:349)	FUNCDATA	$1, gclocals·g2BeySu+wFnoycgXfElmcg==(SB)
	0x0000 00000 (/home/xzl/work/golang-1.22/golang-1.22/test/codegen/mathbits.go:349)	FUNCDATA	$5, command-line-arguments.TrailingZeros8.arginfo1(SB)
	0x0000 00000 (/home/xzl/work/golang-1.22/golang-1.22/test/codegen/mathbits.go:349)	FUNCDATA	$6, command-line-arguments.TrailingZeros8.argliveinfo(SB)
	0x0000 00000 (/home/xzl/work/golang-1.22/golang-1.22/test/codegen/mathbits.go:349)	PCDATA	$3, $1
	0x0000 00000 (/home/xzl/work/golang-1.22/golang-1.22/test/codegen/mathbits.go:356)	ORL	$256, AX
	0x0005 00005 (/home/xzl/work/golang-1.22/golang-1.22/test/codegen/mathbits.go:356)	BSFL	AX, AX
	0x0008 00008 (/home/xzl/work/golang-1.22/golang-1.22/test/codegen/mathbits.go:356)	RET
	0x0000 0d 00 01 00 00 0f bc c0 c3                       .........
command-line-arguments.IterateBits<1> STEXT nosplit size=28 args=0x8 locals=0x0 funcid=0x0 align=0x0
	0x0000 00000 (/home/xzl/work/golang-1.22/golang-1.22/test/codegen/mathbits.go:361)	TEXT	command-line-arguments.IterateBits(SB), NOSPLIT|NOFRAME|ABIInternal, $0-8
	0x0000 00000 (/home/xzl/work/golang-1.22/golang-1.22/test/codegen/mathbits.go:361)	FUNCDATA	$0, gclocals·g2BeySu+wFnoycgXfElmcg==(SB)
	0x0000 00000 (/home/xzl/work/golang-1.22/golang-1.22/test/codegen/mathbits.go:361)	FUNCDATA	$1, gclocals·g2BeySu+wFnoycgXfElmcg==(SB)
	0x0000 00000 (/home/xzl/work/golang-1.22/golang-1.22/test/codegen/mathbits.go:361)	FUNCDATA	$5, command-line-arguments.IterateBits.arginfo1(SB)
	0x0000 00000 (/home/xzl/work/golang-1.22/golang-1.22/test/codegen/mathbits.go:361)	FUNCDATA	$6, command-line-arguments.IterateBits.argliveinfo(SB)
	0x0000 00000 (/home/xzl/work/golang-1.22/golang-1.22/test/codegen/mathbits.go:361)	PCDATA	$3, $1
	0x0000 00000 (/home/xzl/work/golang-1.22/golang-1.22/test/codegen/mathbits.go:363)	XORL	CX, CX
	0x0002 00002 (/home/xzl/work/golang-1.22/golang-1.22/test/codegen/mathbits.go:363)	JMP	19
	0x0004 00004 (/home/xzl/work/golang-1.22/golang-1.22/test/codegen/mathbits.go:366)	XORL	DX, DX
	0x0006 00006 (/home/xzl/work/golang-1.22/golang-1.22/test/codegen/mathbits.go:366)	TZCNTQ	AX, DX
	0x000b 00011 (/home/xzl/work/golang-1.22/golang-1.22/test/codegen/mathbits.go:366)	ADDQ	DX, CX
	0x000e 00014 (<unknown line number>)	NOP
	0x000e 00014 (/home/xzl/work/golang-1.22/golang-1.22/test/codegen/mathbits.go:367)	BLSRQ	AX, AX
	0x0013 00019 (/home/xzl/work/golang-1.22/golang-1.22/test/codegen/mathbits.go:363)	TESTQ	AX, AX
	0x0016 00022 (/home/xzl/work/golang-1.22/golang-1.22/test/codegen/mathbits.go:363)	JNE	4
	0x0018 00024 (/home/xzl/work/golang-1.22/golang-1.22/test/codegen/mathbits.go:369)	MOVQ	CX, AX
	0x001b 00027 (/home/xzl/work/golang-1.22/golang-1.22/test/codegen/mathbits.go:369)	RET
	0x0000 31 c9 eb 0f 31 d2 f3 48 0f bc d0 48 01 d1 c4 e2  1...1..H...H....
	0x0010 f8 f3 c8 48 85 c0 75 ec 48 89 c8 c3              ...H..u.H...
command-line-arguments.IterateBits64<1> STEXT nosplit size=28 args=0x8 locals=0x0 funcid=0x0 align=0x0
	0x0000 00000 (/home/xzl/work/golang-1.22/golang-1.22/test/codegen/mathbits.go:372)	TEXT	command-line-arguments.IterateBits64(SB), NOSPLIT|NOFRAME|ABIInternal, $0-8
	0x0000 00000 (/home/xzl/work/golang-1.22/golang-1.22/test/codegen/mathbits.go:372)	FUNCDATA	$0, gclocals·g2BeySu+wFnoycgXfElmcg==(SB)
	0x0000 00000 (/home/xzl/work/golang-1.22/golang-1.22/test/codegen/mathbits.go:372)	FUNCDATA	$1, gclocals·g2BeySu+wFnoycgXfElmcg==(SB)
	0x0000 00000 (/home/xzl/work/golang-1.22/golang-1.22/test/codegen/mathbits.go:372)	FUNCDATA	$5, command-line-arguments.IterateBits64.arginfo1(SB)
	0x0000 00000 (/home/xzl/work/golang-1.22/golang-1.22/test/codegen/mathbits.go:372)	FUNCDATA	$6, command-line-arguments.IterateBits64.argliveinfo(SB)
	0x0000 00000 (/home/xzl/work/golang-1.22/golang-1.22/test/codegen/mathbits.go:372)	PCDATA	$3, $1
	0x0000 00000 (/home/xzl/work/golang-1.22/golang-1.22/test/codegen/mathbits.go:374)	XORL	CX, CX
	0x0002 00002 (/home/xzl/work/golang-1.22/golang-1.22/test/codegen/mathbits.go:374)	JMP	19
	0x0004 00004 (/home/xzl/work/golang-1.22/golang-1.22/test/codegen/mathbits.go:377)	XORL	DX, DX
	0x0006 00006 (/home/xzl/work/golang-1.22/golang-1.22/test/codegen/mathbits.go:377)	TZCNTQ	AX, DX
	0x000b 00011 (/home/xzl/work/golang-1.22/golang-1.22/test/codegen/mathbits.go:377)	ADDQ	DX, CX
	0x000e 00014 (/home/xzl/work/golang-1.22/golang-1.22/test/codegen/mathbits.go:378)	BLSRQ	AX, AX
	0x0013 00019 (/home/xzl/work/golang-1.22/golang-1.22/test/codegen/mathbits.go:374)	TESTQ	AX, AX
	0x0016 00022 (/home/xzl/work/golang-1.22/golang-1.22/test/codegen/mathbits.go:374)	JNE	4
	0x0018 00024 (/home/xzl/work/golang-1.22/golang-1.22/test/codegen/mathbits.go:380)	MOVQ	CX, AX
	0x001b 00027 (/home/xzl/work/golang-1.22/golang-1.22/test/codegen/mathbits.go:380)	RET
	0x0000 31 c9 eb 0f 31 d2 f3 48 0f bc d0 48 01 d1 c4 e2  1...1..H...H....
	0x0010 f8 f3 c8 48 85 c0 75 ec 48 89 c8 c3              ...H..u.H...
command-line-arguments.IterateBits32<1> STEXT nosplit size=26 args=0x8 locals=0x0 funcid=0x0 align=0x0
	0x0000 00000 (/home/xzl/work/golang-1.22/golang-1.22/test/codegen/mathbits.go:383)	TEXT	command-line-arguments.IterateBits32(SB), NOSPLIT|NOFRAME|ABIInternal, $0-8
	0x0000 00000 (/home/xzl/work/golang-1.22/golang-1.22/test/codegen/mathbits.go:383)	FUNCDATA	$0, gclocals·g2BeySu+wFnoycgXfElmcg==(SB)
	0x0000 00000 (/home/xzl/work/golang-1.22/golang-1.22/test/codegen/mathbits.go:383)	FUNCDATA	$1, gclocals·g2BeySu+wFnoycgXfElmcg==(SB)
	0x0000 00000 (/home/xzl/work/golang-1.22/golang-1.22/test/codegen/mathbits.go:383)	FUNCDATA	$5, command-line-arguments.IterateBits32.arginfo1(SB)
	0x0000 00000 (/home/xzl/work/golang-1.22/golang-1.22/test/codegen/mathbits.go:383)	FUNCDATA	$6, command-line-arguments.IterateBits32.argliveinfo(SB)
	0x0000 00000 (/home/xzl/work/golang-1.22/golang-1.22/test/codegen/mathbits.go:383)	PCDATA	$3, $1
	0x0000 00000 (/home/xzl/work/golang-1.22/golang-1.22/test/codegen/mathbits.go:385)	XORL	CX, CX
	0x0002 00002 (/home/xzl/work/golang-1.22/golang-1.22/test/codegen/mathbits.go:385)	JMP	18
	0x0004 00004 (/home/xzl/work/golang-1.22/golang-1.22/test/codegen/mathbits.go:388)	XORL	DX, DX
	0x0006 00006 (/home/xzl/work/golang-1.22/golang-1.22/test/codegen/mathbits.go:388)	TZCNTL	AX, DX
	0x000a 00010 (/home/xzl/work/golang-1.22/golang-1.22/test/codegen/mathbits.go:388)	ADDQ	DX, CX
	0x000d 00013 (/home/xzl/work/golang-1.22/golang-1.22/test/codegen/mathbits.go:389)	BLSRL	AX, AX
	0x0012 00018 (/home/xzl/work/golang-1.22/golang-1.22/test/codegen/mathbits.go:385)	TESTL	AX, AX
	0x0014 00020 (/home/xzl/work/golang-1.22/golang-1.22/test/codegen/mathbits.go:385)	JNE	4
	0x0016 00022 (/home/xzl/work/golang-1.22/golang-1.22/test/codegen/mathbits.go:391)	MOVQ	CX, AX
	0x0019 00025 (/home/xzl/work/golang-1.22/golang-1.22/test/codegen/mathbits.go:391)	RET
	0x0000 31 c9 eb 0e 31 d2 f3 0f bc d0 48 01 d1 c4 e2 78  1...1.....H....x
	0x0010 f3 c8 85 c0 75 ee 48 89 c8 c3                    ....u.H...
command-line-arguments.IterateBits16<1> STEXT nosplit size=27 args=0x8 locals=0x0 funcid=0x0 align=0x0
	0x0000 00000 (/home/xzl/work/golang-1.22/golang-1.22/test/codegen/mathbits.go:394)	TEXT	command-line-arguments.IterateBits16(SB), NOSPLIT|NOFRAME|ABIInternal, $0-8
	0x0000 00000 (/home/xzl/work/golang-1.22/golang-1.22/test/codegen/mathbits.go:394)	FUNCDATA	$0, gclocals·g2BeySu+wFnoycgXfElmcg==(SB)
	0x0000 00000 (/home/xzl/work/golang-1.22/golang-1.22/test/codegen/mathbits.go:394)	FUNCDATA	$1, gclocals·g2BeySu+wFnoycgXfElmcg==(SB)
	0x0000 00000 (/home/xzl/work/golang-1.22/golang-1.22/test/codegen/mathbits.go:394)	FUNCDATA	$5, command-line-arguments.IterateBits16.arginfo1(SB)
	0x0000 00000 (/home/xzl/work/golang-1.22/golang-1.22/test/codegen/mathbits.go:394)	FUNCDATA	$6, command-line-arguments.IterateBits16.argliveinfo(SB)
	0x0000 00000 (/home/xzl/work/golang-1.22/golang-1.22/test/codegen/mathbits.go:394)	PCDATA	$3, $1
	0x0000 00000 (/home/xzl/work/golang-1.22/golang-1.22/test/codegen/mathbits.go:396)	XORL	CX, CX
	0x0002 00002 (/home/xzl/work/golang-1.22/golang-1.22/test/codegen/mathbits.go:396)	JMP	18
	0x0004 00004 (/home/xzl/work/golang-1.22/golang-1.22/test/codegen/mathbits.go:400)	XORL	DX, DX
	0x0006 00006 (/home/xzl/work/golang-1.22/golang-1.22/test/codegen/mathbits.go:400)	TZCNTL	AX, DX
	0x000a 00010 (/home/xzl/work/golang-1.22/golang-1.22/test/codegen/mathbits.go:400)	ADDQ	DX, CX
	0x000d 00013 (/home/xzl/work/golang-1.22/golang-1.22/test/codegen/mathbits.go:401)	BLSRL	AX, AX
	0x0012 00018 (/home/xzl/work/golang-1.22/golang-1.22/test/codegen/mathbits.go:396)	TESTW	AX, AX
	0x0015 00021 (/home/xzl/work/golang-1.22/golang-1.22/test/codegen/mathbits.go:396)	JNE	4
	0x0017 00023 (/home/xzl/work/golang-1.22/golang-1.22/test/codegen/mathbits.go:403)	MOVQ	CX, AX
	0x001a 00026 (/home/xzl/work/golang-1.22/golang-1.22/test/codegen/mathbits.go:403)	RET
	0x0000 31 c9 eb 0e 31 d2 f3 0f bc d0 48 01 d1 c4 e2 78  1...1.....H....x
	0x0010 f3 c8 66 85 c0 75 ed 48 89 c8 c3                 ..f..u.H...
command-line-arguments.IterateBits8<1> STEXT nosplit size=26 args=0x8 locals=0x0 funcid=0x0 align=0x0
	0x0000 00000 (/home/xzl/work/golang-1.22/golang-1.22/test/codegen/mathbits.go:406)	TEXT	command-line-arguments.IterateBits8(SB), NOSPLIT|NOFRAME|ABIInternal, $0-8
	0x0000 00000 (/home/xzl/work/golang-1.22/golang-1.22/test/codegen/mathbits.go:406)	FUNCDATA	$0, gclocals·g2BeySu+wFnoycgXfElmcg==(SB)
	0x0000 00000 (/home/xzl/work/golang-1.22/golang-1.22/test/codegen/mathbits.go:406)	FUNCDATA	$1, gclocals·g2BeySu+wFnoycgXfElmcg==(SB)
	0x0000 00000 (/home/xzl/work/golang-1.22/golang-1.22/test/codegen/mathbits.go:406)	FUNCDATA	$5, command-line-arguments.IterateBits8.arginfo1(SB)
	0x0000 00000 (/home/xzl/work/golang-1.22/golang-1.22/test/codegen/mathbits.go:406)	FUNCDATA	$6, command-line-arguments.IterateBits8.argliveinfo(SB)
	0x0000 00000 (/home/xzl/work/golang-1.22/golang-1.22/test/codegen/mathbits.go:406)	PCDATA	$3, $1
	0x0000 00000 (/home/xzl/work/golang-1.22/golang-1.22/test/codegen/mathbits.go:408)	XORL	CX, CX
	0x0002 00002 (/home/xzl/work/golang-1.22/golang-1.22/test/codegen/mathbits.go:408)	JMP	18
	0x0004 00004 (/home/xzl/work/golang-1.22/golang-1.22/test/codegen/mathbits.go:412)	XORL	DX, DX
	0x0006 00006 (/home/xzl/work/golang-1.22/golang-1.22/test/codegen/mathbits.go:412)	TZCNTL	AX, DX
	0x000a 00010 (/home/xzl/work/golang-1.22/golang-1.22/test/codegen/mathbits.go:412)	ADDQ	DX, CX
	0x000d 00013 (/home/xzl/work/golang-1.22/golang-1.22/test/codegen/mathbits.go:413)	BLSRL	AX, AX
	0x0012 00018 (/home/xzl/work/golang-1.22/golang-1.22/test/codegen/mathbits.go:408)	TESTB	AL, AL
	0x0014 00020 (/home/xzl/work/golang-1.22/golang-1.22/test/codegen/mathbits.go:408)	JNE	4
	0x0016 00022 (/home/xzl/work/golang-1.22/golang-1.22/test/codegen/mathbits.go:415)	MOVQ	CX, AX
	0x0019 00025 (/home/xzl/work/golang-1.22/golang-1.22/test/codegen/mathbits.go:415)	RET
	0x0000 31 c9 eb 0e 31 d2 f3 0f bc d0 48 01 d1 c4 e2 78  1...1.....H....x
	0x0010 f3 c8 84 c0 75 ee 48 89 c8 c3                    ....u.H...
command-line-arguments.Add<1> STEXT nosplit size=12 args=0x18 locals=0x0 funcid=0x0 align=0x0
	0x0000 00000 (/home/xzl/work/golang-1.22/golang-1.22/test/codegen/mathbits.go:422)	TEXT	command-line-arguments.Add(SB), NOSPLIT|NOFRAME|ABIInternal, $0-24
	0x0000 00000 (/home/xzl/work/golang-1.22/golang-1.22/test/codegen/mathbits.go:422)	FUNCDATA	$0, gclocals·g2BeySu+wFnoycgXfElmcg==(SB)
	0x0000 00000 (/home/xzl/work/golang-1.22/golang-1.22/test/codegen/mathbits.go:422)	FUNCDATA	$1, gclocals·g2BeySu+wFnoycgXfElmcg==(SB)
	0x0000 00000 (/home/xzl/work/golang-1.22/golang-1.22/test/codegen/mathbits.go:422)	FUNCDATA	$5, command-line-arguments.Add.arginfo1(SB)
	0x0000 00000 (/home/xzl/work/golang-1.22/golang-1.22/test/codegen/mathbits.go:422)	FUNCDATA	$6, command-line-arguments.Add.argliveinfo(SB)
	0x0000 00000 (/home/xzl/work/golang-1.22/golang-1.22/test/codegen/mathbits.go:422)	PCDATA	$3, $1
	0x0000 00000 (/home/xzl/work/golang-1.22/golang-1.22/test/codegen/mathbits.go:428)	NEGL	CX
	0x0002 00002 (/home/xzl/work/golang-1.22/golang-1.22/test/codegen/mathbits.go:428)	ADCQ	BX, AX
	0x0005 00005 (/home/xzl/work/golang-1.22/golang-1.22/test/codegen/mathbits.go:428)	SBBQ	BX, BX
	0x0008 00008 (/home/xzl/work/golang-1.22/golang-1.22/test/codegen/mathbits.go:428)	NEGQ	BX
	0x000b 00011 (/home/xzl/work/golang-1.22/golang-1.22/test/codegen/mathbits.go:428)	RET
	0x0000 f7 d9 48 11 d8 48 19 db 48 f7 db c3              ..H..H..H...
command-line-arguments.AddC<1> STEXT nosplit size=13 args=0x10 locals=0x0 funcid=0x0 align=0x0
	0x0000 00000 (/home/xzl/work/golang-1.22/golang-1.22/test/codegen/mathbits.go:431)	TEXT	command-line-arguments.AddC(SB), NOSPLIT|NOFRAME|ABIInternal, $0-16
	0x0000 00000 (/home/xzl/work/golang-1.22/golang-1.22/test/codegen/mathbits.go:431)	FUNCDATA	$0, gclocals·g2BeySu+wFnoycgXfElmcg==(SB)
	0x0000 00000 (/home/xzl/work/golang-1.22/golang-1.22/test/codegen/mathbits.go:431)	FUNCDATA	$1, gclocals·g2BeySu+wFnoycgXfElmcg==(SB)
	0x0000 00000 (/home/xzl/work/golang-1.22/golang-1.22/test/codegen/mathbits.go:431)	FUNCDATA	$5, command-line-arguments.AddC.arginfo1(SB)
	0x0000 00000 (/home/xzl/work/golang-1.22/golang-1.22/test/codegen/mathbits.go:431)	FUNCDATA	$6, command-line-arguments.AddC.argliveinfo(SB)
	0x0000 00000 (/home/xzl/work/golang-1.22/golang-1.22/test/codegen/mathbits.go:431)	PCDATA	$3, $1
	0x0000 00000 (/home/xzl/work/golang-1.22/golang-1.22/test/codegen/mathbits.go:439)	NEGL	BX
	0x0002 00002 (/home/xzl/work/golang-1.22/golang-1.22/test/codegen/mathbits.go:439)	ADCQ	$7, AX
	0x0006 00006 (/home/xzl/work/golang-1.22/golang-1.22/test/codegen/mathbits.go:439)	SBBQ	BX, BX
	0x0009 00009 (/home/xzl/work/golang-1.22/golang-1.22/test/codegen/mathbits.go:439)	NEGQ	BX
	0x000c 00012 (/home/xzl/work/golang-1.22/golang-1.22/test/codegen/mathbits.go:439)	RET
	0x0000 f7 db 48 83 d0 07 48 19 db 48 f7 db c3           ..H...H..H...
command-line-arguments.AddZ<1> STEXT nosplit size=10 args=0x10 locals=0x0 funcid=0x0 align=0x0
	0x0000 00000 (/home/xzl/work/golang-1.22/golang-1.22/test/codegen/mathbits.go:442)	TEXT	command-line-arguments.AddZ(SB), NOSPLIT|NOFRAME|ABIInternal, $0-16
	0x0000 00000 (/home/xzl/work/golang-1.22/golang-1.22/test/codegen/mathbits.go:442)	FUNCDATA	$0, gclocals·g2BeySu+wFnoycgXfElmcg==(SB)
	0x0000 00000 (/home/xzl/work/golang-1.22/golang-1.22/test/codegen/mathbits.go:442)	FUNCDATA	$1, gclocals·g2BeySu+wFnoycgXfElmcg==(SB)
	0x0000 00000 (/home/xzl/work/golang-1.22/golang-1.22/test/codegen/mathbits.go:442)	FUNCDATA	$5, command-line-arguments.AddZ.arginfo1(SB)
	0x0000 00000 (/home/xzl/work/golang-1.22/golang-1.22/test/codegen/mathbits.go:442)	FUNCDATA	$6, command-line-arguments.AddZ.argliveinfo(SB)
	0x0000 00000 (/home/xzl/work/golang-1.22/golang-1.22/test/codegen/mathbits.go:442)	PCDATA	$3, $1
	0x0000 00000 (/home/xzl/work/golang-1.22/golang-1.22/test/codegen/mathbits.go:450)	ADDQ	BX, AX
	0x0003 00003 (/home/xzl/work/golang-1.22/golang-1.22/test/codegen/mathbits.go:450)	SBBQ	BX, BX
	0x0006 00006 (/home/xzl/work/golang-1.22/golang-1.22/test/codegen/mathbits.go:450)	NEGQ	BX
	0x0009 00009 (/home/xzl/work/golang-1.22/golang-1.22/test/codegen/mathbits.go:450)	RET
	0x0000 48 01 d8 48 19 db 48 f7 db c3                    H..H..H...
command-line-arguments.AddR<1> STEXT nosplit size=6 args=0x18 locals=0x0 funcid=0x0 align=0x0
	0x0000 00000 (/home/xzl/work/golang-1.22/golang-1.22/test/codegen/mathbits.go:453)	TEXT	command-line-arguments.AddR(SB), NOSPLIT|NOFRAME|ABIInternal, $0-24
	0x0000 00000 (/home/xzl/work/golang-1.22/golang-1.22/test/codegen/mathbits.go:453)	FUNCDATA	$0, gclocals·g2BeySu+wFnoycgXfElmcg==(SB)
	0x0000 00000 (/home/xzl/work/golang-1.22/golang-1.22/test/codegen/mathbits.go:453)	FUNCDATA	$1, gclocals·g2BeySu+wFnoycgXfElmcg==(SB)
	0x0000 00000 (/home/xzl/work/golang-1.22/golang-1.22/test/codegen/mathbits.go:453)	FUNCDATA	$5, command-line-arguments.AddR.arginfo1(SB)
	0x0000 00000 (/home/xzl/work/golang-1.22/golang-1.22/test/codegen/mathbits.go:453)	FUNCDATA	$6, command-line-arguments.AddR.argliveinfo(SB)
	0x0000 00000 (/home/xzl/work/golang-1.22/golang-1.22/test/codegen/mathbits.go:453)	PCDATA	$3, $1
	0x0000 00000 (/home/xzl/work/golang-1.22/golang-1.22/test/codegen/mathbits.go:461)	NEGL	CX
	0x0002 00002 (/home/xzl/work/golang-1.22/golang-1.22/test/codegen/mathbits.go:461)	ADCQ	BX, AX
	0x0005 00005 (/home/xzl/work/golang-1.22/golang-1.22/test/codegen/mathbits.go:462)	RET
	0x0000 f7 d9 48 11 d8 c3                                ..H...
command-line-arguments.AddM<1> STEXT nosplit size=43 args=0x18 locals=0x0 funcid=0x0 align=0x0
	0x0000 00000 (/home/xzl/work/golang-1.22/golang-1.22/test/codegen/mathbits.go:465)	TEXT	command-line-arguments.AddM(SB), NOSPLIT|NOFRAME|ABIInternal, $0-24
	0x0000 00000 (/home/xzl/work/golang-1.22/golang-1.22/test/codegen/mathbits.go:465)	FUNCDATA	$0, gclocals·LlfHo70um+DIUn9rjx/QUA==(SB)
	0x0000 00000 (/home/xzl/work/golang-1.22/golang-1.22/test/codegen/mathbits.go:465)	FUNCDATA	$1, gclocals·J5F+7Qw7O7ve2QcWC7DpeQ==(SB)
	0x0000 00000 (/home/xzl/work/golang-1.22/golang-1.22/test/codegen/mathbits.go:465)	FUNCDATA	$5, command-line-arguments.AddM.arginfo1(SB)
	0x0000 00000 (/home/xzl/work/golang-1.22/golang-1.22/test/codegen/mathbits.go:465)	FUNCDATA	$6, command-line-arguments.AddM.argliveinfo(SB)
	0x0000 00000 (/home/xzl/work/golang-1.22/golang-1.22/test/codegen/mathbits.go:465)	PCDATA	$3, $1
	0x0000 00000 (/home/xzl/work/golang-1.22/golang-1.22/test/codegen/mathbits.go:467)	MOVQ	(AX), DX
	0x0003 00003 (/home/xzl/work/golang-1.22/golang-1.22/test/codegen/mathbits.go:467)	MOVQ	(BX), SI
	0x0006 00006 (/home/xzl/work/golang-1.22/golang-1.22/test/codegen/mathbits.go:467)	ADDQ	DX, SI
	0x0009 00009 (/home/xzl/work/golang-1.22/golang-1.22/test/codegen/mathbits.go:467)	MOVQ	SI, (CX)
	0x000c 00012 (/home/xzl/work/golang-1.22/golang-1.22/test/codegen/mathbits.go:471)	MOVQ	8(AX), DX
	0x0010 00016 (/home/xzl/work/golang-1.22/golang-1.22/test/codegen/mathbits.go:471)	MOVQ	8(BX), SI
	0x0014 00020 (/home/xzl/work/golang-1.22/golang-1.22/test/codegen/mathbits.go:471)	ADCQ	DX, SI
	0x0017 00023 (/home/xzl/work/golang-1.22/golang-1.22/test/codegen/mathbits.go:471)	MOVQ	SI, 8(CX)
	0x001b 00027 (/home/xzl/work/golang-1.22/golang-1.22/test/codegen/mathbits.go:472)	MOVQ	16(AX), AX
	0x001f 00031 (/home/xzl/work/golang-1.22/golang-1.22/test/codegen/mathbits.go:472)	MOVQ	16(BX), DX
	0x0023 00035 (/home/xzl/work/golang-1.22/golang-1.22/test/codegen/mathbits.go:472)	ADCQ	DX, AX
	0x0026 00038 (/home/xzl/work/golang-1.22/golang-1.22/test/codegen/mathbits.go:472)	MOVQ	AX, 16(CX)
	0x002a 00042 (/home/xzl/work/golang-1.22/golang-1.22/test/codegen/mathbits.go:473)	RET
	0x0000 48 8b 10 48 8b 33 48 01 d6 48 89 31 48 8b 50 08  H..H.3H..H.1H.P.
	0x0010 48 8b 73 08 48 11 d6 48 89 71 08 48 8b 40 10 48  H.s.H..H.q.H.@.H
	0x0020 8b 53 10 48 11 d0 48 89 41 10 c3                 .S.H..H.A..
command-line-arguments.Add64<1> STEXT nosplit size=12 args=0x18 locals=0x0 funcid=0x0 align=0x0
	0x0000 00000 (/home/xzl/work/golang-1.22/golang-1.22/test/codegen/mathbits.go:475)	TEXT	command-line-arguments.Add64(SB), NOSPLIT|NOFRAME|ABIInternal, $0-24
	0x0000 00000 (/home/xzl/work/golang-1.22/golang-1.22/test/codegen/mathbits.go:475)	FUNCDATA	$0, gclocals·g2BeySu+wFnoycgXfElmcg==(SB)
	0x0000 00000 (/home/xzl/work/golang-1.22/golang-1.22/test/codegen/mathbits.go:475)	FUNCDATA	$1, gclocals·g2BeySu+wFnoycgXfElmcg==(SB)
	0x0000 00000 (/home/xzl/work/golang-1.22/golang-1.22/test/codegen/mathbits.go:475)	FUNCDATA	$5, command-line-arguments.Add64.arginfo1(SB)
	0x0000 00000 (/home/xzl/work/golang-1.22/golang-1.22/test/codegen/mathbits.go:475)	FUNCDATA	$6, command-line-arguments.Add64.argliveinfo(SB)
	0x0000 00000 (/home/xzl/work/golang-1.22/golang-1.22/test/codegen/mathbits.go:475)	PCDATA	$3, $1
	0x0000 00000 (/home/xzl/work/golang-1.22/golang-1.22/test/codegen/mathbits.go:483)	NEGL	CX
	0x0002 00002 (/home/xzl/work/golang-1.22/golang-1.22/test/codegen/mathbits.go:483)	ADCQ	BX, AX
	0x0005 00005 (/home/xzl/work/golang-1.22/golang-1.22/test/codegen/mathbits.go:483)	SBBQ	BX, BX
	0x0008 00008 (/home/xzl/work/golang-1.22/golang-1.22/test/codegen/mathbits.go:483)	NEGQ	BX
	0x000b 00011 (/home/xzl/work/golang-1.22/golang-1.22/test/codegen/mathbits.go:483)	RET
	0x0000 f7 d9 48 11 d8 48 19 db 48 f7 db c3              ..H..H..H...
command-line-arguments.Add64C<1> STEXT nosplit size=13 args=0x10 locals=0x0 funcid=0x0 align=0x0
	0x0000 00000 (/home/xzl/work/golang-1.22/golang-1.22/test/codegen/mathbits.go:486)	TEXT	command-line-arguments.Add64C(SB), NOSPLIT|NOFRAME|ABIInternal, $0-16
	0x0000 00000 (/home/xzl/work/golang-1.22/golang-1.22/test/codegen/mathbits.go:486)	FUNCDATA	$0, gclocals·g2BeySu+wFnoycgXfElmcg==(SB)
	0x0000 00000 (/home/xzl/work/golang-1.22/golang-1.22/test/codegen/mathbits.go:486)	FUNCDATA	$1, gclocals·g2BeySu+wFnoycgXfElmcg==(SB)
	0x0000 00000 (/home/xzl/work/golang-1.22/golang-1.22/test/codegen/mathbits.go:486)	FUNCDATA	$5, command-line-arguments.Add64C.arginfo1(SB)
	0x0000 00000 (/home/xzl/work/golang-1.22/golang-1.22/test/codegen/mathbits.go:486)	FUNCDATA	$6, command-line-arguments.Add64C.argliveinfo(SB)
	0x0000 00000 (/home/xzl/work/golang-1.22/golang-1.22/test/codegen/mathbits.go:486)	PCDATA	$3, $1
	0x0000 00000 (/home/xzl/work/golang-1.22/golang-1.22/test/codegen/mathbits.go:494)	NEGL	BX
	0x0002 00002 (/home/xzl/work/golang-1.22/golang-1.22/test/codegen/mathbits.go:494)	ADCQ	$7, AX
	0x0006 00006 (/home/xzl/work/golang-1.22/golang-1.22/test/codegen/mathbits.go:494)	SBBQ	BX, BX
	0x0009 00009 (/home/xzl/work/golang-1.22/golang-1.22/test/codegen/mathbits.go:494)	NEGQ	BX
	0x000c 00012 (/home/xzl/work/golang-1.22/golang-1.22/test/codegen/mathbits.go:494)	RET
	0x0000 f7 db 48 83 d0 07 48 19 db 48 f7 db c3           ..H...H..H...
command-line-arguments.Add64Z<1> STEXT nosplit size=10 args=0x10 locals=0x0 funcid=0x0 align=0x0
	0x0000 00000 (/home/xzl/work/golang-1.22/golang-1.22/test/codegen/mathbits.go:497)	TEXT	command-line-arguments.Add64Z(SB), NOSPLIT|NOFRAME|ABIInternal, $0-16
	0x0000 00000 (/home/xzl/work/golang-1.22/golang-1.22/test/codegen/mathbits.go:497)	FUNCDATA	$0, gclocals·g2BeySu+wFnoycgXfElmcg==(SB)
	0x0000 00000 (/home/xzl/work/golang-1.22/golang-1.22/test/codegen/mathbits.go:497)	FUNCDATA	$1, gclocals·g2BeySu+wFnoycgXfElmcg==(SB)
	0x0000 00000 (/home/xzl/work/golang-1.22/golang-1.22/test/codegen/mathbits.go:497)	FUNCDATA	$5, command-line-arguments.Add64Z.arginfo1(SB)
	0x0000 00000 (/home/xzl/work/golang-1.22/golang-1.22/test/codegen/mathbits.go:497)	FUNCDATA	$6, command-line-arguments.Add64Z.argliveinfo(SB)
	0x0000 00000 (/home/xzl/work/golang-1.22/golang-1.22/test/codegen/mathbits.go:497)	PCDATA	$3, $1
	0x0000 00000 (/home/xzl/work/golang-1.22/golang-1.22/test/codegen/mathbits.go:505)	ADDQ	BX, AX
	0x0003 00003 (/home/xzl/work/golang-1.22/golang-1.22/test/codegen/mathbits.go:505)	SBBQ	BX, BX
	0x0006 00006 (/home/xzl/work/golang-1.22/golang-1.22/test/codegen/mathbits.go:505)	NEGQ	BX
	0x0009 00009 (/home/xzl/work/golang-1.22/golang-1.22/test/codegen/mathbits.go:505)	RET
	0x0000 48 01 d8 48 19 db 48 f7 db c3                    H..H..H...
command-line-arguments.Add64R<1> STEXT nosplit size=6 args=0x18 locals=0x0 funcid=0x0 align=0x0
	0x0000 00000 (/home/xzl/work/golang-1.22/golang-1.22/test/codegen/mathbits.go:508)	TEXT	command-line-arguments.Add64R(SB), NOSPLIT|NOFRAME|ABIInternal, $0-24
	0x0000 00000 (/home/xzl/work/golang-1.22/golang-1.22/test/codegen/mathbits.go:508)	FUNCDATA	$0, gclocals·g2BeySu+wFnoycgXfElmcg==(SB)
	0x0000 00000 (/home/xzl/work/golang-1.22/golang-1.22/test/codegen/mathbits.go:508)	FUNCDATA	$1, gclocals·g2BeySu+wFnoycgXfElmcg==(SB)
	0x0000 00000 (/home/xzl/work/golang-1.22/golang-1.22/test/codegen/mathbits.go:508)	FUNCDATA	$5, command-line-arguments.Add64R.arginfo1(SB)
	0x0000 00000 (/home/xzl/work/golang-1.22/golang-1.22/test/codegen/mathbits.go:508)	FUNCDATA	$6, command-line-arguments.Add64R.argliveinfo(SB)
	0x0000 00000 (/home/xzl/work/golang-1.22/golang-1.22/test/codegen/mathbits.go:508)	PCDATA	$3, $1
	0x0000 00000 (/home/xzl/work/golang-1.22/golang-1.22/test/codegen/mathbits.go:516)	NEGL	CX
	0x0002 00002 (/home/xzl/work/golang-1.22/golang-1.22/test/codegen/mathbits.go:516)	ADCQ	BX, AX
	0x0005 00005 (/home/xzl/work/golang-1.22/golang-1.22/test/codegen/mathbits.go:517)	RET
	0x0000 f7 d9 48 11 d8 c3                                ..H...
command-line-arguments.Add64M<1> STEXT nosplit size=43 args=0x18 locals=0x0 funcid=0x0 align=0x0
	0x0000 00000 (/home/xzl/work/golang-1.22/golang-1.22/test/codegen/mathbits.go:519)	TEXT	command-line-arguments.Add64M(SB), NOSPLIT|NOFRAME|ABIInternal, $0-24
	0x0000 00000 (/home/xzl/work/golang-1.22/golang-1.22/test/codegen/mathbits.go:519)	FUNCDATA	$0, gclocals·LlfHo70um+DIUn9rjx/QUA==(SB)
	0x0000 00000 (/home/xzl/work/golang-1.22/golang-1.22/test/codegen/mathbits.go:519)	FUNCDATA	$1, gclocals·J5F+7Qw7O7ve2QcWC7DpeQ==(SB)
	0x0000 00000 (/home/xzl/work/golang-1.22/golang-1.22/test/codegen/mathbits.go:519)	FUNCDATA	$5, command-line-arguments.Add64M.arginfo1(SB)
	0x0000 00000 (/home/xzl/work/golang-1.22/golang-1.22/test/codegen/mathbits.go:519)	FUNCDATA	$6, command-line-arguments.Add64M.argliveinfo(SB)
	0x0000 00000 (/home/xzl/work/golang-1.22/golang-1.22/test/codegen/mathbits.go:519)	PCDATA	$3, $1
	0x0000 00000 (/home/xzl/work/golang-1.22/golang-1.22/test/codegen/mathbits.go:521)	MOVQ	(AX), DX
	0x0003 00003 (/home/xzl/work/golang-1.22/golang-1.22/test/codegen/mathbits.go:521)	MOVQ	(BX), SI
	0x0006 00006 (/home/xzl/work/golang-1.22/golang-1.22/test/codegen/mathbits.go:521)	ADDQ	DX, SI
	0x0009 00009 (/home/xzl/work/golang-1.22/golang-1.22/test/codegen/mathbits.go:521)	MOVQ	SI, (CX)
	0x000c 00012 (/home/xzl/work/golang-1.22/golang-1.22/test/codegen/mathbits.go:526)	MOVQ	8(AX), DX
	0x0010 00016 (/home/xzl/work/golang-1.22/golang-1.22/test/codegen/mathbits.go:526)	MOVQ	8(BX), SI
	0x0014 00020 (/home/xzl/work/golang-1.22/golang-1.22/test/codegen/mathbits.go:526)	ADCQ	DX, SI
	0x0017 00023 (/home/xzl/work/golang-1.22/golang-1.22/test/codegen/mathbits.go:526)	MOVQ	SI, 8(CX)
	0x001b 00027 (/home/xzl/work/golang-1.22/golang-1.22/test/codegen/mathbits.go:527)	MOVQ	16(AX), AX
	0x001f 00031 (/home/xzl/work/golang-1.22/golang-1.22/test/codegen/mathbits.go:527)	MOVQ	16(BX), DX
	0x0023 00035 (/home/xzl/work/golang-1.22/golang-1.22/test/codegen/mathbits.go:527)	ADCQ	DX, AX
	0x0026 00038 (/home/xzl/work/golang-1.22/golang-1.22/test/codegen/mathbits.go:527)	MOVQ	AX, 16(CX)
	0x002a 00042 (/home/xzl/work/golang-1.22/golang-1.22/test/codegen/mathbits.go:528)	RET
	0x0000 48 8b 10 48 8b 33 48 01 d6 48 89 31 48 8b 50 08  H..H.3H..H.1H.P.
	0x0010 48 8b 73 08 48 11 d6 48 89 71 08 48 8b 40 10 48  H.s.H..H.q.H.@.H
	0x0020 8b 53 10 48 11 d0 48 89 41 10 c3                 .S.H..H.A..
command-line-arguments.Add64MSaveC<1> STEXT nosplit size=53 args=0x20 locals=0x0 funcid=0x0 align=0x0
	0x0000 00000 (/home/xzl/work/golang-1.22/golang-1.22/test/codegen/mathbits.go:530)	TEXT	command-line-arguments.Add64MSaveC(SB), NOSPLIT|NOFRAME|ABIInternal, $0-32
	0x0000 00000 (/home/xzl/work/golang-1.22/golang-1.22/test/codegen/mathbits.go:530)	FUNCDATA	$0, gclocals·br8UsANEGWp75kzr7DNKRQ==(SB)
	0x0000 00000 (/home/xzl/work/golang-1.22/golang-1.22/test/codegen/mathbits.go:530)	FUNCDATA	$1, gclocals·J5F+7Qw7O7ve2QcWC7DpeQ==(SB)
	0x0000 00000 (/home/xzl/work/golang-1.22/golang-1.22/test/codegen/mathbits.go:530)	FUNCDATA	$5, command-line-arguments.Add64MSaveC.arginfo1(SB)
	0x0000 00000 (/home/xzl/work/golang-1.22/golang-1.22/test/codegen/mathbits.go:530)	FUNCDATA	$6, command-line-arguments.Add64MSaveC.argliveinfo(SB)
	0x0000 00000 (/home/xzl/work/golang-1.22/golang-1.22/test/codegen/mathbits.go:530)	PCDATA	$3, $1
	0x0000 00000 (/home/xzl/work/golang-1.22/golang-1.22/test/codegen/mathbits.go:532)	MOVQ	(AX), DX
	0x0003 00003 (/home/xzl/work/golang-1.22/golang-1.22/test/codegen/mathbits.go:532)	MOVQ	(BX), SI
	0x0006 00006 (/home/xzl/work/golang-1.22/golang-1.22/test/codegen/mathbits.go:532)	MOVQ	SI, R8
	0x0009 00009 (/home/xzl/work/golang-1.22/golang-1.22/test/codegen/mathbits.go:532)	ADDQ	DX, SI
	0x000c 00012 (/home/xzl/work/golang-1.22/golang-1.22/test/codegen/mathbits.go:532)	MOVQ	SI, (CX)
	0x000f 00015 (/home/xzl/work/golang-1.22/golang-1.22/test/codegen/mathbits.go:532)	SBBQ	SI, SI
	0x0012 00018 (/home/xzl/work/golang-1.22/golang-1.22/test/codegen/mathbits.go:532)	NEGQ	SI
	0x0015 00021 (/home/xzl/work/golang-1.22/golang-1.22/test/codegen/mathbits.go:532)	MOVQ	SI, (DI)
	0x0018 00024 (/home/xzl/work/golang-1.22/golang-1.22/test/codegen/mathbits.go:534)	MOVQ	8(AX), AX
	0x001c 00028 (/home/xzl/work/golang-1.22/golang-1.22/test/codegen/mathbits.go:534)	MOVQ	8(BX), BX
	0x0020 00032 (/home/xzl/work/golang-1.22/golang-1.22/test/codegen/mathbits.go:532)	ADDQ	DX, R8
	0x0023 00035 (/home/xzl/work/golang-1.22/golang-1.22/test/codegen/mathbits.go:534)	ADCQ	AX, BX
	0x0026 00038 (/home/xzl/work/golang-1.22/golang-1.22/test/codegen/mathbits.go:534)	MOVQ	BX, 8(CX)
	0x002a 00042 (/home/xzl/work/golang-1.22/golang-1.22/test/codegen/mathbits.go:534)	SBBQ	AX, AX
	0x002d 00045 (/home/xzl/work/golang-1.22/golang-1.22/test/codegen/mathbits.go:534)	NEGQ	AX
	0x0030 00048 (/home/xzl/work/golang-1.22/golang-1.22/test/codegen/mathbits.go:534)	MOVQ	AX, 8(DI)
	0x0034 00052 (/home/xzl/work/golang-1.22/golang-1.22/test/codegen/mathbits.go:535)	RET
	0x0000 48 8b 10 48 8b 33 49 89 f0 48 01 d6 48 89 31 48  H..H.3I..H..H.1H
	0x0010 19 f6 48 f7 de 48 89 37 48 8b 40 08 48 8b 5b 08  ..H..H.7H.@.H.[.
	0x0020 49 01 d0 48 11 c3 48 89 59 08 48 19 c0 48 f7 d8  I..H..H.Y.H..H..
	0x0030 48 89 47 08 c3                                   H.G..
command-line-arguments.Add64PanicOnOverflowEQ<1> STEXT size=82 args=0x10 locals=0x18 funcid=0x0 align=0x0
	0x0000 00000 (/home/xzl/work/golang-1.22/golang-1.22/test/codegen/mathbits.go:537)	TEXT	command-line-arguments.Add64PanicOnOverflowEQ(SB), ABIInternal, $24-16
	0x0000 00000 (/home/xzl/work/golang-1.22/golang-1.22/test/codegen/mathbits.go:537)	CMPQ	SP, 16(R14)
	0x0004 00004 (/home/xzl/work/golang-1.22/golang-1.22/test/codegen/mathbits.go:537)	PCDATA	$0, $-2
	0x0004 00004 (/home/xzl/work/golang-1.22/golang-1.22/test/codegen/mathbits.go:537)	JLS	55
	0x0006 00006 (/home/xzl/work/golang-1.22/golang-1.22/test/codegen/mathbits.go:537)	PCDATA	$0, $-1
	0x0006 00006 (/home/xzl/work/golang-1.22/golang-1.22/test/codegen/mathbits.go:537)	PUSHQ	BP
	0x0007 00007 (/home/xzl/work/golang-1.22/golang-1.22/test/codegen/mathbits.go:537)	MOVQ	SP, BP
	0x000a 00010 (/home/xzl/work/golang-1.22/golang-1.22/test/codegen/mathbits.go:537)	SUBQ	$16, SP
	0x000e 00014 (/home/xzl/work/golang-1.22/golang-1.22/test/codegen/mathbits.go:537)	FUNCDATA	$0, gclocals·g2BeySu+wFnoycgXfElmcg==(SB)
	0x000e 00014 (/home/xzl/work/golang-1.22/golang-1.22/test/codegen/mathbits.go:537)	FUNCDATA	$1, gclocals·g2BeySu+wFnoycgXfElmcg==(SB)
	0x000e 00014 (/home/xzl/work/golang-1.22/golang-1.22/test/codegen/mathbits.go:537)	FUNCDATA	$5, command-line-arguments.Add64PanicOnOverflowEQ.arginfo1(SB)
	0x000e 00014 (/home/xzl/work/golang-1.22/golang-1.22/test/codegen/mathbits.go:537)	FUNCDATA	$6, command-line-arguments.Add64PanicOnOverflowEQ.argliveinfo(SB)
	0x000e 00014 (/home/xzl/work/golang-1.22/golang-1.22/test/codegen/mathbits.go:537)	PCDATA	$3, $1
	0x000e 00014 (/home/xzl/work/golang-1.22/golang-1.22/test/codegen/mathbits.go:538)	ADDQ	BX, AX
	0x0011 00017 (/home/xzl/work/golang-1.22/golang-1.22/test/codegen/mathbits.go:538)	SBBQ	CX, CX
	0x0014 00020 (/home/xzl/work/golang-1.22/golang-1.22/test/codegen/mathbits.go:538)	NEGQ	CX
	0x0017 00023 (/home/xzl/work/golang-1.22/golang-1.22/test/codegen/mathbits.go:540)	CMPQ	CX, $1
	0x001b 00027 (/home/xzl/work/golang-1.22/golang-1.22/test/codegen/mathbits.go:540)	JEQ	35
	0x001d 00029 (/home/xzl/work/golang-1.22/golang-1.22/test/codegen/mathbits.go:543)	ADDQ	$16, SP
	0x0021 00033 (/home/xzl/work/golang-1.22/golang-1.22/test/codegen/mathbits.go:543)	POPQ	BP
	0x0022 00034 (/home/xzl/work/golang-1.22/golang-1.22/test/codegen/mathbits.go:543)	RET
	0x0023 00035 (/home/xzl/work/golang-1.22/golang-1.22/test/codegen/mathbits.go:541)	LEAQ	type:string(SB), AX
	0x002a 00042 (/home/xzl/work/golang-1.22/golang-1.22/test/codegen/mathbits.go:541)	LEAQ	command-line-arguments..stmp_0(SB), BX
	0x0031 00049 (/home/xzl/work/golang-1.22/golang-1.22/test/codegen/mathbits.go:541)	PCDATA	$1, $0
	0x0031 00049 (/home/xzl/work/golang-1.22/golang-1.22/test/codegen/mathbits.go:541)	CALL	runtime.gopanic(SB)
	0x0036 00054 (/home/xzl/work/golang-1.22/golang-1.22/test/codegen/mathbits.go:541)	XCHGL	AX, AX
	0x0037 00055 (/home/xzl/work/golang-1.22/golang-1.22/test/codegen/mathbits.go:541)	NOP
	0x0037 00055 (/home/xzl/work/golang-1.22/golang-1.22/test/codegen/mathbits.go:537)	PCDATA	$1, $-1
	0x0037 00055 (/home/xzl/work/golang-1.22/golang-1.22/test/codegen/mathbits.go:537)	PCDATA	$0, $-2
	0x0037 00055 (/home/xzl/work/golang-1.22/golang-1.22/test/codegen/mathbits.go:537)	MOVQ	AX, 8(SP)
	0x003c 00060 (/home/xzl/work/golang-1.22/golang-1.22/test/codegen/mathbits.go:537)	MOVQ	BX, 16(SP)
	0x0041 00065 (/home/xzl/work/golang-1.22/golang-1.22/test/codegen/mathbits.go:537)	CALL	runtime.morestack_noctxt(SB)
	0x0046 00070 (/home/xzl/work/golang-1.22/golang-1.22/test/codegen/mathbits.go:537)	PCDATA	$0, $-1
	0x0046 00070 (/home/xzl/work/golang-1.22/golang-1.22/test/codegen/mathbits.go:537)	MOVQ	8(SP), AX
	0x004b 00075 (/home/xzl/work/golang-1.22/golang-1.22/test/codegen/mathbits.go:537)	MOVQ	16(SP), BX
	0x0050 00080 (/home/xzl/work/golang-1.22/golang-1.22/test/codegen/mathbits.go:537)	JMP	0
	0x0000 49 3b 66 10 76 31 55 48 89 e5 48 83 ec 10 48 01  I;f.v1UH..H...H.
	0x0010 d8 48 19 c9 48 f7 d9 48 83 f9 01 74 06 48 83 c4  .H..H..H...t.H..
	0x0020 10 5d c3 48 8d 05 00 00 00 00 48 8d 1d 00 00 00  .].H......H.....
	0x0030 00 e8 00 00 00 00 90 48 89 44 24 08 48 89 5c 24  .......H.D$.H.\$
	0x0040 10 e8 00 00 00 00 48 8b 44 24 08 48 8b 5c 24 10  ......H.D$.H.\$.
	0x0050 eb ae                                            ..
	rel 2+0 t=R_USEIFACE type:string<0>+0
	rel 38+4 t=R_PCREL type:string<0>+0
	rel 45+4 t=R_PCREL command-line-arguments..stmp_0<0>+0
	rel 50+4 t=R_CALL runtime.gopanic<1>+0
	rel 66+4 t=R_CALL runtime.morestack_noctxt<0>+0
command-line-arguments.Add64PanicOnOverflowNE<1> STEXT size=81 args=0x10 locals=0x18 funcid=0x0 align=0x0
	0x0000 00000 (/home/xzl/work/golang-1.22/golang-1.22/test/codegen/mathbits.go:546)	TEXT	command-line-arguments.Add64PanicOnOverflowNE(SB), ABIInternal, $24-16
	0x0000 00000 (/home/xzl/work/golang-1.22/golang-1.22/test/codegen/mathbits.go:546)	CMPQ	SP, 16(R14)
	0x0004 00004 (/home/xzl/work/golang-1.22/golang-1.22/test/codegen/mathbits.go:546)	PCDATA	$0, $-2
	0x0004 00004 (/home/xzl/work/golang-1.22/golang-1.22/test/codegen/mathbits.go:546)	JLS	54
	0x0006 00006 (/home/xzl/work/golang-1.22/golang-1.22/test/codegen/mathbits.go:546)	PCDATA	$0, $-1
	0x0006 00006 (/home/xzl/work/golang-1.22/golang-1.22/test/codegen/mathbits.go:546)	PUSHQ	BP
	0x0007 00007 (/home/xzl/work/golang-1.22/golang-1.22/test/codegen/mathbits.go:546)	MOVQ	SP, BP
	0x000a 00010 (/home/xzl/work/golang-1.22/golang-1.22/test/codegen/mathbits.go:546)	SUBQ	$16, SP
	0x000e 00014 (/home/xzl/work/golang-1.22/golang-1.22/test/codegen/mathbits.go:546)	FUNCDATA	$0, gclocals·g2BeySu+wFnoycgXfElmcg==(SB)
	0x000e 00014 (/home/xzl/work/golang-1.22/golang-1.22/test/codegen/mathbits.go:546)	FUNCDATA	$1, gclocals·g2BeySu+wFnoycgXfElmcg==(SB)
	0x000e 00014 (/home/xzl/work/golang-1.22/golang-1.22/test/codegen/mathbits.go:546)	FUNCDATA	$5, command-line-arguments.Add64PanicOnOverflowNE.arginfo1(SB)
	0x000e 00014 (/home/xzl/work/golang-1.22/golang-1.22/test/codegen/mathbits.go:546)	FUNCDATA	$6, command-line-arguments.Add64PanicOnOverflowNE.argliveinfo(SB)
	0x000e 00014 (/home/xzl/work/golang-1.22/golang-1.22/test/codegen/mathbits.go:546)	PCDATA	$3, $1
	0x000e 00014 (/home/xzl/work/golang-1.22/golang-1.22/test/codegen/mathbits.go:547)	ADDQ	BX, AX
	0x0011 00017 (/home/xzl/work/golang-1.22/golang-1.22/test/codegen/mathbits.go:547)	SBBQ	CX, CX
	0x0014 00020 (/home/xzl/work/golang-1.22/golang-1.22/test/codegen/mathbits.go:547)	NEGQ	CX
	0x0017 00023 (/home/xzl/work/golang-1.22/golang-1.22/test/codegen/mathbits.go:549)	TESTQ	CX, CX
	0x001a 00026 (/home/xzl/work/golang-1.22/golang-1.22/test/codegen/mathbits.go:549)	JNE	34
	0x001c 00028 (/home/xzl/work/golang-1.22/golang-1.22/test/codegen/mathbits.go:552)	ADDQ	$16, SP
	0x0020 00032 (/home/xzl/work/golang-1.22/golang-1.22/test/codegen/mathbits.go:552)	POPQ	BP
	0x0021 00033 (/home/xzl/work/golang-1.22/golang-1.22/test/codegen/mathbits.go:552)	RET
	0x0022 00034 (/home/xzl/work/golang-1.22/golang-1.22/test/codegen/mathbits.go:550)	LEAQ	type:string(SB), AX
	0x0029 00041 (/home/xzl/work/golang-1.22/golang-1.22/test/codegen/mathbits.go:550)	LEAQ	command-line-arguments..stmp_1(SB), BX
	0x0030 00048 (/home/xzl/work/golang-1.22/golang-1.22/test/codegen/mathbits.go:550)	PCDATA	$1, $0
	0x0030 00048 (/home/xzl/work/golang-1.22/golang-1.22/test/codegen/mathbits.go:550)	CALL	runtime.gopanic(SB)
	0x0035 00053 (/home/xzl/work/golang-1.22/golang-1.22/test/codegen/mathbits.go:550)	XCHGL	AX, AX
	0x0036 00054 (/home/xzl/work/golang-1.22/golang-1.22/test/codegen/mathbits.go:550)	NOP
	0x0036 00054 (/home/xzl/work/golang-1.22/golang-1.22/test/codegen/mathbits.go:546)	PCDATA	$1, $-1
	0x0036 00054 (/home/xzl/work/golang-1.22/golang-1.22/test/codegen/mathbits.go:546)	PCDATA	$0, $-2
	0x0036 00054 (/home/xzl/work/golang-1.22/golang-1.22/test/codegen/mathbits.go:546)	MOVQ	AX, 8(SP)
	0x003b 00059 (/home/xzl/work/golang-1.22/golang-1.22/test/codegen/mathbits.go:546)	MOVQ	BX, 16(SP)
	0x0040 00064 (/home/xzl/work/golang-1.22/golang-1.22/test/codegen/mathbits.go:546)	CALL	runtime.morestack_noctxt(SB)
	0x0045 00069 (/home/xzl/work/golang-1.22/golang-1.22/test/codegen/mathbits.go:546)	PCDATA	$0, $-1
	0x0045 00069 (/home/xzl/work/golang-1.22/golang-1.22/test/codegen/mathbits.go:546)	MOVQ	8(SP), AX
	0x004a 00074 (/home/xzl/work/golang-1.22/golang-1.22/test/codegen/mathbits.go:546)	MOVQ	16(SP), BX
	0x004f 00079 (/home/xzl/work/golang-1.22/golang-1.22/test/codegen/mathbits.go:546)	JMP	0
	0x0000 49 3b 66 10 76 30 55 48 89 e5 48 83 ec 10 48 01  I;f.v0UH..H...H.
	0x0010 d8 48 19 c9 48 f7 d9 48 85 c9 75 06 48 83 c4 10  .H..H..H..u.H...
	0x0020 5d c3 48 8d 05 00 00 00 00 48 8d 1d 00 00 00 00  ].H......H......
	0x0030 e8 00 00 00 00 90 48 89 44 24 08 48 89 5c 24 10  ......H.D$.H.\$.
	0x0040 e8 00 00 00 00 48 8b 44 24 08 48 8b 5c 24 10 eb  .....H.D$.H.\$..
	0x0050 af                                               .
	rel 2+0 t=R_USEIFACE type:string<0>+0
	rel 37+4 t=R_PCREL type:string<0>+0
	rel 44+4 t=R_PCREL command-line-arguments..stmp_1<0>+0
	rel 49+4 t=R_CALL runtime.gopanic<1>+0
	rel 65+4 t=R_CALL runtime.morestack_noctxt<0>+0
command-line-arguments.Add64PanicOnOverflowGT<1> STEXT size=81 args=0x10 locals=0x18 funcid=0x0 align=0x0
	0x0000 00000 (/home/xzl/work/golang-1.22/golang-1.22/test/codegen/mathbits.go:555)	TEXT	command-line-arguments.Add64PanicOnOverflowGT(SB), ABIInternal, $24-16
	0x0000 00000 (/home/xzl/work/golang-1.22/golang-1.22/test/codegen/mathbits.go:555)	CMPQ	SP, 16(R14)
	0x0004 00004 (/home/xzl/work/golang-1.22/golang-1.22/test/codegen/mathbits.go:555)	PCDATA	$0, $-2
	0x0004 00004 (/home/xzl/work/golang-1.22/golang-1.22/test/codegen/mathbits.go:555)	JLS	54
	0x0006 00006 (/home/xzl/work/golang-1.22/golang-1.22/test/codegen/mathbits.go:555)	PCDATA	$0, $-1
	0x0006 00006 (/home/xzl/work/golang-1.22/golang-1.22/test/codegen/mathbits.go:555)	PUSHQ	BP
	0x0007 00007 (/home/xzl/work/golang-1.22/golang-1.22/test/codegen/mathbits.go:555)	MOVQ	SP, BP
	0x000a 00010 (/home/xzl/work/golang-1.22/golang-1.22/test/codegen/mathbits.go:555)	SUBQ	$16, SP
	0x000e 00014 (/home/xzl/work/golang-1.22/golang-1.22/test/codegen/mathbits.go:555)	FUNCDATA	$0, gclocals·g2BeySu+wFnoycgXfElmcg==(SB)
	0x000e 00014 (/home/xzl/work/golang-1.22/golang-1.22/test/codegen/mathbits.go:555)	FUNCDATA	$1, gclocals·g2BeySu+wFnoycgXfElmcg==(SB)
	0x000e 00014 (/home/xzl/work/golang-1.22/golang-1.22/test/codegen/mathbits.go:555)	FUNCDATA	$5, command-line-arguments.Add64PanicOnOverflowGT.arginfo1(SB)
	0x000e 00014 (/home/xzl/work/golang-1.22/golang-1.22/test/codegen/mathbits.go:555)	FUNCDATA	$6, command-line-arguments.Add64PanicOnOverflowGT.argliveinfo(SB)
	0x000e 00014 (/home/xzl/work/golang-1.22/golang-1.22/test/codegen/mathbits.go:555)	PCDATA	$3, $1
	0x000e 00014 (/home/xzl/work/golang-1.22/golang-1.22/test/codegen/mathbits.go:556)	ADDQ	BX, AX
	0x0011 00017 (/home/xzl/work/golang-1.22/golang-1.22/test/codegen/mathbits.go:556)	SBBQ	CX, CX
	0x0014 00020 (/home/xzl/work/golang-1.22/golang-1.22/test/codegen/mathbits.go:556)	NEGQ	CX
	0x0017 00023 (/home/xzl/work/golang-1.22/golang-1.22/test/codegen/mathbits.go:558)	TESTQ	CX, CX
	0x001a 00026 (/home/xzl/work/golang-1.22/golang-1.22/test/codegen/mathbits.go:558)	JHI	34
	0x001c 00028 (/home/xzl/work/golang-1.22/golang-1.22/test/codegen/mathbits.go:561)	ADDQ	$16, SP
	0x0020 00032 (/home/xzl/work/golang-1.22/golang-1.22/test/codegen/mathbits.go:561)	POPQ	BP
	0x0021 00033 (/home/xzl/work/golang-1.22/golang-1.22/test/codegen/mathbits.go:561)	RET
	0x0022 00034 (/home/xzl/work/golang-1.22/golang-1.22/test/codegen/mathbits.go:559)	LEAQ	type:string(SB), AX
	0x0029 00041 (/home/xzl/work/golang-1.22/golang-1.22/test/codegen/mathbits.go:559)	LEAQ	command-line-arguments..stmp_2(SB), BX
	0x0030 00048 (/home/xzl/work/golang-1.22/golang-1.22/test/codegen/mathbits.go:559)	PCDATA	$1, $0
	0x0030 00048 (/home/xzl/work/golang-1.22/golang-1.22/test/codegen/mathbits.go:559)	CALL	runtime.gopanic(SB)
	0x0035 00053 (/home/xzl/work/golang-1.22/golang-1.22/test/codegen/mathbits.go:559)	XCHGL	AX, AX
	0x0036 00054 (/home/xzl/work/golang-1.22/golang-1.22/test/codegen/mathbits.go:559)	NOP
	0x0036 00054 (/home/xzl/work/golang-1.22/golang-1.22/test/codegen/mathbits.go:555)	PCDATA	$1, $-1
	0x0036 00054 (/home/xzl/work/golang-1.22/golang-1.22/test/codegen/mathbits.go:555)	PCDATA	$0, $-2
	0x0036 00054 (/home/xzl/work/golang-1.22/golang-1.22/test/codegen/mathbits.go:555)	MOVQ	AX, 8(SP)
	0x003b 00059 (/home/xzl/work/golang-1.22/golang-1.22/test/codegen/mathbits.go:555)	MOVQ	BX, 16(SP)
	0x0040 00064 (/home/xzl/work/golang-1.22/golang-1.22/test/codegen/mathbits.go:555)	CALL	runtime.morestack_noctxt(SB)
	0x0045 00069 (/home/xzl/work/golang-1.22/golang-1.22/test/codegen/mathbits.go:555)	PCDATA	$0, $-1
	0x0045 00069 (/home/xzl/work/golang-1.22/golang-1.22/test/codegen/mathbits.go:555)	MOVQ	8(SP), AX
	0x004a 00074 (/home/xzl/work/golang-1.22/golang-1.22/test/codegen/mathbits.go:555)	MOVQ	16(SP), BX
	0x004f 00079 (/home/xzl/work/golang-1.22/golang-1.22/test/codegen/mathbits.go:555)	JMP	0
	0x0000 49 3b 66 10 76 30 55 48 89 e5 48 83 ec 10 48 01  I;f.v0UH..H...H.
	0x0010 d8 48 19 c9 48 f7 d9 48 85 c9 77 06 48 83 c4 10  .H..H..H..w.H...
	0x0020 5d c3 48 8d 05 00 00 00 00 48 8d 1d 00 00 00 00  ].H......H......
	0x0030 e8 00 00 00 00 90 48 89 44 24 08 48 89 5c 24 10  ......H.D$.H.\$.
	0x0040 e8 00 00 00 00 48 8b 44 24 08 48 8b 5c 24 10 eb  .....H.D$.H.\$..
	0x0050 af                                               .
	rel 2+0 t=R_USEIFACE type:string<0>+0
	rel 37+4 t=R_PCREL type:string<0>+0
	rel 44+4 t=R_PCREL command-line-arguments..stmp_2<0>+0
	rel 49+4 t=R_CALL runtime.gopanic<1>+0
	rel 65+4 t=R_CALL runtime.morestack_noctxt<0>+0
command-line-arguments.Add64MPanicOnOverflowEQ<1> STEXT size=103 args=0x30 locals=0x18 funcid=0x0 align=0x0
	0x0000 00000 (/home/xzl/work/golang-1.22/golang-1.22/test/codegen/mathbits.go:564)	TEXT	command-line-arguments.Add64MPanicOnOverflowEQ(SB), ABIInternal, $24-48
	0x0000 00000 (/home/xzl/work/golang-1.22/golang-1.22/test/codegen/mathbits.go:564)	CMPQ	SP, 16(R14)
	0x0004 00004 (/home/xzl/work/golang-1.22/golang-1.22/test/codegen/mathbits.go:564)	PCDATA	$0, $-2
	0x0004 00004 (/home/xzl/work/golang-1.22/golang-1.22/test/codegen/mathbits.go:564)	JLS	94
	0x0006 00006 (/home/xzl/work/golang-1.22/golang-1.22/test/codegen/mathbits.go:564)	PCDATA	$0, $-1
	0x0006 00006 (/home/xzl/work/golang-1.22/golang-1.22/test/codegen/mathbits.go:564)	PUSHQ	BP
	0x0007 00007 (/home/xzl/work/golang-1.22/golang-1.22/test/codegen/mathbits.go:564)	MOVQ	SP, BP
	0x000a 00010 (/home/xzl/work/golang-1.22/golang-1.22/test/codegen/mathbits.go:564)	SUBQ	$16, SP
	0x000e 00014 (/home/xzl/work/golang-1.22/golang-1.22/test/codegen/mathbits.go:564)	FUNCDATA	$0, gclocals·g2BeySu+wFnoycgXfElmcg==(SB)
	0x000e 00014 (/home/xzl/work/golang-1.22/golang-1.22/test/codegen/mathbits.go:564)	FUNCDATA	$1, gclocals·g2BeySu+wFnoycgXfElmcg==(SB)
	0x000e 00014 (/home/xzl/work/golang-1.22/golang-1.22/test/codegen/mathbits.go:564)	FUNCDATA	$5, command-line-arguments.Add64MPanicOnOverflowEQ.arginfo1(SB)
	0x000e 00014 (/home/xzl/work/golang-1.22/golang-1.22/test/codegen/mathbits.go:564)	MOVUPS	X15, command-line-arguments.~r0+64(SP)
	0x0014 00020 (/home/xzl/work/golang-1.22/golang-1.22/test/codegen/mathbits.go:567)	MOVQ	command-line-arguments.a+32(SP), CX
	0x0019 00025 (/home/xzl/work/golang-1.22/golang-1.22/test/codegen/mathbits.go:567)	MOVQ	command-line-arguments.b+48(SP), DX
	0x001e 00030 (/home/xzl/work/golang-1.22/golang-1.22/test/codegen/mathbits.go:568)	MOVQ	command-line-arguments.a+40(SP), SI
	0x0023 00035 (/home/xzl/work/golang-1.22/golang-1.22/test/codegen/mathbits.go:568)	MOVQ	command-line-arguments.b+56(SP), DI
	0x0028 00040 (/home/xzl/work/golang-1.22/golang-1.22/test/codegen/mathbits.go:567)	ADDQ	CX, DX
	0x002b 00043 (/home/xzl/work/golang-1.22/golang-1.22/test/codegen/mathbits.go:568)	ADCQ	SI, DI
	0x002e 00046 (/home/xzl/work/golang-1.22/golang-1.22/test/codegen/mathbits.go:568)	SBBQ	CX, CX
	0x0031 00049 (/home/xzl/work/golang-1.22/golang-1.22/test/codegen/mathbits.go:568)	NEGQ	CX
	0x0034 00052 (/home/xzl/work/golang-1.22/golang-1.22/test/codegen/mathbits.go:570)	CMPQ	CX, $1
	0x0038 00056 (/home/xzl/work/golang-1.22/golang-1.22/test/codegen/mathbits.go:570)	JEQ	74
	0x003a 00058 (/home/xzl/work/golang-1.22/golang-1.22/test/codegen/mathbits.go:573)	MOVQ	DX, command-line-arguments.~r0+64(SP)
	0x003f 00063 (/home/xzl/work/golang-1.22/golang-1.22/test/codegen/mathbits.go:573)	MOVQ	DI, command-line-arguments.~r0+72(SP)
	0x0044 00068 (/home/xzl/work/golang-1.22/golang-1.22/test/codegen/mathbits.go:573)	ADDQ	$16, SP
	0x0048 00072 (/home/xzl/work/golang-1.22/golang-1.22/test/codegen/mathbits.go:573)	POPQ	BP
	0x0049 00073 (/home/xzl/work/golang-1.22/golang-1.22/test/codegen/mathbits.go:573)	RET
	0x004a 00074 (/home/xzl/work/golang-1.22/golang-1.22/test/codegen/mathbits.go:571)	LEAQ	type:string(SB), AX
	0x0051 00081 (/home/xzl/work/golang-1.22/golang-1.22/test/codegen/mathbits.go:571)	LEAQ	command-line-arguments..stmp_3(SB), BX
	0x0058 00088 (/home/xzl/work/golang-1.22/golang-1.22/test/codegen/mathbits.go:571)	PCDATA	$1, $0
	0x0058 00088 (/home/xzl/work/golang-1.22/golang-1.22/test/codegen/mathbits.go:571)	CALL	runtime.gopanic(SB)
	0x005d 00093 (/home/xzl/work/golang-1.22/golang-1.22/test/codegen/mathbits.go:571)	XCHGL	AX, AX
	0x005e 00094 (/home/xzl/work/golang-1.22/golang-1.22/test/codegen/mathbits.go:571)	NOP
	0x005e 00094 (/home/xzl/work/golang-1.22/golang-1.22/test/codegen/mathbits.go:564)	PCDATA	$1, $-1
	0x005e 00094 (/home/xzl/work/golang-1.22/golang-1.22/test/codegen/mathbits.go:564)	PCDATA	$0, $-2
	0x005e 00094 (/home/xzl/work/golang-1.22/golang-1.22/test/codegen/mathbits.go:564)	NOP
	0x0060 00096 (/home/xzl/work/golang-1.22/golang-1.22/test/codegen/mathbits.go:564)	CALL	runtime.morestack_noctxt(SB)
	0x0065 00101 (/home/xzl/work/golang-1.22/golang-1.22/test/codegen/mathbits.go:564)	PCDATA	$0, $-1
	0x0065 00101 (/home/xzl/work/golang-1.22/golang-1.22/test/codegen/mathbits.go:564)	JMP	0
	0x0000 49 3b 66 10 76 58 55 48 89 e5 48 83 ec 10 44 0f  I;f.vXUH..H...D.
	0x0010 11 7c 24 40 48 8b 4c 24 20 48 8b 54 24 30 48 8b  .|$@H.L$ H.T$0H.
	0x0020 74 24 28 48 8b 7c 24 38 48 01 ca 48 11 f7 48 19  t$(H.|$8H..H..H.
	0x0030 c9 48 f7 d9 48 83 f9 01 74 10 48 89 54 24 40 48  .H..H...t.H.T$@H
	0x0040 89 7c 24 48 48 83 c4 10 5d c3 48 8d 05 00 00 00  .|$HH...].H.....
	0x0050 00 48 8d 1d 00 00 00 00 e8 00 00 00 00 90 66 90  .H............f.
	0x0060 e8 00 00 00 00 eb 99                             .......
	rel 2+0 t=R_USEIFACE type:string<0>+0
	rel 77+4 t=R_PCREL type:string<0>+0
	rel 84+4 t=R_PCREL command-line-arguments..stmp_3<0>+0
	rel 89+4 t=R_CALL runtime.gopanic<1>+0
	rel 97+4 t=R_CALL runtime.morestack_noctxt<0>+0
command-line-arguments.Add64MPanicOnOverflowNE<1> STEXT size=103 args=0x30 locals=0x18 funcid=0x0 align=0x0
	0x0000 00000 (/home/xzl/work/golang-1.22/golang-1.22/test/codegen/mathbits.go:576)	TEXT	command-line-arguments.Add64MPanicOnOverflowNE(SB), ABIInternal, $24-48
	0x0000 00000 (/home/xzl/work/golang-1.22/golang-1.22/test/codegen/mathbits.go:576)	CMPQ	SP, 16(R14)
	0x0004 00004 (/home/xzl/work/golang-1.22/golang-1.22/test/codegen/mathbits.go:576)	PCDATA	$0, $-2
	0x0004 00004 (/home/xzl/work/golang-1.22/golang-1.22/test/codegen/mathbits.go:576)	JLS	93
	0x0006 00006 (/home/xzl/work/golang-1.22/golang-1.22/test/codegen/mathbits.go:576)	PCDATA	$0, $-1
	0x0006 00006 (/home/xzl/work/golang-1.22/golang-1.22/test/codegen/mathbits.go:576)	PUSHQ	BP
	0x0007 00007 (/home/xzl/work/golang-1.22/golang-1.22/test/codegen/mathbits.go:576)	MOVQ	SP, BP
	0x000a 00010 (/home/xzl/work/golang-1.22/golang-1.22/test/codegen/mathbits.go:576)	SUBQ	$16, SP
	0x000e 00014 (/home/xzl/work/golang-1.22/golang-1.22/test/codegen/mathbits.go:576)	FUNCDATA	$0, gclocals·g2BeySu+wFnoycgXfElmcg==(SB)
	0x000e 00014 (/home/xzl/work/golang-1.22/golang-1.22/test/codegen/mathbits.go:576)	FUNCDATA	$1, gclocals·g2BeySu+wFnoycgXfElmcg==(SB)
	0x000e 00014 (/home/xzl/work/golang-1.22/golang-1.22/test/codegen/mathbits.go:576)	FUNCDATA	$5, command-line-arguments.Add64MPanicOnOverflowNE.arginfo1(SB)
	0x000e 00014 (/home/xzl/work/golang-1.22/golang-1.22/test/codegen/mathbits.go:576)	MOVUPS	X15, command-line-arguments.~r0+64(SP)
	0x0014 00020 (/home/xzl/work/golang-1.22/golang-1.22/test/codegen/mathbits.go:579)	MOVQ	command-line-arguments.a+32(SP), CX
	0x0019 00025 (/home/xzl/work/golang-1.22/golang-1.22/test/codegen/mathbits.go:579)	MOVQ	command-line-arguments.b+48(SP), DX
	0x001e 00030 (/home/xzl/work/golang-1.22/golang-1.22/test/codegen/mathbits.go:580)	MOVQ	command-line-arguments.a+40(SP), SI
	0x0023 00035 (/home/xzl/work/golang-1.22/golang-1.22/test/codegen/mathbits.go:580)	MOVQ	command-line-arguments.b+56(SP), DI
	0x0028 00040 (/home/xzl/work/golang-1.22/golang-1.22/test/codegen/mathbits.go:579)	ADDQ	CX, DX
	0x002b 00043 (/home/xzl/work/golang-1.22/golang-1.22/test/codegen/mathbits.go:580)	ADCQ	SI, DI
	0x002e 00046 (/home/xzl/work/golang-1.22/golang-1.22/test/codegen/mathbits.go:580)	SBBQ	CX, CX
	0x0031 00049 (/home/xzl/work/golang-1.22/golang-1.22/test/codegen/mathbits.go:580)	NEGQ	CX
	0x0034 00052 (/home/xzl/work/golang-1.22/golang-1.22/test/codegen/mathbits.go:582)	TESTQ	CX, CX
	0x0037 00055 (/home/xzl/work/golang-1.22/golang-1.22/test/codegen/mathbits.go:582)	JNE	73
	0x0039 00057 (/home/xzl/work/golang-1.22/golang-1.22/test/codegen/mathbits.go:585)	MOVQ	DX, command-line-arguments.~r0+64(SP)
	0x003e 00062 (/home/xzl/work/golang-1.22/golang-1.22/test/codegen/mathbits.go:585)	MOVQ	DI, command-line-arguments.~r0+72(SP)
	0x0043 00067 (/home/xzl/work/golang-1.22/golang-1.22/test/codegen/mathbits.go:585)	ADDQ	$16, SP
	0x0047 00071 (/home/xzl/work/golang-1.22/golang-1.22/test/codegen/mathbits.go:585)	POPQ	BP
	0x0048 00072 (/home/xzl/work/golang-1.22/golang-1.22/test/codegen/mathbits.go:585)	RET
	0x0049 00073 (/home/xzl/work/golang-1.22/golang-1.22/test/codegen/mathbits.go:583)	LEAQ	type:string(SB), AX
	0x0050 00080 (/home/xzl/work/golang-1.22/golang-1.22/test/codegen/mathbits.go:583)	LEAQ	command-line-arguments..stmp_4(SB), BX
	0x0057 00087 (/home/xzl/work/golang-1.22/golang-1.22/test/codegen/mathbits.go:583)	PCDATA	$1, $0
	0x0057 00087 (/home/xzl/work/golang-1.22/golang-1.22/test/codegen/mathbits.go:583)	CALL	runtime.gopanic(SB)
	0x005c 00092 (/home/xzl/work/golang-1.22/golang-1.22/test/codegen/mathbits.go:583)	XCHGL	AX, AX
	0x005d 00093 (/home/xzl/work/golang-1.22/golang-1.22/test/codegen/mathbits.go:583)	NOP
	0x005d 00093 (/home/xzl/work/golang-1.22/golang-1.22/test/codegen/mathbits.go:576)	PCDATA	$1, $-1
	0x005d 00093 (/home/xzl/work/golang-1.22/golang-1.22/test/codegen/mathbits.go:576)	PCDATA	$0, $-2
	0x005d 00093 (/home/xzl/work/golang-1.22/golang-1.22/test/codegen/mathbits.go:576)	NOP
	0x0060 00096 (/home/xzl/work/golang-1.22/golang-1.22/test/codegen/mathbits.go:576)	CALL	runtime.morestack_noctxt(SB)
	0x0065 00101 (/home/xzl/work/golang-1.22/golang-1.22/test/codegen/mathbits.go:576)	PCDATA	$0, $-1
	0x0065 00101 (/home/xzl/work/golang-1.22/golang-1.22/test/codegen/mathbits.go:576)	JMP	0
	0x0000 49 3b 66 10 76 57 55 48 89 e5 48 83 ec 10 44 0f  I;f.vWUH..H...D.
	0x0010 11 7c 24 40 48 8b 4c 24 20 48 8b 54 24 30 48 8b  .|$@H.L$ H.T$0H.
	0x0020 74 24 28 48 8b 7c 24 38 48 01 ca 48 11 f7 48 19  t$(H.|$8H..H..H.
	0x0030 c9 48 f7 d9 48 85 c9 75 10 48 89 54 24 40 48 89  .H..H..u.H.T$@H.
	0x0040 7c 24 48 48 83 c4 10 5d c3 48 8d 05 00 00 00 00  |$HH...].H......
	0x0050 48 8d 1d 00 00 00 00 e8 00 00 00 00 90 0f 1f 00  H...............
	0x0060 e8 00 00 00 00 eb 99                             .......
	rel 2+0 t=R_USEIFACE type:string<0>+0
	rel 76+4 t=R_PCREL type:string<0>+0
	rel 83+4 t=R_PCREL command-line-arguments..stmp_4<0>+0
	rel 88+4 t=R_CALL runtime.gopanic<1>+0
	rel 97+4 t=R_CALL runtime.morestack_noctxt<0>+0
command-line-arguments.Add64MPanicOnOverflowGT<1> STEXT size=103 args=0x30 locals=0x18 funcid=0x0 align=0x0
	0x0000 00000 (/home/xzl/work/golang-1.22/golang-1.22/test/codegen/mathbits.go:588)	TEXT	command-line-arguments.Add64MPanicOnOverflowGT(SB), ABIInternal, $24-48
	0x0000 00000 (/home/xzl/work/golang-1.22/golang-1.22/test/codegen/mathbits.go:588)	CMPQ	SP, 16(R14)
	0x0004 00004 (/home/xzl/work/golang-1.22/golang-1.22/test/codegen/mathbits.go:588)	PCDATA	$0, $-2
	0x0004 00004 (/home/xzl/work/golang-1.22/golang-1.22/test/codegen/mathbits.go:588)	JLS	93
	0x0006 00006 (/home/xzl/work/golang-1.22/golang-1.22/test/codegen/mathbits.go:588)	PCDATA	$0, $-1
	0x0006 00006 (/home/xzl/work/golang-1.22/golang-1.22/test/codegen/mathbits.go:588)	PUSHQ	BP
	0x0007 00007 (/home/xzl/work/golang-1.22/golang-1.22/test/codegen/mathbits.go:588)	MOVQ	SP, BP
	0x000a 00010 (/home/xzl/work/golang-1.22/golang-1.22/test/codegen/mathbits.go:588)	SUBQ	$16, SP
	0x000e 00014 (/home/xzl/work/golang-1.22/golang-1.22/test/codegen/mathbits.go:588)	FUNCDATA	$0, gclocals·g2BeySu+wFnoycgXfElmcg==(SB)
	0x000e 00014 (/home/xzl/work/golang-1.22/golang-1.22/test/codegen/mathbits.go:588)	FUNCDATA	$1, gclocals·g2BeySu+wFnoycgXfElmcg==(SB)
	0x000e 00014 (/home/xzl/work/golang-1.22/golang-1.22/test/codegen/mathbits.go:588)	FUNCDATA	$5, command-line-arguments.Add64MPanicOnOverflowGT.arginfo1(SB)
	0x000e 00014 (/home/xzl/work/golang-1.22/golang-1.22/test/codegen/mathbits.go:588)	MOVUPS	X15, command-line-arguments.~r0+64(SP)
	0x0014 00020 (/home/xzl/work/golang-1.22/golang-1.22/test/codegen/mathbits.go:591)	MOVQ	command-line-arguments.a+32(SP), CX
	0x0019 00025 (/home/xzl/work/golang-1.22/golang-1.22/test/codegen/mathbits.go:591)	MOVQ	command-line-arguments.b+48(SP), DX
	0x001e 00030 (/home/xzl/work/golang-1.22/golang-1.22/test/codegen/mathbits.go:592)	MOVQ	command-line-arguments.a+40(SP), SI
	0x0023 00035 (/home/xzl/work/golang-1.22/golang-1.22/test/codegen/mathbits.go:592)	MOVQ	command-line-arguments.b+56(SP), DI
	0x0028 00040 (/home/xzl/work/golang-1.22/golang-1.22/test/codegen/mathbits.go:591)	ADDQ	CX, DX
	0x002b 00043 (/home/xzl/work/golang-1.22/golang-1.22/test/codegen/mathbits.go:592)	ADCQ	SI, DI
	0x002e 00046 (/home/xzl/work/golang-1.22/golang-1.22/test/codegen/mathbits.go:592)	SBBQ	CX, CX
	0x0031 00049 (/home/xzl/work/golang-1.22/golang-1.22/test/codegen/mathbits.go:592)	NEGQ	CX
	0x0034 00052 (/home/xzl/work/golang-1.22/golang-1.22/test/codegen/mathbits.go:594)	TESTQ	CX, CX
	0x0037 00055 (/home/xzl/work/golang-1.22/golang-1.22/test/codegen/mathbits.go:594)	JHI	73
	0x0039 00057 (/home/xzl/work/golang-1.22/golang-1.22/test/codegen/mathbits.go:597)	MOVQ	DX, command-line-arguments.~r0+64(SP)
	0x003e 00062 (/home/xzl/work/golang-1.22/golang-1.22/test/codegen/mathbits.go:597)	MOVQ	DI, command-line-arguments.~r0+72(SP)
	0x0043 00067 (/home/xzl/work/golang-1.22/golang-1.22/test/codegen/mathbits.go:597)	ADDQ	$16, SP
	0x0047 00071 (/home/xzl/work/golang-1.22/golang-1.22/test/codegen/mathbits.go:597)	POPQ	BP
	0x0048 00072 (/home/xzl/work/golang-1.22/golang-1.22/test/codegen/mathbits.go:597)	RET
	0x0049 00073 (/home/xzl/work/golang-1.22/golang-1.22/test/codegen/mathbits.go:595)	LEAQ	type:string(SB), AX
	0x0050 00080 (/home/xzl/work/golang-1.22/golang-1.22/test/codegen/mathbits.go:595)	LEAQ	command-line-arguments..stmp_5(SB), BX
	0x0057 00087 (/home/xzl/work/golang-1.22/golang-1.22/test/codegen/mathbits.go:595)	PCDATA	$1, $0
	0x0057 00087 (/home/xzl/work/golang-1.22/golang-1.22/test/codegen/mathbits.go:595)	CALL	runtime.gopanic(SB)
	0x005c 00092 (/home/xzl/work/golang-1.22/golang-1.22/test/codegen/mathbits.go:595)	XCHGL	AX, AX
	0x005d 00093 (/home/xzl/work/golang-1.22/golang-1.22/test/codegen/mathbits.go:595)	NOP
	0x005d 00093 (/home/xzl/work/golang-1.22/golang-1.22/test/codegen/mathbits.go:588)	PCDATA	$1, $-1
	0x005d 00093 (/home/xzl/work/golang-1.22/golang-1.22/test/codegen/mathbits.go:588)	PCDATA	$0, $-2
	0x005d 00093 (/home/xzl/work/golang-1.22/golang-1.22/test/codegen/mathbits.go:588)	NOP
	0x0060 00096 (/home/xzl/work/golang-1.22/golang-1.22/test/codegen/mathbits.go:588)	CALL	runtime.morestack_noctxt(SB)
	0x0065 00101 (/home/xzl/work/golang-1.22/golang-1.22/test/codegen/mathbits.go:588)	PCDATA	$0, $-1
	0x0065 00101 (/home/xzl/work/golang-1.22/golang-1.22/test/codegen/mathbits.go:588)	JMP	0
	0x0000 49 3b 66 10 76 57 55 48 89 e5 48 83 ec 10 44 0f  I;f.vWUH..H...D.
	0x0010 11 7c 24 40 48 8b 4c 24 20 48 8b 54 24 30 48 8b  .|$@H.L$ H.T$0H.
	0x0020 74 24 28 48 8b 7c 24 38 48 01 ca 48 11 f7 48 19  t$(H.|$8H..H..H.
	0x0030 c9 48 f7 d9 48 85 c9 77 10 48 89 54 24 40 48 89  .H..H..w.H.T$@H.
	0x0040 7c 24 48 48 83 c4 10 5d c3 48 8d 05 00 00 00 00  |$HH...].H......
	0x0050 48 8d 1d 00 00 00 00 e8 00 00 00 00 90 0f 1f 00  H...............
	0x0060 e8 00 00 00 00 eb 99                             .......
	rel 2+0 t=R_USEIFACE type:string<0>+0
	rel 76+4 t=R_PCREL type:string<0>+0
	rel 83+4 t=R_PCREL command-line-arguments..stmp_5<0>+0
	rel 88+4 t=R_CALL runtime.gopanic<1>+0
	rel 97+4 t=R_CALL runtime.morestack_noctxt<0>+0
command-line-arguments.Add64MultipleChains<1> STEXT nosplit size=53 args=0x40 locals=0x0 funcid=0x0 align=0x0
	0x0000 00000 (/home/xzl/work/golang-1.22/golang-1.22/test/codegen/mathbits.go:610)	TEXT	command-line-arguments.Add64MultipleChains(SB), NOSPLIT|NOFRAME|ABIInternal, $0-64
	0x0000 00000 (/home/xzl/work/golang-1.22/golang-1.22/test/codegen/mathbits.go:610)	FUNCDATA	$0, gclocals·g2BeySu+wFnoycgXfElmcg==(SB)
	0x0000 00000 (/home/xzl/work/golang-1.22/golang-1.22/test/codegen/mathbits.go:610)	FUNCDATA	$1, gclocals·g2BeySu+wFnoycgXfElmcg==(SB)
	0x0000 00000 (/home/xzl/work/golang-1.22/golang-1.22/test/codegen/mathbits.go:610)	FUNCDATA	$5, command-line-arguments.Add64MultipleChains.arginfo1(SB)
	0x0000 00000 (/home/xzl/work/golang-1.22/golang-1.22/test/codegen/mathbits.go:612)	MOVQ	command-line-arguments.a+8(SP), AX
	0x0005 00005 (/home/xzl/work/golang-1.22/golang-1.22/test/codegen/mathbits.go:612)	MOVQ	command-line-arguments.a+16(SP), CX
	0x000a 00010 (/home/xzl/work/golang-1.22/golang-1.22/test/codegen/mathbits.go:613)	MOVQ	command-line-arguments.b+24(SP), DX
	0x000f 00015 (/home/xzl/work/golang-1.22/golang-1.22/test/codegen/mathbits.go:613)	MOVQ	command-line-arguments.b+32(SP), BX
	0x0014 00020 (/home/xzl/work/golang-1.22/golang-1.22/test/codegen/mathbits.go:614)	MOVQ	command-line-arguments.c+40(SP), SI
	0x0019 00025 (/home/xzl/work/golang-1.22/golang-1.22/test/codegen/mathbits.go:614)	MOVQ	command-line-arguments.c+48(SP), DI
	0x001e 00030 (/home/xzl/work/golang-1.22/golang-1.22/test/codegen/mathbits.go:617)	ADDQ	AX, DX
	0x0021 00033 (/home/xzl/work/golang-1.22/golang-1.22/test/codegen/mathbits.go:619)	ADCQ	CX, BX
	0x0024 00036 (/home/xzl/work/golang-1.22/golang-1.22/test/codegen/mathbits.go:622)	ADDQ	SI, DX
	0x0027 00039 (/home/xzl/work/golang-1.22/golang-1.22/test/codegen/mathbits.go:625)	MOVQ	DX, command-line-arguments.d+56(SP)
	0x002c 00044 (/home/xzl/work/golang-1.22/golang-1.22/test/codegen/mathbits.go:624)	ADCQ	BX, DI
	0x002f 00047 (/home/xzl/work/golang-1.22/golang-1.22/test/codegen/mathbits.go:626)	MOVQ	DI, command-line-arguments.d+64(SP)
	0x0034 00052 (/home/xzl/work/golang-1.22/golang-1.22/test/codegen/mathbits.go:627)	RET
	0x0000 48 8b 44 24 08 48 8b 4c 24 10 48 8b 54 24 18 48  H.D$.H.L$.H.T$.H
	0x0010 8b 5c 24 20 48 8b 74 24 28 48 8b 7c 24 30 48 01  .\$ H.t$(H.|$0H.
	0x0020 c2 48 11 cb 48 01 f2 48 89 54 24 38 48 11 df 48  .H..H..H.T$8H..H
	0x0030 89 7c 24 40 c3                                   .|$@.
command-line-arguments.Sub<1> STEXT nosplit size=12 args=0x18 locals=0x0 funcid=0x0 align=0x0
	0x0000 00000 (/home/xzl/work/golang-1.22/golang-1.22/test/codegen/mathbits.go:633)	TEXT	command-line-arguments.Sub(SB), NOSPLIT|NOFRAME|ABIInternal, $0-24
	0x0000 00000 (/home/xzl/work/golang-1.22/golang-1.22/test/codegen/mathbits.go:633)	FUNCDATA	$0, gclocals·g2BeySu+wFnoycgXfElmcg==(SB)
	0x0000 00000 (/home/xzl/work/golang-1.22/golang-1.22/test/codegen/mathbits.go:633)	FUNCDATA	$1, gclocals·g2BeySu+wFnoycgXfElmcg==(SB)
	0x0000 00000 (/home/xzl/work/golang-1.22/golang-1.22/test/codegen/mathbits.go:633)	FUNCDATA	$5, command-line-arguments.Sub.arginfo1(SB)
	0x0000 00000 (/home/xzl/work/golang-1.22/golang-1.22/test/codegen/mathbits.go:633)	FUNCDATA	$6, command-line-arguments.Sub.argliveinfo(SB)
	0x0000 00000 (/home/xzl/work/golang-1.22/golang-1.22/test/codegen/mathbits.go:633)	PCDATA	$3, $1
	0x0000 00000 (/home/xzl/work/golang-1.22/golang-1.22/test/codegen/mathbits.go:641)	NEGL	CX
	0x0002 00002 (/home/xzl/work/golang-1.22/golang-1.22/test/codegen/mathbits.go:641)	SBBQ	BX, AX
	0x0005 00005 (/home/xzl/work/golang-1.22/golang-1.22/test/codegen/mathbits.go:641)	SBBQ	BX, BX
	0x0008 00008 (/home/xzl/work/golang-1.22/golang-1.22/test/codegen/mathbits.go:641)	NEGQ	BX
	0x000b 00011 (/home/xzl/work/golang-1.22/golang-1.22/test/codegen/mathbits.go:641)	RET
	0x0000 f7 d9 48 19 d8 48 19 db 48 f7 db c3              ..H..H..H...
command-line-arguments.SubC<1> STEXT nosplit size=13 args=0x10 locals=0x0 funcid=0x0 align=0x0
	0x0000 00000 (/home/xzl/work/golang-1.22/golang-1.22/test/codegen/mathbits.go:644)	TEXT	command-line-arguments.SubC(SB), NOSPLIT|NOFRAME|ABIInternal, $0-16
	0x0000 00000 (/home/xzl/work/golang-1.22/golang-1.22/test/codegen/mathbits.go:644)	FUNCDATA	$0, gclocals·g2BeySu+wFnoycgXfElmcg==(SB)
	0x0000 00000 (/home/xzl/work/golang-1.22/golang-1.22/test/codegen/mathbits.go:644)	FUNCDATA	$1, gclocals·g2BeySu+wFnoycgXfElmcg==(SB)
	0x0000 00000 (/home/xzl/work/golang-1.22/golang-1.22/test/codegen/mathbits.go:644)	FUNCDATA	$5, command-line-arguments.SubC.arginfo1(SB)
	0x0000 00000 (/home/xzl/work/golang-1.22/golang-1.22/test/codegen/mathbits.go:644)	FUNCDATA	$6, command-line-arguments.SubC.argliveinfo(SB)
	0x0000 00000 (/home/xzl/work/golang-1.22/golang-1.22/test/codegen/mathbits.go:644)	PCDATA	$3, $1
	0x0000 00000 (/home/xzl/work/golang-1.22/golang-1.22/test/codegen/mathbits.go:652)	NEGL	BX
	0x0002 00002 (/home/xzl/work/golang-1.22/golang-1.22/test/codegen/mathbits.go:652)	SBBQ	$7, AX
	0x0006 00006 (/home/xzl/work/golang-1.22/golang-1.22/test/codegen/mathbits.go:652)	SBBQ	BX, BX
	0x0009 00009 (/home/xzl/work/golang-1.22/golang-1.22/test/codegen/mathbits.go:652)	NEGQ	BX
	0x000c 00012 (/home/xzl/work/golang-1.22/golang-1.22/test/codegen/mathbits.go:652)	RET
	0x0000 f7 db 48 83 d8 07 48 19 db 48 f7 db c3           ..H...H..H...
command-line-arguments.SubZ<1> STEXT nosplit size=10 args=0x10 locals=0x0 funcid=0x0 align=0x0
	0x0000 00000 (/home/xzl/work/golang-1.22/golang-1.22/test/codegen/mathbits.go:655)	TEXT	command-line-arguments.SubZ(SB), NOSPLIT|NOFRAME|ABIInternal, $0-16
	0x0000 00000 (/home/xzl/work/golang-1.22/golang-1.22/test/codegen/mathbits.go:655)	FUNCDATA	$0, gclocals·g2BeySu+wFnoycgXfElmcg==(SB)
	0x0000 00000 (/home/xzl/work/golang-1.22/golang-1.22/test/codegen/mathbits.go:655)	FUNCDATA	$1, gclocals·g2BeySu+wFnoycgXfElmcg==(SB)
	0x0000 00000 (/home/xzl/work/golang-1.22/golang-1.22/test/codegen/mathbits.go:655)	FUNCDATA	$5, command-line-arguments.SubZ.arginfo1(SB)
	0x0000 00000 (/home/xzl/work/golang-1.22/golang-1.22/test/codegen/mathbits.go:655)	FUNCDATA	$6, command-line-arguments.SubZ.argliveinfo(SB)
	0x0000 00000 (/home/xzl/work/golang-1.22/golang-1.22/test/codegen/mathbits.go:655)	PCDATA	$3, $1
	0x0000 00000 (/home/xzl/work/golang-1.22/golang-1.22/test/codegen/mathbits.go:663)	SUBQ	BX, AX
	0x0003 00003 (/home/xzl/work/golang-1.22/golang-1.22/test/codegen/mathbits.go:663)	SBBQ	BX, BX
	0x0006 00006 (/home/xzl/work/golang-1.22/golang-1.22/test/codegen/mathbits.go:663)	NEGQ	BX
	0x0009 00009 (/home/xzl/work/golang-1.22/golang-1.22/test/codegen/mathbits.go:663)	RET
	0x0000 48 29 d8 48 19 db 48 f7 db c3                    H).H..H...
command-line-arguments.SubR<1> STEXT nosplit size=6 args=0x18 locals=0x0 funcid=0x0 align=0x0
	0x0000 00000 (/home/xzl/work/golang-1.22/golang-1.22/test/codegen/mathbits.go:666)	TEXT	command-line-arguments.SubR(SB), NOSPLIT|NOFRAME|ABIInternal, $0-24
	0x0000 00000 (/home/xzl/work/golang-1.22/golang-1.22/test/codegen/mathbits.go:666)	FUNCDATA	$0, gclocals·g2BeySu+wFnoycgXfElmcg==(SB)
	0x0000 00000 (/home/xzl/work/golang-1.22/golang-1.22/test/codegen/mathbits.go:666)	FUNCDATA	$1, gclocals·g2BeySu+wFnoycgXfElmcg==(SB)
	0x0000 00000 (/home/xzl/work/golang-1.22/golang-1.22/test/codegen/mathbits.go:666)	FUNCDATA	$5, command-line-arguments.SubR.arginfo1(SB)
	0x0000 00000 (/home/xzl/work/golang-1.22/golang-1.22/test/codegen/mathbits.go:666)	FUNCDATA	$6, command-line-arguments.SubR.argliveinfo(SB)
	0x0000 00000 (/home/xzl/work/golang-1.22/golang-1.22/test/codegen/mathbits.go:666)	PCDATA	$3, $1
	0x0000 00000 (/home/xzl/work/golang-1.22/golang-1.22/test/codegen/mathbits.go:673)	NEGL	CX
	0x0002 00002 (/home/xzl/work/golang-1.22/golang-1.22/test/codegen/mathbits.go:673)	SBBQ	BX, AX
	0x0005 00005 (/home/xzl/work/golang-1.22/golang-1.22/test/codegen/mathbits.go:674)	RET
	0x0000 f7 d9 48 19 d8 c3                                ..H...
command-line-arguments.SubM<1> STEXT nosplit size=43 args=0x18 locals=0x0 funcid=0x0 align=0x0
	0x0000 00000 (/home/xzl/work/golang-1.22/golang-1.22/test/codegen/mathbits.go:676)	TEXT	command-line-arguments.SubM(SB), NOSPLIT|NOFRAME|ABIInternal, $0-24
	0x0000 00000 (/home/xzl/work/golang-1.22/golang-1.22/test/codegen/mathbits.go:676)	FUNCDATA	$0, gclocals·LlfHo70um+DIUn9rjx/QUA==(SB)
	0x0000 00000 (/home/xzl/work/golang-1.22/golang-1.22/test/codegen/mathbits.go:676)	FUNCDATA	$1, gclocals·J5F+7Qw7O7ve2QcWC7DpeQ==(SB)
	0x0000 00000 (/home/xzl/work/golang-1.22/golang-1.22/test/codegen/mathbits.go:676)	FUNCDATA	$5, command-line-arguments.SubM.arginfo1(SB)
	0x0000 00000 (/home/xzl/work/golang-1.22/golang-1.22/test/codegen/mathbits.go:676)	FUNCDATA	$6, command-line-arguments.SubM.argliveinfo(SB)
	0x0000 00000 (/home/xzl/work/golang-1.22/golang-1.22/test/codegen/mathbits.go:676)	PCDATA	$3, $1
	0x0000 00000 (/home/xzl/work/golang-1.22/golang-1.22/test/codegen/mathbits.go:678)	MOVQ	(AX), DX
	0x0003 00003 (/home/xzl/work/golang-1.22/golang-1.22/test/codegen/mathbits.go:678)	MOVQ	(BX), SI
	0x0006 00006 (/home/xzl/work/golang-1.22/golang-1.22/test/codegen/mathbits.go:678)	SUBQ	SI, DX
	0x0009 00009 (/home/xzl/work/golang-1.22/golang-1.22/test/codegen/mathbits.go:678)	MOVQ	DX, (CX)
	0x000c 00012 (/home/xzl/work/golang-1.22/golang-1.22/test/codegen/mathbits.go:683)	MOVQ	8(AX), DX
	0x0010 00016 (/home/xzl/work/golang-1.22/golang-1.22/test/codegen/mathbits.go:683)	MOVQ	8(BX), SI
	0x0014 00020 (/home/xzl/work/golang-1.22/golang-1.22/test/codegen/mathbits.go:683)	SBBQ	SI, DX
	0x0017 00023 (/home/xzl/work/golang-1.22/golang-1.22/test/codegen/mathbits.go:683)	MOVQ	DX, 8(CX)
	0x001b 00027 (/home/xzl/work/golang-1.22/golang-1.22/test/codegen/mathbits.go:684)	MOVQ	16(AX), AX
	0x001f 00031 (/home/xzl/work/golang-1.22/golang-1.22/test/codegen/mathbits.go:684)	MOVQ	16(BX), DX
	0x0023 00035 (/home/xzl/work/golang-1.22/golang-1.22/test/codegen/mathbits.go:684)	SBBQ	DX, AX
	0x0026 00038 (/home/xzl/work/golang-1.22/golang-1.22/test/codegen/mathbits.go:684)	MOVQ	AX, 16(CX)
	0x002a 00042 (/home/xzl/work/golang-1.22/golang-1.22/test/codegen/mathbits.go:685)	RET
	0x0000 48 8b 10 48 8b 33 48 29 f2 48 89 11 48 8b 50 08  H..H.3H).H..H.P.
	0x0010 48 8b 73 08 48 19 f2 48 89 51 08 48 8b 40 10 48  H.s.H..H.Q.H.@.H
	0x0020 8b 53 10 48 19 d0 48 89 41 10 c3                 .S.H..H.A..
command-line-arguments.Sub64<1> STEXT nosplit size=12 args=0x18 locals=0x0 funcid=0x0 align=0x0
	0x0000 00000 (/home/xzl/work/golang-1.22/golang-1.22/test/codegen/mathbits.go:687)	TEXT	command-line-arguments.Sub64(SB), NOSPLIT|NOFRAME|ABIInternal, $0-24
	0x0000 00000 (/home/xzl/work/golang-1.22/golang-1.22/test/codegen/mathbits.go:687)	FUNCDATA	$0, gclocals·g2BeySu+wFnoycgXfElmcg==(SB)
	0x0000 00000 (/home/xzl/work/golang-1.22/golang-1.22/test/codegen/mathbits.go:687)	FUNCDATA	$1, gclocals·g2BeySu+wFnoycgXfElmcg==(SB)
	0x0000 00000 (/home/xzl/work/golang-1.22/golang-1.22/test/codegen/mathbits.go:687)	FUNCDATA	$5, command-line-arguments.Sub64.arginfo1(SB)
	0x0000 00000 (/home/xzl/work/golang-1.22/golang-1.22/test/codegen/mathbits.go:687)	FUNCDATA	$6, command-line-arguments.Sub64.argliveinfo(SB)
	0x0000 00000 (/home/xzl/work/golang-1.22/golang-1.22/test/codegen/mathbits.go:687)	PCDATA	$3, $1
	0x0000 00000 (/home/xzl/work/golang-1.22/golang-1.22/test/codegen/mathbits.go:695)	NEGL	CX
	0x0002 00002 (/home/xzl/work/golang-1.22/golang-1.22/test/codegen/mathbits.go:695)	SBBQ	BX, AX
	0x0005 00005 (/home/xzl/work/golang-1.22/golang-1.22/test/codegen/mathbits.go:695)	SBBQ	BX, BX
	0x0008 00008 (/home/xzl/work/golang-1.22/golang-1.22/test/codegen/mathbits.go:695)	NEGQ	BX
	0x000b 00011 (/home/xzl/work/golang-1.22/golang-1.22/test/codegen/mathbits.go:695)	RET
	0x0000 f7 d9 48 19 d8 48 19 db 48 f7 db c3              ..H..H..H...
command-line-arguments.Sub64C<1> STEXT nosplit size=13 args=0x10 locals=0x0 funcid=0x0 align=0x0
	0x0000 00000 (/home/xzl/work/golang-1.22/golang-1.22/test/codegen/mathbits.go:698)	TEXT	command-line-arguments.Sub64C(SB), NOSPLIT|NOFRAME|ABIInternal, $0-16
	0x0000 00000 (/home/xzl/work/golang-1.22/golang-1.22/test/codegen/mathbits.go:698)	FUNCDATA	$0, gclocals·g2BeySu+wFnoycgXfElmcg==(SB)
	0x0000 00000 (/home/xzl/work/golang-1.22/golang-1.22/test/codegen/mathbits.go:698)	FUNCDATA	$1, gclocals·g2BeySu+wFnoycgXfElmcg==(SB)
	0x0000 00000 (/home/xzl/work/golang-1.22/golang-1.22/test/codegen/mathbits.go:698)	FUNCDATA	$5, command-line-arguments.Sub64C.arginfo1(SB)
	0x0000 00000 (/home/xzl/work/golang-1.22/golang-1.22/test/codegen/mathbits.go:698)	FUNCDATA	$6, command-line-arguments.Sub64C.argliveinfo(SB)
	0x0000 00000 (/home/xzl/work/golang-1.22/golang-1.22/test/codegen/mathbits.go:698)	PCDATA	$3, $1
	0x0000 00000 (/home/xzl/work/golang-1.22/golang-1.22/test/codegen/mathbits.go:706)	NEGL	BX
	0x0002 00002 (/home/xzl/work/golang-1.22/golang-1.22/test/codegen/mathbits.go:706)	SBBQ	$7, AX
	0x0006 00006 (/home/xzl/work/golang-1.22/golang-1.22/test/codegen/mathbits.go:706)	SBBQ	BX, BX
	0x0009 00009 (/home/xzl/work/golang-1.22/golang-1.22/test/codegen/mathbits.go:706)	NEGQ	BX
	0x000c 00012 (/home/xzl/work/golang-1.22/golang-1.22/test/codegen/mathbits.go:706)	RET
	0x0000 f7 db 48 83 d8 07 48 19 db 48 f7 db c3           ..H...H..H...
command-line-arguments.Sub64Z<1> STEXT nosplit size=10 args=0x10 locals=0x0 funcid=0x0 align=0x0
	0x0000 00000 (/home/xzl/work/golang-1.22/golang-1.22/test/codegen/mathbits.go:709)	TEXT	command-line-arguments.Sub64Z(SB), NOSPLIT|NOFRAME|ABIInternal, $0-16
	0x0000 00000 (/home/xzl/work/golang-1.22/golang-1.22/test/codegen/mathbits.go:709)	FUNCDATA	$0, gclocals·g2BeySu+wFnoycgXfElmcg==(SB)
	0x0000 00000 (/home/xzl/work/golang-1.22/golang-1.22/test/codegen/mathbits.go:709)	FUNCDATA	$1, gclocals·g2BeySu+wFnoycgXfElmcg==(SB)
	0x0000 00000 (/home/xzl/work/golang-1.22/golang-1.22/test/codegen/mathbits.go:709)	FUNCDATA	$5, command-line-arguments.Sub64Z.arginfo1(SB)
	0x0000 00000 (/home/xzl/work/golang-1.22/golang-1.22/test/codegen/mathbits.go:709)	FUNCDATA	$6, command-line-arguments.Sub64Z.argliveinfo(SB)
	0x0000 00000 (/home/xzl/work/golang-1.22/golang-1.22/test/codegen/mathbits.go:709)	PCDATA	$3, $1
	0x0000 00000 (/home/xzl/work/golang-1.22/golang-1.22/test/codegen/mathbits.go:717)	SUBQ	BX, AX
	0x0003 00003 (/home/xzl/work/golang-1.22/golang-1.22/test/codegen/mathbits.go:717)	SBBQ	BX, BX
	0x0006 00006 (/home/xzl/work/golang-1.22/golang-1.22/test/codegen/mathbits.go:717)	NEGQ	BX
	0x0009 00009 (/home/xzl/work/golang-1.22/golang-1.22/test/codegen/mathbits.go:717)	RET
	0x0000 48 29 d8 48 19 db 48 f7 db c3                    H).H..H...
command-line-arguments.Sub64R<1> STEXT nosplit size=6 args=0x18 locals=0x0 funcid=0x0 align=0x0
	0x0000 00000 (/home/xzl/work/golang-1.22/golang-1.22/test/codegen/mathbits.go:720)	TEXT	command-line-arguments.Sub64R(SB), NOSPLIT|NOFRAME|ABIInternal, $0-24
	0x0000 00000 (/home/xzl/work/golang-1.22/golang-1.22/test/codegen/mathbits.go:720)	FUNCDATA	$0, gclocals·g2BeySu+wFnoycgXfElmcg==(SB)
	0x0000 00000 (/home/xzl/work/golang-1.22/golang-1.22/test/codegen/mathbits.go:720)	FUNCDATA	$1, gclocals·g2BeySu+wFnoycgXfElmcg==(SB)
	0x0000 00000 (/home/xzl/work/golang-1.22/golang-1.22/test/codegen/mathbits.go:720)	FUNCDATA	$5, command-line-arguments.Sub64R.arginfo1(SB)
	0x0000 00000 (/home/xzl/work/golang-1.22/golang-1.22/test/codegen/mathbits.go:720)	FUNCDATA	$6, command-line-arguments.Sub64R.argliveinfo(SB)
	0x0000 00000 (/home/xzl/work/golang-1.22/golang-1.22/test/codegen/mathbits.go:720)	PCDATA	$3, $1
	0x0000 00000 (/home/xzl/work/golang-1.22/golang-1.22/test/codegen/mathbits.go:727)	NEGL	CX
	0x0002 00002 (/home/xzl/work/golang-1.22/golang-1.22/test/codegen/mathbits.go:727)	SBBQ	BX, AX
	0x0005 00005 (/home/xzl/work/golang-1.22/golang-1.22/test/codegen/mathbits.go:728)	RET
	0x0000 f7 d9 48 19 d8 c3                                ..H...
command-line-arguments.Sub64M<1> STEXT nosplit size=43 args=0x18 locals=0x0 funcid=0x0 align=0x0
	0x0000 00000 (/home/xzl/work/golang-1.22/golang-1.22/test/codegen/mathbits.go:730)	TEXT	command-line-arguments.Sub64M(SB), NOSPLIT|NOFRAME|ABIInternal, $0-24
	0x0000 00000 (/home/xzl/work/golang-1.22/golang-1.22/test/codegen/mathbits.go:730)	FUNCDATA	$0, gclocals·LlfHo70um+DIUn9rjx/QUA==(SB)
	0x0000 00000 (/home/xzl/work/golang-1.22/golang-1.22/test/codegen/mathbits.go:730)	FUNCDATA	$1, gclocals·J5F+7Qw7O7ve2QcWC7DpeQ==(SB)
	0x0000 00000 (/home/xzl/work/golang-1.22/golang-1.22/test/codegen/mathbits.go:730)	FUNCDATA	$5, command-line-arguments.Sub64M.arginfo1(SB)
	0x0000 00000 (/home/xzl/work/golang-1.22/golang-1.22/test/codegen/mathbits.go:730)	FUNCDATA	$6, command-line-arguments.Sub64M.argliveinfo(SB)
	0x0000 00000 (/home/xzl/work/golang-1.22/golang-1.22/test/codegen/mathbits.go:730)	PCDATA	$3, $1
	0x0000 00000 (/home/xzl/work/golang-1.22/golang-1.22/test/codegen/mathbits.go:732)	MOVQ	(AX), DX
	0x0003 00003 (/home/xzl/work/golang-1.22/golang-1.22/test/codegen/mathbits.go:732)	MOVQ	(BX), SI
	0x0006 00006 (/home/xzl/work/golang-1.22/golang-1.22/test/codegen/mathbits.go:732)	SUBQ	SI, DX
	0x0009 00009 (/home/xzl/work/golang-1.22/golang-1.22/test/codegen/mathbits.go:732)	MOVQ	DX, (CX)
	0x000c 00012 (/home/xzl/work/golang-1.22/golang-1.22/test/codegen/mathbits.go:736)	MOVQ	8(AX), DX
	0x0010 00016 (/home/xzl/work/golang-1.22/golang-1.22/test/codegen/mathbits.go:736)	MOVQ	8(BX), SI
	0x0014 00020 (/home/xzl/work/golang-1.22/golang-1.22/test/codegen/mathbits.go:736)	SBBQ	SI, DX
	0x0017 00023 (/home/xzl/work/golang-1.22/golang-1.22/test/codegen/mathbits.go:736)	MOVQ	DX, 8(CX)
	0x001b 00027 (/home/xzl/work/golang-1.22/golang-1.22/test/codegen/mathbits.go:737)	MOVQ	16(AX), AX
	0x001f 00031 (/home/xzl/work/golang-1.22/golang-1.22/test/codegen/mathbits.go:737)	MOVQ	16(BX), DX
	0x0023 00035 (/home/xzl/work/golang-1.22/golang-1.22/test/codegen/mathbits.go:737)	SBBQ	DX, AX
	0x0026 00038 (/home/xzl/work/golang-1.22/golang-1.22/test/codegen/mathbits.go:737)	MOVQ	AX, 16(CX)
	0x002a 00042 (/home/xzl/work/golang-1.22/golang-1.22/test/codegen/mathbits.go:738)	RET
	0x0000 48 8b 10 48 8b 33 48 29 f2 48 89 11 48 8b 50 08  H..H.3H).H..H.P.
	0x0010 48 8b 73 08 48 19 f2 48 89 51 08 48 8b 40 10 48  H.s.H..H.Q.H.@.H
	0x0020 8b 53 10 48 19 d0 48 89 41 10 c3                 .S.H..H.A..
command-line-arguments.Sub64MSaveC<1> STEXT nosplit size=53 args=0x20 locals=0x0 funcid=0x0 align=0x0
	0x0000 00000 (/home/xzl/work/golang-1.22/golang-1.22/test/codegen/mathbits.go:740)	TEXT	command-line-arguments.Sub64MSaveC(SB), NOSPLIT|NOFRAME|ABIInternal, $0-32
	0x0000 00000 (/home/xzl/work/golang-1.22/golang-1.22/test/codegen/mathbits.go:740)	FUNCDATA	$0, gclocals·br8UsANEGWp75kzr7DNKRQ==(SB)
	0x0000 00000 (/home/xzl/work/golang-1.22/golang-1.22/test/codegen/mathbits.go:740)	FUNCDATA	$1, gclocals·J5F+7Qw7O7ve2QcWC7DpeQ==(SB)
	0x0000 00000 (/home/xzl/work/golang-1.22/golang-1.22/test/codegen/mathbits.go:740)	FUNCDATA	$5, command-line-arguments.Sub64MSaveC.arginfo1(SB)
	0x0000 00000 (/home/xzl/work/golang-1.22/golang-1.22/test/codegen/mathbits.go:740)	FUNCDATA	$6, command-line-arguments.Sub64MSaveC.argliveinfo(SB)
	0x0000 00000 (/home/xzl/work/golang-1.22/golang-1.22/test/codegen/mathbits.go:740)	PCDATA	$3, $1
	0x0000 00000 (/home/xzl/work/golang-1.22/golang-1.22/test/codegen/mathbits.go:742)	MOVQ	(AX), DX
	0x0003 00003 (/home/xzl/work/golang-1.22/golang-1.22/test/codegen/mathbits.go:742)	MOVQ	(BX), SI
	0x0006 00006 (/home/xzl/work/golang-1.22/golang-1.22/test/codegen/mathbits.go:742)	MOVQ	DX, R8
	0x0009 00009 (/home/xzl/work/golang-1.22/golang-1.22/test/codegen/mathbits.go:742)	SUBQ	SI, DX
	0x000c 00012 (/home/xzl/work/golang-1.22/golang-1.22/test/codegen/mathbits.go:742)	MOVQ	DX, (CX)
	0x000f 00015 (/home/xzl/work/golang-1.22/golang-1.22/test/codegen/mathbits.go:742)	SBBQ	DX, DX
	0x0012 00018 (/home/xzl/work/golang-1.22/golang-1.22/test/codegen/mathbits.go:742)	NEGQ	DX
	0x0015 00021 (/home/xzl/work/golang-1.22/golang-1.22/test/codegen/mathbits.go:742)	MOVQ	DX, (DI)
	0x0018 00024 (/home/xzl/work/golang-1.22/golang-1.22/test/codegen/mathbits.go:744)	MOVQ	8(AX), AX
	0x001c 00028 (/home/xzl/work/golang-1.22/golang-1.22/test/codegen/mathbits.go:744)	MOVQ	8(BX), DX
	0x0020 00032 (/home/xzl/work/golang-1.22/golang-1.22/test/codegen/mathbits.go:742)	SUBQ	SI, R8
	0x0023 00035 (/home/xzl/work/golang-1.22/golang-1.22/test/codegen/mathbits.go:744)	SBBQ	DX, AX
	0x0026 00038 (/home/xzl/work/golang-1.22/golang-1.22/test/codegen/mathbits.go:744)	MOVQ	AX, 8(CX)
	0x002a 00042 (/home/xzl/work/golang-1.22/golang-1.22/test/codegen/mathbits.go:744)	SBBQ	AX, AX
	0x002d 00045 (/home/xzl/work/golang-1.22/golang-1.22/test/codegen/mathbits.go:744)	NEGQ	AX
	0x0030 00048 (/home/xzl/work/golang-1.22/golang-1.22/test/codegen/mathbits.go:744)	MOVQ	AX, 8(DI)
	0x0034 00052 (/home/xzl/work/golang-1.22/golang-1.22/test/codegen/mathbits.go:745)	RET
	0x0000 48 8b 10 48 8b 33 49 89 d0 48 29 f2 48 89 11 48  H..H.3I..H).H..H
	0x0010 19 d2 48 f7 da 48 89 17 48 8b 40 08 48 8b 53 08  ..H..H..H.@.H.S.
	0x0020 49 29 f0 48 19 d0 48 89 41 08 48 19 c0 48 f7 d8  I).H..H.A.H..H..
	0x0030 48 89 47 08 c3                                   H.G..
command-line-arguments.Sub64PanicOnOverflowEQ<1> STEXT size=82 args=0x10 locals=0x18 funcid=0x0 align=0x0
	0x0000 00000 (/home/xzl/work/golang-1.22/golang-1.22/test/codegen/mathbits.go:747)	TEXT	command-line-arguments.Sub64PanicOnOverflowEQ(SB), ABIInternal, $24-16
	0x0000 00000 (/home/xzl/work/golang-1.22/golang-1.22/test/codegen/mathbits.go:747)	CMPQ	SP, 16(R14)
	0x0004 00004 (/home/xzl/work/golang-1.22/golang-1.22/test/codegen/mathbits.go:747)	PCDATA	$0, $-2
	0x0004 00004 (/home/xzl/work/golang-1.22/golang-1.22/test/codegen/mathbits.go:747)	JLS	55
	0x0006 00006 (/home/xzl/work/golang-1.22/golang-1.22/test/codegen/mathbits.go:747)	PCDATA	$0, $-1
	0x0006 00006 (/home/xzl/work/golang-1.22/golang-1.22/test/codegen/mathbits.go:747)	PUSHQ	BP
	0x0007 00007 (/home/xzl/work/golang-1.22/golang-1.22/test/codegen/mathbits.go:747)	MOVQ	SP, BP
	0x000a 00010 (/home/xzl/work/golang-1.22/golang-1.22/test/codegen/mathbits.go:747)	SUBQ	$16, SP
	0x000e 00014 (/home/xzl/work/golang-1.22/golang-1.22/test/codegen/mathbits.go:747)	FUNCDATA	$0, gclocals·g2BeySu+wFnoycgXfElmcg==(SB)
	0x000e 00014 (/home/xzl/work/golang-1.22/golang-1.22/test/codegen/mathbits.go:747)	FUNCDATA	$1, gclocals·g2BeySu+wFnoycgXfElmcg==(SB)
	0x000e 00014 (/home/xzl/work/golang-1.22/golang-1.22/test/codegen/mathbits.go:747)	FUNCDATA	$5, command-line-arguments.Sub64PanicOnOverflowEQ.arginfo1(SB)
	0x000e 00014 (/home/xzl/work/golang-1.22/golang-1.22/test/codegen/mathbits.go:747)	FUNCDATA	$6, command-line-arguments.Sub64PanicOnOverflowEQ.argliveinfo(SB)
	0x000e 00014 (/home/xzl/work/golang-1.22/golang-1.22/test/codegen/mathbits.go:747)	PCDATA	$3, $1
	0x000e 00014 (/home/xzl/work/golang-1.22/golang-1.22/test/codegen/mathbits.go:748)	SUBQ	BX, AX
	0x0011 00017 (/home/xzl/work/golang-1.22/golang-1.22/test/codegen/mathbits.go:748)	SBBQ	CX, CX
	0x0014 00020 (/home/xzl/work/golang-1.22/golang-1.22/test/codegen/mathbits.go:748)	NEGQ	CX
	0x0017 00023 (/home/xzl/work/golang-1.22/golang-1.22/test/codegen/mathbits.go:750)	CMPQ	CX, $1
	0x001b 00027 (/home/xzl/work/golang-1.22/golang-1.22/test/codegen/mathbits.go:750)	JEQ	35
	0x001d 00029 (/home/xzl/work/golang-1.22/golang-1.22/test/codegen/mathbits.go:753)	ADDQ	$16, SP
	0x0021 00033 (/home/xzl/work/golang-1.22/golang-1.22/test/codegen/mathbits.go:753)	POPQ	BP
	0x0022 00034 (/home/xzl/work/golang-1.22/golang-1.22/test/codegen/mathbits.go:753)	RET
	0x0023 00035 (/home/xzl/work/golang-1.22/golang-1.22/test/codegen/mathbits.go:751)	LEAQ	type:string(SB), AX
	0x002a 00042 (/home/xzl/work/golang-1.22/golang-1.22/test/codegen/mathbits.go:751)	LEAQ	command-line-arguments..stmp_6(SB), BX
	0x0031 00049 (/home/xzl/work/golang-1.22/golang-1.22/test/codegen/mathbits.go:751)	PCDATA	$1, $0
	0x0031 00049 (/home/xzl/work/golang-1.22/golang-1.22/test/codegen/mathbits.go:751)	CALL	runtime.gopanic(SB)
	0x0036 00054 (/home/xzl/work/golang-1.22/golang-1.22/test/codegen/mathbits.go:751)	XCHGL	AX, AX
	0x0037 00055 (/home/xzl/work/golang-1.22/golang-1.22/test/codegen/mathbits.go:751)	NOP
	0x0037 00055 (/home/xzl/work/golang-1.22/golang-1.22/test/codegen/mathbits.go:747)	PCDATA	$1, $-1
	0x0037 00055 (/home/xzl/work/golang-1.22/golang-1.22/test/codegen/mathbits.go:747)	PCDATA	$0, $-2
	0x0037 00055 (/home/xzl/work/golang-1.22/golang-1.22/test/codegen/mathbits.go:747)	MOVQ	AX, 8(SP)
	0x003c 00060 (/home/xzl/work/golang-1.22/golang-1.22/test/codegen/mathbits.go:747)	MOVQ	BX, 16(SP)
	0x0041 00065 (/home/xzl/work/golang-1.22/golang-1.22/test/codegen/mathbits.go:747)	CALL	runtime.morestack_noctxt(SB)
	0x0046 00070 (/home/xzl/work/golang-1.22/golang-1.22/test/codegen/mathbits.go:747)	PCDATA	$0, $-1
	0x0046 00070 (/home/xzl/work/golang-1.22/golang-1.22/test/codegen/mathbits.go:747)	MOVQ	8(SP), AX
	0x004b 00075 (/home/xzl/work/golang-1.22/golang-1.22/test/codegen/mathbits.go:747)	MOVQ	16(SP), BX
	0x0050 00080 (/home/xzl/work/golang-1.22/golang-1.22/test/codegen/mathbits.go:747)	JMP	0
	0x0000 49 3b 66 10 76 31 55 48 89 e5 48 83 ec 10 48 29  I;f.v1UH..H...H)
	0x0010 d8 48 19 c9 48 f7 d9 48 83 f9 01 74 06 48 83 c4  .H..H..H...t.H..
	0x0020 10 5d c3 48 8d 05 00 00 00 00 48 8d 1d 00 00 00  .].H......H.....
	0x0030 00 e8 00 00 00 00 90 48 89 44 24 08 48 89 5c 24  .......H.D$.H.\$
	0x0040 10 e8 00 00 00 00 48 8b 44 24 08 48 8b 5c 24 10  ......H.D$.H.\$.
	0x0050 eb ae                                            ..
	rel 2+0 t=R_USEIFACE type:string<0>+0
	rel 38+4 t=R_PCREL type:string<0>+0
	rel 45+4 t=R_PCREL command-line-arguments..stmp_6<0>+0
	rel 50+4 t=R_CALL runtime.gopanic<1>+0
	rel 66+4 t=R_CALL runtime.morestack_noctxt<0>+0
command-line-arguments.Sub64PanicOnOverflowNE<1> STEXT size=81 args=0x10 locals=0x18 funcid=0x0 align=0x0
	0x0000 00000 (/home/xzl/work/golang-1.22/golang-1.22/test/codegen/mathbits.go:756)	TEXT	command-line-arguments.Sub64PanicOnOverflowNE(SB), ABIInternal, $24-16
	0x0000 00000 (/home/xzl/work/golang-1.22/golang-1.22/test/codegen/mathbits.go:756)	CMPQ	SP, 16(R14)
	0x0004 00004 (/home/xzl/work/golang-1.22/golang-1.22/test/codegen/mathbits.go:756)	PCDATA	$0, $-2
	0x0004 00004 (/home/xzl/work/golang-1.22/golang-1.22/test/codegen/mathbits.go:756)	JLS	54
	0x0006 00006 (/home/xzl/work/golang-1.22/golang-1.22/test/codegen/mathbits.go:756)	PCDATA	$0, $-1
	0x0006 00006 (/home/xzl/work/golang-1.22/golang-1.22/test/codegen/mathbits.go:756)	PUSHQ	BP
	0x0007 00007 (/home/xzl/work/golang-1.22/golang-1.22/test/codegen/mathbits.go:756)	MOVQ	SP, BP
	0x000a 00010 (/home/xzl/work/golang-1.22/golang-1.22/test/codegen/mathbits.go:756)	SUBQ	$16, SP
	0x000e 00014 (/home/xzl/work/golang-1.22/golang-1.22/test/codegen/mathbits.go:756)	FUNCDATA	$0, gclocals·g2BeySu+wFnoycgXfElmcg==(SB)
	0x000e 00014 (/home/xzl/work/golang-1.22/golang-1.22/test/codegen/mathbits.go:756)	FUNCDATA	$1, gclocals·g2BeySu+wFnoycgXfElmcg==(SB)
	0x000e 00014 (/home/xzl/work/golang-1.22/golang-1.22/test/codegen/mathbits.go:756)	FUNCDATA	$5, command-line-arguments.Sub64PanicOnOverflowNE.arginfo1(SB)
	0x000e 00014 (/home/xzl/work/golang-1.22/golang-1.22/test/codegen/mathbits.go:756)	FUNCDATA	$6, command-line-arguments.Sub64PanicOnOverflowNE.argliveinfo(SB)
	0x000e 00014 (/home/xzl/work/golang-1.22/golang-1.22/test/codegen/mathbits.go:756)	PCDATA	$3, $1
	0x000e 00014 (/home/xzl/work/golang-1.22/golang-1.22/test/codegen/mathbits.go:757)	SUBQ	BX, AX
	0x0011 00017 (/home/xzl/work/golang-1.22/golang-1.22/test/codegen/mathbits.go:757)	SBBQ	CX, CX
	0x0014 00020 (/home/xzl/work/golang-1.22/golang-1.22/test/codegen/mathbits.go:757)	NEGQ	CX
	0x0017 00023 (/home/xzl/work/golang-1.22/golang-1.22/test/codegen/mathbits.go:759)	TESTQ	CX, CX
	0x001a 00026 (/home/xzl/work/golang-1.22/golang-1.22/test/codegen/mathbits.go:759)	JNE	34
	0x001c 00028 (/home/xzl/work/golang-1.22/golang-1.22/test/codegen/mathbits.go:762)	ADDQ	$16, SP
	0x0020 00032 (/home/xzl/work/golang-1.22/golang-1.22/test/codegen/mathbits.go:762)	POPQ	BP
	0x0021 00033 (/home/xzl/work/golang-1.22/golang-1.22/test/codegen/mathbits.go:762)	RET
	0x0022 00034 (/home/xzl/work/golang-1.22/golang-1.22/test/codegen/mathbits.go:760)	LEAQ	type:string(SB), AX
	0x0029 00041 (/home/xzl/work/golang-1.22/golang-1.22/test/codegen/mathbits.go:760)	LEAQ	command-line-arguments..stmp_7(SB), BX
	0x0030 00048 (/home/xzl/work/golang-1.22/golang-1.22/test/codegen/mathbits.go:760)	PCDATA	$1, $0
	0x0030 00048 (/home/xzl/work/golang-1.22/golang-1.22/test/codegen/mathbits.go:760)	CALL	runtime.gopanic(SB)
	0x0035 00053 (/home/xzl/work/golang-1.22/golang-1.22/test/codegen/mathbits.go:760)	XCHGL	AX, AX
	0x0036 00054 (/home/xzl/work/golang-1.22/golang-1.22/test/codegen/mathbits.go:760)	NOP
	0x0036 00054 (/home/xzl/work/golang-1.22/golang-1.22/test/codegen/mathbits.go:756)	PCDATA	$1, $-1
	0x0036 00054 (/home/xzl/work/golang-1.22/golang-1.22/test/codegen/mathbits.go:756)	PCDATA	$0, $-2
	0x0036 00054 (/home/xzl/work/golang-1.22/golang-1.22/test/codegen/mathbits.go:756)	MOVQ	AX, 8(SP)
	0x003b 00059 (/home/xzl/work/golang-1.22/golang-1.22/test/codegen/mathbits.go:756)	MOVQ	BX, 16(SP)
	0x0040 00064 (/home/xzl/work/golang-1.22/golang-1.22/test/codegen/mathbits.go:756)	CALL	runtime.morestack_noctxt(SB)
	0x0045 00069 (/home/xzl/work/golang-1.22/golang-1.22/test/codegen/mathbits.go:756)	PCDATA	$0, $-1
	0x0045 00069 (/home/xzl/work/golang-1.22/golang-1.22/test/codegen/mathbits.go:756)	MOVQ	8(SP), AX
	0x004a 00074 (/home/xzl/work/golang-1.22/golang-1.22/test/codegen/mathbits.go:756)	MOVQ	16(SP), BX
	0x004f 00079 (/home/xzl/work/golang-1.22/golang-1.22/test/codegen/mathbits.go:756)	JMP	0
	0x0000 49 3b 66 10 76 30 55 48 89 e5 48 83 ec 10 48 29  I;f.v0UH..H...H)
	0x0010 d8 48 19 c9 48 f7 d9 48 85 c9 75 06 48 83 c4 10  .H..H..H..u.H...
	0x0020 5d c3 48 8d 05 00 00 00 00 48 8d 1d 00 00 00 00  ].H......H......
	0x0030 e8 00 00 00 00 90 48 89 44 24 08 48 89 5c 24 10  ......H.D$.H.\$.
	0x0040 e8 00 00 00 00 48 8b 44 24 08 48 8b 5c 24 10 eb  .....H.D$.H.\$..
	0x0050 af                                               .
	rel 2+0 t=R_USEIFACE type:string<0>+0
	rel 37+4 t=R_PCREL type:string<0>+0
	rel 44+4 t=R_PCREL command-line-arguments..stmp_7<0>+0
	rel 49+4 t=R_CALL runtime.gopanic<1>+0
	rel 65+4 t=R_CALL runtime.morestack_noctxt<0>+0
command-line-arguments.Sub64PanicOnOverflowGT<1> STEXT size=81 args=0x10 locals=0x18 funcid=0x0 align=0x0
	0x0000 00000 (/home/xzl/work/golang-1.22/golang-1.22/test/codegen/mathbits.go:765)	TEXT	command-line-arguments.Sub64PanicOnOverflowGT(SB), ABIInternal, $24-16
	0x0000 00000 (/home/xzl/work/golang-1.22/golang-1.22/test/codegen/mathbits.go:765)	CMPQ	SP, 16(R14)
	0x0004 00004 (/home/xzl/work/golang-1.22/golang-1.22/test/codegen/mathbits.go:765)	PCDATA	$0, $-2
	0x0004 00004 (/home/xzl/work/golang-1.22/golang-1.22/test/codegen/mathbits.go:765)	JLS	54
	0x0006 00006 (/home/xzl/work/golang-1.22/golang-1.22/test/codegen/mathbits.go:765)	PCDATA	$0, $-1
	0x0006 00006 (/home/xzl/work/golang-1.22/golang-1.22/test/codegen/mathbits.go:765)	PUSHQ	BP
	0x0007 00007 (/home/xzl/work/golang-1.22/golang-1.22/test/codegen/mathbits.go:765)	MOVQ	SP, BP
	0x000a 00010 (/home/xzl/work/golang-1.22/golang-1.22/test/codegen/mathbits.go:765)	SUBQ	$16, SP
	0x000e 00014 (/home/xzl/work/golang-1.22/golang-1.22/test/codegen/mathbits.go:765)	FUNCDATA	$0, gclocals·g2BeySu+wFnoycgXfElmcg==(SB)
	0x000e 00014 (/home/xzl/work/golang-1.22/golang-1.22/test/codegen/mathbits.go:765)	FUNCDATA	$1, gclocals·g2BeySu+wFnoycgXfElmcg==(SB)
	0x000e 00014 (/home/xzl/work/golang-1.22/golang-1.22/test/codegen/mathbits.go:765)	FUNCDATA	$5, command-line-arguments.Sub64PanicOnOverflowGT.arginfo1(SB)
	0x000e 00014 (/home/xzl/work/golang-1.22/golang-1.22/test/codegen/mathbits.go:765)	FUNCDATA	$6, command-line-arguments.Sub64PanicOnOverflowGT.argliveinfo(SB)
	0x000e 00014 (/home/xzl/work/golang-1.22/golang-1.22/test/codegen/mathbits.go:765)	PCDATA	$3, $1
	0x000e 00014 (/home/xzl/work/golang-1.22/golang-1.22/test/codegen/mathbits.go:766)	SUBQ	BX, AX
	0x0011 00017 (/home/xzl/work/golang-1.22/golang-1.22/test/codegen/mathbits.go:766)	SBBQ	CX, CX
	0x0014 00020 (/home/xzl/work/golang-1.22/golang-1.22/test/codegen/mathbits.go:766)	NEGQ	CX
	0x0017 00023 (/home/xzl/work/golang-1.22/golang-1.22/test/codegen/mathbits.go:768)	TESTQ	CX, CX
	0x001a 00026 (/home/xzl/work/golang-1.22/golang-1.22/test/codegen/mathbits.go:768)	JHI	34
	0x001c 00028 (/home/xzl/work/golang-1.22/golang-1.22/test/codegen/mathbits.go:771)	ADDQ	$16, SP
	0x0020 00032 (/home/xzl/work/golang-1.22/golang-1.22/test/codegen/mathbits.go:771)	POPQ	BP
	0x0021 00033 (/home/xzl/work/golang-1.22/golang-1.22/test/codegen/mathbits.go:771)	RET
	0x0022 00034 (/home/xzl/work/golang-1.22/golang-1.22/test/codegen/mathbits.go:769)	LEAQ	type:string(SB), AX
	0x0029 00041 (/home/xzl/work/golang-1.22/golang-1.22/test/codegen/mathbits.go:769)	LEAQ	command-line-arguments..stmp_8(SB), BX
	0x0030 00048 (/home/xzl/work/golang-1.22/golang-1.22/test/codegen/mathbits.go:769)	PCDATA	$1, $0
	0x0030 00048 (/home/xzl/work/golang-1.22/golang-1.22/test/codegen/mathbits.go:769)	CALL	runtime.gopanic(SB)
	0x0035 00053 (/home/xzl/work/golang-1.22/golang-1.22/test/codegen/mathbits.go:769)	XCHGL	AX, AX
	0x0036 00054 (/home/xzl/work/golang-1.22/golang-1.22/test/codegen/mathbits.go:769)	NOP
	0x0036 00054 (/home/xzl/work/golang-1.22/golang-1.22/test/codegen/mathbits.go:765)	PCDATA	$1, $-1
	0x0036 00054 (/home/xzl/work/golang-1.22/golang-1.22/test/codegen/mathbits.go:765)	PCDATA	$0, $-2
	0x0036 00054 (/home/xzl/work/golang-1.22/golang-1.22/test/codegen/mathbits.go:765)	MOVQ	AX, 8(SP)
	0x003b 00059 (/home/xzl/work/golang-1.22/golang-1.22/test/codegen/mathbits.go:765)	MOVQ	BX, 16(SP)
	0x0040 00064 (/home/xzl/work/golang-1.22/golang-1.22/test/codegen/mathbits.go:765)	CALL	runtime.morestack_noctxt(SB)
	0x0045 00069 (/home/xzl/work/golang-1.22/golang-1.22/test/codegen/mathbits.go:765)	PCDATA	$0, $-1
	0x0045 00069 (/home/xzl/work/golang-1.22/golang-1.22/test/codegen/mathbits.go:765)	MOVQ	8(SP), AX
	0x004a 00074 (/home/xzl/work/golang-1.22/golang-1.22/test/codegen/mathbits.go:765)	MOVQ	16(SP), BX
	0x004f 00079 (/home/xzl/work/golang-1.22/golang-1.22/test/codegen/mathbits.go:765)	JMP	0
	0x0000 49 3b 66 10 76 30 55 48 89 e5 48 83 ec 10 48 29  I;f.v0UH..H...H)
	0x0010 d8 48 19 c9 48 f7 d9 48 85 c9 77 06 48 83 c4 10  .H..H..H..w.H...
	0x0020 5d c3 48 8d 05 00 00 00 00 48 8d 1d 00 00 00 00  ].H......H......
	0x0030 e8 00 00 00 00 90 48 89 44 24 08 48 89 5c 24 10  ......H.D$.H.\$.
	0x0040 e8 00 00 00 00 48 8b 44 24 08 48 8b 5c 24 10 eb  .....H.D$.H.\$..
	0x0050 af                                               .
	rel 2+0 t=R_USEIFACE type:string<0>+0
	rel 37+4 t=R_PCREL type:string<0>+0
	rel 44+4 t=R_PCREL command-line-arguments..stmp_8<0>+0
	rel 49+4 t=R_CALL runtime.gopanic<1>+0
	rel 65+4 t=R_CALL runtime.morestack_noctxt<0>+0
command-line-arguments.Sub64MPanicOnOverflowEQ<1> STEXT size=103 args=0x30 locals=0x18 funcid=0x0 align=0x0
	0x0000 00000 (/home/xzl/work/golang-1.22/golang-1.22/test/codegen/mathbits.go:774)	TEXT	command-line-arguments.Sub64MPanicOnOverflowEQ(SB), ABIInternal, $24-48
	0x0000 00000 (/home/xzl/work/golang-1.22/golang-1.22/test/codegen/mathbits.go:774)	CMPQ	SP, 16(R14)
	0x0004 00004 (/home/xzl/work/golang-1.22/golang-1.22/test/codegen/mathbits.go:774)	PCDATA	$0, $-2
	0x0004 00004 (/home/xzl/work/golang-1.22/golang-1.22/test/codegen/mathbits.go:774)	JLS	94
	0x0006 00006 (/home/xzl/work/golang-1.22/golang-1.22/test/codegen/mathbits.go:774)	PCDATA	$0, $-1
	0x0006 00006 (/home/xzl/work/golang-1.22/golang-1.22/test/codegen/mathbits.go:774)	PUSHQ	BP
	0x0007 00007 (/home/xzl/work/golang-1.22/golang-1.22/test/codegen/mathbits.go:774)	MOVQ	SP, BP
	0x000a 00010 (/home/xzl/work/golang-1.22/golang-1.22/test/codegen/mathbits.go:774)	SUBQ	$16, SP
	0x000e 00014 (/home/xzl/work/golang-1.22/golang-1.22/test/codegen/mathbits.go:774)	FUNCDATA	$0, gclocals·g2BeySu+wFnoycgXfElmcg==(SB)
	0x000e 00014 (/home/xzl/work/golang-1.22/golang-1.22/test/codegen/mathbits.go:774)	FUNCDATA	$1, gclocals·g2BeySu+wFnoycgXfElmcg==(SB)
	0x000e 00014 (/home/xzl/work/golang-1.22/golang-1.22/test/codegen/mathbits.go:774)	FUNCDATA	$5, command-line-arguments.Sub64MPanicOnOverflowEQ.arginfo1(SB)
	0x000e 00014 (/home/xzl/work/golang-1.22/golang-1.22/test/codegen/mathbits.go:774)	MOVUPS	X15, command-line-arguments.~r0+64(SP)
	0x0014 00020 (/home/xzl/work/golang-1.22/golang-1.22/test/codegen/mathbits.go:777)	MOVQ	command-line-arguments.a+32(SP), CX
	0x0019 00025 (/home/xzl/work/golang-1.22/golang-1.22/test/codegen/mathbits.go:777)	MOVQ	command-line-arguments.b+48(SP), DX
	0x001e 00030 (/home/xzl/work/golang-1.22/golang-1.22/test/codegen/mathbits.go:778)	MOVQ	command-line-arguments.a+40(SP), SI
	0x0023 00035 (/home/xzl/work/golang-1.22/golang-1.22/test/codegen/mathbits.go:778)	MOVQ	command-line-arguments.b+56(SP), DI
	0x0028 00040 (/home/xzl/work/golang-1.22/golang-1.22/test/codegen/mathbits.go:777)	SUBQ	DX, CX
	0x002b 00043 (/home/xzl/work/golang-1.22/golang-1.22/test/codegen/mathbits.go:778)	SBBQ	DI, SI
	0x002e 00046 (/home/xzl/work/golang-1.22/golang-1.22/test/codegen/mathbits.go:778)	SBBQ	DX, DX
	0x0031 00049 (/home/xzl/work/golang-1.22/golang-1.22/test/codegen/mathbits.go:778)	NEGQ	DX
	0x0034 00052 (/home/xzl/work/golang-1.22/golang-1.22/test/codegen/mathbits.go:780)	CMPQ	DX, $1
	0x0038 00056 (/home/xzl/work/golang-1.22/golang-1.22/test/codegen/mathbits.go:780)	JEQ	74
	0x003a 00058 (/home/xzl/work/golang-1.22/golang-1.22/test/codegen/mathbits.go:783)	MOVQ	CX, command-line-arguments.~r0+64(SP)
	0x003f 00063 (/home/xzl/work/golang-1.22/golang-1.22/test/codegen/mathbits.go:783)	MOVQ	SI, command-line-arguments.~r0+72(SP)
	0x0044 00068 (/home/xzl/work/golang-1.22/golang-1.22/test/codegen/mathbits.go:783)	ADDQ	$16, SP
	0x0048 00072 (/home/xzl/work/golang-1.22/golang-1.22/test/codegen/mathbits.go:783)	POPQ	BP
	0x0049 00073 (/home/xzl/work/golang-1.22/golang-1.22/test/codegen/mathbits.go:783)	RET
	0x004a 00074 (/home/xzl/work/golang-1.22/golang-1.22/test/codegen/mathbits.go:781)	LEAQ	type:string(SB), AX
	0x0051 00081 (/home/xzl/work/golang-1.22/golang-1.22/test/codegen/mathbits.go:781)	LEAQ	command-line-arguments..stmp_9(SB), BX
	0x0058 00088 (/home/xzl/work/golang-1.22/golang-1.22/test/codegen/mathbits.go:781)	PCDATA	$1, $0
	0x0058 00088 (/home/xzl/work/golang-1.22/golang-1.22/test/codegen/mathbits.go:781)	CALL	runtime.gopanic(SB)
	0x005d 00093 (/home/xzl/work/golang-1.22/golang-1.22/test/codegen/mathbits.go:781)	XCHGL	AX, AX
	0x005e 00094 (/home/xzl/work/golang-1.22/golang-1.22/test/codegen/mathbits.go:781)	NOP
	0x005e 00094 (/home/xzl/work/golang-1.22/golang-1.22/test/codegen/mathbits.go:774)	PCDATA	$1, $-1
	0x005e 00094 (/home/xzl/work/golang-1.22/golang-1.22/test/codegen/mathbits.go:774)	PCDATA	$0, $-2
	0x005e 00094 (/home/xzl/work/golang-1.22/golang-1.22/test/codegen/mathbits.go:774)	NOP
	0x0060 00096 (/home/xzl/work/golang-1.22/golang-1.22/test/codegen/mathbits.go:774)	CALL	runtime.morestack_noctxt(SB)
	0x0065 00101 (/home/xzl/work/golang-1.22/golang-1.22/test/codegen/mathbits.go:774)	PCDATA	$0, $-1
	0x0065 00101 (/home/xzl/work/golang-1.22/golang-1.22/test/codegen/mathbits.go:774)	JMP	0
	0x0000 49 3b 66 10 76 58 55 48 89 e5 48 83 ec 10 44 0f  I;f.vXUH..H...D.
	0x0010 11 7c 24 40 48 8b 4c 24 20 48 8b 54 24 30 48 8b  .|$@H.L$ H.T$0H.
	0x0020 74 24 28 48 8b 7c 24 38 48 29 d1 48 19 fe 48 19  t$(H.|$8H).H..H.
	0x0030 d2 48 f7 da 48 83 fa 01 74 10 48 89 4c 24 40 48  .H..H...t.H.L$@H
	0x0040 89 74 24 48 48 83 c4 10 5d c3 48 8d 05 00 00 00  .t$HH...].H.....
	0x0050 00 48 8d 1d 00 00 00 00 e8 00 00 00 00 90 66 90  .H............f.
	0x0060 e8 00 00 00 00 eb 99                             .......
	rel 2+0 t=R_USEIFACE type:string<0>+0
	rel 77+4 t=R_PCREL type:string<0>+0
	rel 84+4 t=R_PCREL command-line-arguments..stmp_9<0>+0
	rel 89+4 t=R_CALL runtime.gopanic<1>+0
	rel 97+4 t=R_CALL runtime.morestack_noctxt<0>+0
command-line-arguments.Sub64MPanicOnOverflowNE<1> STEXT size=103 args=0x30 locals=0x18 funcid=0x0 align=0x0
	0x0000 00000 (/home/xzl/work/golang-1.22/golang-1.22/test/codegen/mathbits.go:786)	TEXT	command-line-arguments.Sub64MPanicOnOverflowNE(SB), ABIInternal, $24-48
	0x0000 00000 (/home/xzl/work/golang-1.22/golang-1.22/test/codegen/mathbits.go:786)	CMPQ	SP, 16(R14)
	0x0004 00004 (/home/xzl/work/golang-1.22/golang-1.22/test/codegen/mathbits.go:786)	PCDATA	$0, $-2
	0x0004 00004 (/home/xzl/work/golang-1.22/golang-1.22/test/codegen/mathbits.go:786)	JLS	93
	0x0006 00006 (/home/xzl/work/golang-1.22/golang-1.22/test/codegen/mathbits.go:786)	PCDATA	$0, $-1
	0x0006 00006 (/home/xzl/work/golang-1.22/golang-1.22/test/codegen/mathbits.go:786)	PUSHQ	BP
	0x0007 00007 (/home/xzl/work/golang-1.22/golang-1.22/test/codegen/mathbits.go:786)	MOVQ	SP, BP
	0x000a 00010 (/home/xzl/work/golang-1.22/golang-1.22/test/codegen/mathbits.go:786)	SUBQ	$16, SP
	0x000e 00014 (/home/xzl/work/golang-1.22/golang-1.22/test/codegen/mathbits.go:786)	FUNCDATA	$0, gclocals·g2BeySu+wFnoycgXfElmcg==(SB)
	0x000e 00014 (/home/xzl/work/golang-1.22/golang-1.22/test/codegen/mathbits.go:786)	FUNCDATA	$1, gclocals·g2BeySu+wFnoycgXfElmcg==(SB)
	0x000e 00014 (/home/xzl/work/golang-1.22/golang-1.22/test/codegen/mathbits.go:786)	FUNCDATA	$5, command-line-arguments.Sub64MPanicOnOverflowNE.arginfo1(SB)
	0x000e 00014 (/home/xzl/work/golang-1.22/golang-1.22/test/codegen/mathbits.go:786)	MOVUPS	X15, command-line-arguments.~r0+64(SP)
	0x0014 00020 (/home/xzl/work/golang-1.22/golang-1.22/test/codegen/mathbits.go:789)	MOVQ	command-line-arguments.a+32(SP), CX
	0x0019 00025 (/home/xzl/work/golang-1.22/golang-1.22/test/codegen/mathbits.go:789)	MOVQ	command-line-arguments.b+48(SP), DX
	0x001e 00030 (/home/xzl/work/golang-1.22/golang-1.22/test/codegen/mathbits.go:790)	MOVQ	command-line-arguments.a+40(SP), SI
	0x0023 00035 (/home/xzl/work/golang-1.22/golang-1.22/test/codegen/mathbits.go:790)	MOVQ	command-line-arguments.b+56(SP), DI
	0x0028 00040 (/home/xzl/work/golang-1.22/golang-1.22/test/codegen/mathbits.go:789)	SUBQ	DX, CX
	0x002b 00043 (/home/xzl/work/golang-1.22/golang-1.22/test/codegen/mathbits.go:790)	SBBQ	DI, SI
	0x002e 00046 (/home/xzl/work/golang-1.22/golang-1.22/test/codegen/mathbits.go:790)	SBBQ	DX, DX
	0x0031 00049 (/home/xzl/work/golang-1.22/golang-1.22/test/codegen/mathbits.go:790)	NEGQ	DX
	0x0034 00052 (/home/xzl/work/golang-1.22/golang-1.22/test/codegen/mathbits.go:792)	TESTQ	DX, DX
	0x0037 00055 (/home/xzl/work/golang-1.22/golang-1.22/test/codegen/mathbits.go:792)	JNE	73
	0x0039 00057 (/home/xzl/work/golang-1.22/golang-1.22/test/codegen/mathbits.go:795)	MOVQ	CX, command-line-arguments.~r0+64(SP)
	0x003e 00062 (/home/xzl/work/golang-1.22/golang-1.22/test/codegen/mathbits.go:795)	MOVQ	SI, command-line-arguments.~r0+72(SP)
	0x0043 00067 (/home/xzl/work/golang-1.22/golang-1.22/test/codegen/mathbits.go:795)	ADDQ	$16, SP
	0x0047 00071 (/home/xzl/work/golang-1.22/golang-1.22/test/codegen/mathbits.go:795)	POPQ	BP
	0x0048 00072 (/home/xzl/work/golang-1.22/golang-1.22/test/codegen/mathbits.go:795)	RET
	0x0049 00073 (/home/xzl/work/golang-1.22/golang-1.22/test/codegen/mathbits.go:793)	LEAQ	type:string(SB), AX
	0x0050 00080 (/home/xzl/work/golang-1.22/golang-1.22/test/codegen/mathbits.go:793)	LEAQ	command-line-arguments..stmp_10(SB), BX
	0x0057 00087 (/home/xzl/work/golang-1.22/golang-1.22/test/codegen/mathbits.go:793)	PCDATA	$1, $0
	0x0057 00087 (/home/xzl/work/golang-1.22/golang-1.22/test/codegen/mathbits.go:793)	CALL	runtime.gopanic(SB)
	0x005c 00092 (/home/xzl/work/golang-1.22/golang-1.22/test/codegen/mathbits.go:793)	XCHGL	AX, AX
	0x005d 00093 (/home/xzl/work/golang-1.22/golang-1.22/test/codegen/mathbits.go:793)	NOP
	0x005d 00093 (/home/xzl/work/golang-1.22/golang-1.22/test/codegen/mathbits.go:786)	PCDATA	$1, $-1
	0x005d 00093 (/home/xzl/work/golang-1.22/golang-1.22/test/codegen/mathbits.go:786)	PCDATA	$0, $-2
	0x005d 00093 (/home/xzl/work/golang-1.22/golang-1.22/test/codegen/mathbits.go:786)	NOP
	0x0060 00096 (/home/xzl/work/golang-1.22/golang-1.22/test/codegen/mathbits.go:786)	CALL	runtime.morestack_noctxt(SB)
	0x0065 00101 (/home/xzl/work/golang-1.22/golang-1.22/test/codegen/mathbits.go:786)	PCDATA	$0, $-1
	0x0065 00101 (/home/xzl/work/golang-1.22/golang-1.22/test/codegen/mathbits.go:786)	JMP	0
	0x0000 49 3b 66 10 76 57 55 48 89 e5 48 83 ec 10 44 0f  I;f.vWUH..H...D.
	0x0010 11 7c 24 40 48 8b 4c 24 20 48 8b 54 24 30 48 8b  .|$@H.L$ H.T$0H.
	0x0020 74 24 28 48 8b 7c 24 38 48 29 d1 48 19 fe 48 19  t$(H.|$8H).H..H.
	0x0030 d2 48 f7 da 48 85 d2 75 10 48 89 4c 24 40 48 89  .H..H..u.H.L$@H.
	0x0040 74 24 48 48 83 c4 10 5d c3 48 8d 05 00 00 00 00  t$HH...].H......
	0x0050 48 8d 1d 00 00 00 00 e8 00 00 00 00 90 0f 1f 00  H...............
	0x0060 e8 00 00 00 00 eb 99                             .......
	rel 2+0 t=R_USEIFACE type:string<0>+0
	rel 76+4 t=R_PCREL type:string<0>+0
	rel 83+4 t=R_PCREL command-line-arguments..stmp_10<0>+0
	rel 88+4 t=R_CALL runtime.gopanic<1>+0
	rel 97+4 t=R_CALL runtime.morestack_noctxt<0>+0
command-line-arguments.Sub64MPanicOnOverflowGT<1> STEXT size=103 args=0x30 locals=0x18 funcid=0x0 align=0x0
	0x0000 00000 (/home/xzl/work/golang-1.22/golang-1.22/test/codegen/mathbits.go:798)	TEXT	command-line-arguments.Sub64MPanicOnOverflowGT(SB), ABIInternal, $24-48
	0x0000 00000 (/home/xzl/work/golang-1.22/golang-1.22/test/codegen/mathbits.go:798)	CMPQ	SP, 16(R14)
	0x0004 00004 (/home/xzl/work/golang-1.22/golang-1.22/test/codegen/mathbits.go:798)	PCDATA	$0, $-2
	0x0004 00004 (/home/xzl/work/golang-1.22/golang-1.22/test/codegen/mathbits.go:798)	JLS	93
	0x0006 00006 (/home/xzl/work/golang-1.22/golang-1.22/test/codegen/mathbits.go:798)	PCDATA	$0, $-1
	0x0006 00006 (/home/xzl/work/golang-1.22/golang-1.22/test/codegen/mathbits.go:798)	PUSHQ	BP
	0x0007 00007 (/home/xzl/work/golang-1.22/golang-1.22/test/codegen/mathbits.go:798)	MOVQ	SP, BP
	0x000a 00010 (/home/xzl/work/golang-1.22/golang-1.22/test/codegen/mathbits.go:798)	SUBQ	$16, SP
	0x000e 00014 (/home/xzl/work/golang-1.22/golang-1.22/test/codegen/mathbits.go:798)	FUNCDATA	$0, gclocals·g2BeySu+wFnoycgXfElmcg==(SB)
	0x000e 00014 (/home/xzl/work/golang-1.22/golang-1.22/test/codegen/mathbits.go:798)	FUNCDATA	$1, gclocals·g2BeySu+wFnoycgXfElmcg==(SB)
	0x000e 00014 (/home/xzl/work/golang-1.22/golang-1.22/test/codegen/mathbits.go:798)	FUNCDATA	$5, command-line-arguments.Sub64MPanicOnOverflowGT.arginfo1(SB)
	0x000e 00014 (/home/xzl/work/golang-1.22/golang-1.22/test/codegen/mathbits.go:798)	MOVUPS	X15, command-line-arguments.~r0+64(SP)
	0x0014 00020 (/home/xzl/work/golang-1.22/golang-1.22/test/codegen/mathbits.go:801)	MOVQ	command-line-arguments.a+32(SP), CX
	0x0019 00025 (/home/xzl/work/golang-1.22/golang-1.22/test/codegen/mathbits.go:801)	MOVQ	command-line-arguments.b+48(SP), DX
	0x001e 00030 (/home/xzl/work/golang-1.22/golang-1.22/test/codegen/mathbits.go:802)	MOVQ	command-line-arguments.a+40(SP), SI
	0x0023 00035 (/home/xzl/work/golang-1.22/golang-1.22/test/codegen/mathbits.go:802)	MOVQ	command-line-arguments.b+56(SP), DI
	0x0028 00040 (/home/xzl/work/golang-1.22/golang-1.22/test/codegen/mathbits.go:801)	SUBQ	DX, CX
	0x002b 00043 (/home/xzl/work/golang-1.22/golang-1.22/test/codegen/mathbits.go:802)	SBBQ	DI, SI
	0x002e 00046 (/home/xzl/work/golang-1.22/golang-1.22/test/codegen/mathbits.go:802)	SBBQ	DX, DX
	0x0031 00049 (/home/xzl/work/golang-1.22/golang-1.22/test/codegen/mathbits.go:802)	NEGQ	DX
	0x0034 00052 (/home/xzl/work/golang-1.22/golang-1.22/test/codegen/mathbits.go:804)	TESTQ	DX, DX
	0x0037 00055 (/home/xzl/work/golang-1.22/golang-1.22/test/codegen/mathbits.go:804)	JHI	73
	0x0039 00057 (/home/xzl/work/golang-1.22/golang-1.22/test/codegen/mathbits.go:807)	MOVQ	CX, command-line-arguments.~r0+64(SP)
	0x003e 00062 (/home/xzl/work/golang-1.22/golang-1.22/test/codegen/mathbits.go:807)	MOVQ	SI, command-line-arguments.~r0+72(SP)
	0x0043 00067 (/home/xzl/work/golang-1.22/golang-1.22/test/codegen/mathbits.go:807)	ADDQ	$16, SP
	0x0047 00071 (/home/xzl/work/golang-1.22/golang-1.22/test/codegen/mathbits.go:807)	POPQ	BP
	0x0048 00072 (/home/xzl/work/golang-1.22/golang-1.22/test/codegen/mathbits.go:807)	RET
	0x0049 00073 (/home/xzl/work/golang-1.22/golang-1.22/test/codegen/mathbits.go:805)	LEAQ	type:string(SB), AX
	0x0050 00080 (/home/xzl/work/golang-1.22/golang-1.22/test/codegen/mathbits.go:805)	LEAQ	command-line-arguments..stmp_11(SB), BX
	0x0057 00087 (/home/xzl/work/golang-1.22/golang-1.22/test/codegen/mathbits.go:805)	PCDATA	$1, $0
	0x0057 00087 (/home/xzl/work/golang-1.22/golang-1.22/test/codegen/mathbits.go:805)	CALL	runtime.gopanic(SB)
	0x005c 00092 (/home/xzl/work/golang-1.22/golang-1.22/test/codegen/mathbits.go:805)	XCHGL	AX, AX
	0x005d 00093 (/home/xzl/work/golang-1.22/golang-1.22/test/codegen/mathbits.go:805)	NOP
	0x005d 00093 (/home/xzl/work/golang-1.22/golang-1.22/test/codegen/mathbits.go:798)	PCDATA	$1, $-1
	0x005d 00093 (/home/xzl/work/golang-1.22/golang-1.22/test/codegen/mathbits.go:798)	PCDATA	$0, $-2
	0x005d 00093 (/home/xzl/work/golang-1.22/golang-1.22/test/codegen/mathbits.go:798)	NOP
	0x0060 00096 (/home/xzl/work/golang-1.22/golang-1.22/test/codegen/mathbits.go:798)	CALL	runtime.morestack_noctxt(SB)
	0x0065 00101 (/home/xzl/work/golang-1.22/golang-1.22/test/codegen/mathbits.go:798)	PCDATA	$0, $-1
	0x0065 00101 (/home/xzl/work/golang-1.22/golang-1.22/test/codegen/mathbits.go:798)	JMP	0
	0x0000 49 3b 66 10 76 57 55 48 89 e5 48 83 ec 10 44 0f  I;f.vWUH..H...D.
	0x0010 11 7c 24 40 48 8b 4c 24 20 48 8b 54 24 30 48 8b  .|$@H.L$ H.T$0H.
	0x0020 74 24 28 48 8b 7c 24 38 48 29 d1 48 19 fe 48 19  t$(H.|$8H).H..H.
	0x0030 d2 48 f7 da 48 85 d2 77 10 48 89 4c 24 40 48 89  .H..H..w.H.L$@H.
	0x0040 74 24 48 48 83 c4 10 5d c3 48 8d 05 00 00 00 00  t$HH...].H......
	0x0050 48 8d 1d 00 00 00 00 e8 00 00 00 00 90 0f 1f 00  H...............
	0x0060 e8 00 00 00 00 eb 99                             .......
	rel 2+0 t=R_USEIFACE type:string<0>+0
	rel 76+4 t=R_PCREL type:string<0>+0
	rel 83+4 t=R_PCREL command-line-arguments..stmp_11<0>+0
	rel 88+4 t=R_CALL runtime.gopanic<1>+0
	rel 97+4 t=R_CALL runtime.morestack_noctxt<0>+0
command-line-arguments.Mul<1> STEXT nosplit size=10 args=0x10 locals=0x0 funcid=0x0 align=0x0
	0x0000 00000 (/home/xzl/work/golang-1.22/golang-1.22/test/codegen/mathbits.go:814)	TEXT	command-line-arguments.Mul(SB), NOSPLIT|NOFRAME|ABIInternal, $0-16
	0x0000 00000 (/home/xzl/work/golang-1.22/golang-1.22/test/codegen/mathbits.go:814)	FUNCDATA	$0, gclocals·g2BeySu+wFnoycgXfElmcg==(SB)
	0x0000 00000 (/home/xzl/work/golang-1.22/golang-1.22/test/codegen/mathbits.go:814)	FUNCDATA	$1, gclocals·g2BeySu+wFnoycgXfElmcg==(SB)
	0x0000 00000 (/home/xzl/work/golang-1.22/golang-1.22/test/codegen/mathbits.go:814)	FUNCDATA	$5, command-line-arguments.Mul.arginfo1(SB)
	0x0000 00000 (/home/xzl/work/golang-1.22/golang-1.22/test/codegen/mathbits.go:814)	FUNCDATA	$6, command-line-arguments.Mul.argliveinfo(SB)
	0x0000 00000 (/home/xzl/work/golang-1.22/golang-1.22/test/codegen/mathbits.go:814)	PCDATA	$3, $1
	0x0000 00000 (/home/xzl/work/golang-1.22/golang-1.22/test/codegen/mathbits.go:820)	MULQ	BX
	0x0003 00003 (/home/xzl/work/golang-1.22/golang-1.22/test/codegen/mathbits.go:820)	MOVQ	AX, BX
	0x0006 00006 (/home/xzl/work/golang-1.22/golang-1.22/test/codegen/mathbits.go:820)	MOVQ	DX, AX
	0x0009 00009 (/home/xzl/work/golang-1.22/golang-1.22/test/codegen/mathbits.go:820)	RET
	0x0000 48 f7 e3 48 89 c3 48 89 d0 c3                    H..H..H...
command-line-arguments.Mul64<1> STEXT nosplit size=10 args=0x10 locals=0x0 funcid=0x0 align=0x0
	0x0000 00000 (/home/xzl/work/golang-1.22/golang-1.22/test/codegen/mathbits.go:823)	TEXT	command-line-arguments.Mul64(SB), NOSPLIT|NOFRAME|ABIInternal, $0-16
	0x0000 00000 (/home/xzl/work/golang-1.22/golang-1.22/test/codegen/mathbits.go:823)	FUNCDATA	$0, gclocals·g2BeySu+wFnoycgXfElmcg==(SB)
	0x0000 00000 (/home/xzl/work/golang-1.22/golang-1.22/test/codegen/mathbits.go:823)	FUNCDATA	$1, gclocals·g2BeySu+wFnoycgXfElmcg==(SB)
	0x0000 00000 (/home/xzl/work/golang-1.22/golang-1.22/test/codegen/mathbits.go:823)	FUNCDATA	$5, command-line-arguments.Mul64.arginfo1(SB)
	0x0000 00000 (/home/xzl/work/golang-1.22/golang-1.22/test/codegen/mathbits.go:823)	FUNCDATA	$6, command-line-arguments.Mul64.argliveinfo(SB)
	0x0000 00000 (/home/xzl/work/golang-1.22/golang-1.22/test/codegen/mathbits.go:823)	PCDATA	$3, $1
	0x0000 00000 (/home/xzl/work/golang-1.22/golang-1.22/test/codegen/mathbits.go:830)	MULQ	BX
	0x0003 00003 (/home/xzl/work/golang-1.22/golang-1.22/test/codegen/mathbits.go:830)	MOVQ	AX, BX
	0x0006 00006 (/home/xzl/work/golang-1.22/golang-1.22/test/codegen/mathbits.go:830)	MOVQ	DX, AX
	0x0009 00009 (/home/xzl/work/golang-1.22/golang-1.22/test/codegen/mathbits.go:830)	RET
	0x0000 48 f7 e3 48 89 c3 48 89 d0 c3                    H..H..H...
command-line-arguments.Mul64HiOnly<1> STEXT nosplit size=7 args=0x10 locals=0x0 funcid=0x0 align=0x0
	0x0000 00000 (/home/xzl/work/golang-1.22/golang-1.22/test/codegen/mathbits.go:833)	TEXT	command-line-arguments.Mul64HiOnly(SB), NOSPLIT|NOFRAME|ABIInternal, $0-16
	0x0000 00000 (/home/xzl/work/golang-1.22/golang-1.22/test/codegen/mathbits.go:833)	FUNCDATA	$0, gclocals·g2BeySu+wFnoycgXfElmcg==(SB)
	0x0000 00000 (/home/xzl/work/golang-1.22/golang-1.22/test/codegen/mathbits.go:833)	FUNCDATA	$1, gclocals·g2BeySu+wFnoycgXfElmcg==(SB)
	0x0000 00000 (/home/xzl/work/golang-1.22/golang-1.22/test/codegen/mathbits.go:833)	FUNCDATA	$5, command-line-arguments.Mul64HiOnly.arginfo1(SB)
	0x0000 00000 (/home/xzl/work/golang-1.22/golang-1.22/test/codegen/mathbits.go:833)	FUNCDATA	$6, command-line-arguments.Mul64HiOnly.argliveinfo(SB)
	0x0000 00000 (/home/xzl/work/golang-1.22/golang-1.22/test/codegen/mathbits.go:833)	PCDATA	$3, $1
	0x0000 00000 (/home/xzl/work/golang-1.22/golang-1.22/test/codegen/mathbits.go:836)	MULQ	BX
	0x0003 00003 (/home/xzl/work/golang-1.22/golang-1.22/test/codegen/mathbits.go:837)	MOVQ	DX, AX
	0x0006 00006 (/home/xzl/work/golang-1.22/golang-1.22/test/codegen/mathbits.go:837)	RET
	0x0000 48 f7 e3 48 89 d0 c3                             H..H...
command-line-arguments.Mul64LoOnly<1> STEXT nosplit size=4 args=0x10 locals=0x0 funcid=0x0 align=0x0
	0x0000 00000 (/home/xzl/work/golang-1.22/golang-1.22/test/codegen/mathbits.go:840)	TEXT	command-line-arguments.Mul64LoOnly(SB), NOSPLIT|NOFRAME|ABIInternal, $0-16
	0x0000 00000 (/home/xzl/work/golang-1.22/golang-1.22/test/codegen/mathbits.go:840)	FUNCDATA	$0, gclocals·g2BeySu+wFnoycgXfElmcg==(SB)
	0x0000 00000 (/home/xzl/work/golang-1.22/golang-1.22/test/codegen/mathbits.go:840)	FUNCDATA	$1, gclocals·g2BeySu+wFnoycgXfElmcg==(SB)
	0x0000 00000 (/home/xzl/work/golang-1.22/golang-1.22/test/codegen/mathbits.go:840)	FUNCDATA	$5, command-line-arguments.Mul64LoOnly.arginfo1(SB)
	0x0000 00000 (/home/xzl/work/golang-1.22/golang-1.22/test/codegen/mathbits.go:840)	FUNCDATA	$6, command-line-arguments.Mul64LoOnly.argliveinfo(SB)
	0x0000 00000 (/home/xzl/work/golang-1.22/golang-1.22/test/codegen/mathbits.go:840)	PCDATA	$3, $1
	0x0000 00000 (/home/xzl/work/golang-1.22/golang-1.22/test/codegen/mathbits.go:843)	MULQ	BX
	0x0003 00003 (/home/xzl/work/golang-1.22/golang-1.22/test/codegen/mathbits.go:844)	RET
	0x0000 48 f7 e3 c3                                      H...
command-line-arguments.Div<1> STEXT size=86 args=0x18 locals=0x8 funcid=0x0 align=0x0
	0x0000 00000 (/home/xzl/work/golang-1.22/golang-1.22/test/codegen/mathbits.go:851)	TEXT	command-line-arguments.Div(SB), ABIInternal, $8-24
	0x0000 00000 (/home/xzl/work/golang-1.22/golang-1.22/test/codegen/mathbits.go:851)	CMPQ	SP, 16(R14)
	0x0004 00004 (/home/xzl/work/golang-1.22/golang-1.22/test/codegen/mathbits.go:851)	PCDATA	$0, $-2
	0x0004 00004 (/home/xzl/work/golang-1.22/golang-1.22/test/codegen/mathbits.go:851)	JLS	45
	0x0006 00006 (/home/xzl/work/golang-1.22/golang-1.22/test/codegen/mathbits.go:851)	PCDATA	$0, $-1
	0x0006 00006 (/home/xzl/work/golang-1.22/golang-1.22/test/codegen/mathbits.go:851)	PUSHQ	BP
	0x0007 00007 (/home/xzl/work/golang-1.22/golang-1.22/test/codegen/mathbits.go:851)	MOVQ	SP, BP
	0x000a 00010 (/home/xzl/work/golang-1.22/golang-1.22/test/codegen/mathbits.go:851)	FUNCDATA	$0, gclocals·g2BeySu+wFnoycgXfElmcg==(SB)
	0x000a 00010 (/home/xzl/work/golang-1.22/golang-1.22/test/codegen/mathbits.go:851)	FUNCDATA	$1, gclocals·g2BeySu+wFnoycgXfElmcg==(SB)
	0x000a 00010 (/home/xzl/work/golang-1.22/golang-1.22/test/codegen/mathbits.go:851)	FUNCDATA	$5, command-line-arguments.Div.arginfo1(SB)
	0x000a 00010 (/home/xzl/work/golang-1.22/golang-1.22/test/codegen/mathbits.go:851)	FUNCDATA	$6, command-line-arguments.Div.argliveinfo(SB)
	0x000a 00010 (/home/xzl/work/golang-1.22/golang-1.22/test/codegen/mathbits.go:851)	PCDATA	$3, $1
	0x000a 00010 (/home/xzl/work/golang-1.22/golang-1.22/test/codegen/mathbits.go:853)	TESTQ	CX, CX
	0x000d 00013 (/home/xzl/work/golang-1.22/golang-1.22/test/codegen/mathbits.go:853)	JEQ	39
	0x000f 00015 (/home/xzl/work/golang-1.22/golang-1.22/test/codegen/mathbits.go:853)	CMPQ	CX, AX
	0x0012 00018 (/home/xzl/work/golang-1.22/golang-1.22/test/codegen/mathbits.go:853)	JLS	34
	0x0014 00020 (/home/xzl/work/golang-1.22/golang-1.22/test/codegen/mathbits.go:853)	MOVQ	AX, DX
	0x0017 00023 (/home/xzl/work/golang-1.22/golang-1.22/test/codegen/mathbits.go:853)	MOVQ	BX, AX
	0x001a 00026 (/home/xzl/work/golang-1.22/golang-1.22/test/codegen/mathbits.go:853)	DIVQ	CX
	0x001d 00029 (/home/xzl/work/golang-1.22/golang-1.22/test/codegen/mathbits.go:853)	MOVQ	DX, BX
	0x0020 00032 (/home/xzl/work/golang-1.22/golang-1.22/test/codegen/mathbits.go:853)	POPQ	BP
	0x0021 00033 (/home/xzl/work/golang-1.22/golang-1.22/test/codegen/mathbits.go:853)	RET
	0x0022 00034 (/home/xzl/work/golang-1.22/golang-1.22/test/codegen/mathbits.go:853)	PCDATA	$1, $0
	0x0022 00034 (/home/xzl/work/golang-1.22/golang-1.22/test/codegen/mathbits.go:853)	CALL	runtime.panicoverflow(SB)
	0x0027 00039 (/home/xzl/work/golang-1.22/golang-1.22/test/codegen/mathbits.go:853)	CALL	runtime.panicdivide(SB)
	0x002c 00044 (/home/xzl/work/golang-1.22/golang-1.22/test/codegen/mathbits.go:853)	XCHGL	AX, AX
	0x002d 00045 (/home/xzl/work/golang-1.22/golang-1.22/test/codegen/mathbits.go:853)	NOP
	0x002d 00045 (/home/xzl/work/golang-1.22/golang-1.22/test/codegen/mathbits.go:851)	PCDATA	$1, $-1
	0x002d 00045 (/home/xzl/work/golang-1.22/golang-1.22/test/codegen/mathbits.go:851)	PCDATA	$0, $-2
	0x002d 00045 (/home/xzl/work/golang-1.22/golang-1.22/test/codegen/mathbits.go:851)	MOVQ	AX, 8(SP)
	0x0032 00050 (/home/xzl/work/golang-1.22/golang-1.22/test/codegen/mathbits.go:851)	MOVQ	BX, 16(SP)
	0x0037 00055 (/home/xzl/work/golang-1.22/golang-1.22/test/codegen/mathbits.go:851)	MOVQ	CX, 24(SP)
	0x003c 00060 (/home/xzl/work/golang-1.22/golang-1.22/test/codegen/mathbits.go:851)	NOP
	0x0040 00064 (/home/xzl/work/golang-1.22/golang-1.22/test/codegen/mathbits.go:851)	CALL	runtime.morestack_noctxt(SB)
	0x0045 00069 (/home/xzl/work/golang-1.22/golang-1.22/test/codegen/mathbits.go:851)	PCDATA	$0, $-1
	0x0045 00069 (/home/xzl/work/golang-1.22/golang-1.22/test/codegen/mathbits.go:851)	MOVQ	8(SP), AX
	0x004a 00074 (/home/xzl/work/golang-1.22/golang-1.22/test/codegen/mathbits.go:851)	MOVQ	16(SP), BX
	0x004f 00079 (/home/xzl/work/golang-1.22/golang-1.22/test/codegen/mathbits.go:851)	MOVQ	24(SP), CX
	0x0054 00084 (/home/xzl/work/golang-1.22/golang-1.22/test/codegen/mathbits.go:851)	JMP	0
	0x0000 49 3b 66 10 76 27 55 48 89 e5 48 85 c9 74 18 48  I;f.v'UH..H..t.H
	0x0010 39 c1 76 0e 48 89 c2 48 89 d8 48 f7 f1 48 89 d3  9.v.H..H..H..H..
	0x0020 5d c3 e8 00 00 00 00 e8 00 00 00 00 90 48 89 44  ]............H.D
	0x0030 24 08 48 89 5c 24 10 48 89 4c 24 18 0f 1f 40 00  $.H.\$.H.L$...@.
	0x0040 e8 00 00 00 00 48 8b 44 24 08 48 8b 5c 24 10 48  .....H.D$.H.\$.H
	0x0050 8b 4c 24 18 eb aa                                .L$...
	rel 35+4 t=R_CALL runtime.panicoverflow<1>+0
	rel 40+4 t=R_CALL runtime.panicdivide<1>+0
	rel 65+4 t=R_CALL runtime.morestack_noctxt<0>+0
command-line-arguments.Div32<1> STEXT size=122 args=0x10 locals=0x18 funcid=0x0 align=0x0
	0x0000 00000 (/home/xzl/work/golang-1.22/golang-1.22/test/codegen/mathbits.go:856)	TEXT	command-line-arguments.Div32(SB), ABIInternal, $24-16
	0x0000 00000 (/home/xzl/work/golang-1.22/golang-1.22/test/codegen/mathbits.go:856)	CMPQ	SP, 16(R14)
	0x0004 00004 (/home/xzl/work/golang-1.22/golang-1.22/test/codegen/mathbits.go:856)	PCDATA	$0, $-2
	0x0004 00004 (/home/xzl/work/golang-1.22/golang-1.22/test/codegen/mathbits.go:856)	JLS	91
	0x0006 00006 (/home/xzl/work/golang-1.22/golang-1.22/test/codegen/mathbits.go:856)	PCDATA	$0, $-1
	0x0006 00006 (/home/xzl/work/golang-1.22/golang-1.22/test/codegen/mathbits.go:856)	PUSHQ	BP
	0x0007 00007 (/home/xzl/work/golang-1.22/golang-1.22/test/codegen/mathbits.go:856)	MOVQ	SP, BP
	0x000a 00010 (/home/xzl/work/golang-1.22/golang-1.22/test/codegen/mathbits.go:856)	SUBQ	$16, SP
	0x000e 00014 (/home/xzl/work/golang-1.22/golang-1.22/test/codegen/mathbits.go:856)	FUNCDATA	$0, gclocals·g2BeySu+wFnoycgXfElmcg==(SB)
	0x000e 00014 (/home/xzl/work/golang-1.22/golang-1.22/test/codegen/mathbits.go:856)	FUNCDATA	$1, gclocals·g2BeySu+wFnoycgXfElmcg==(SB)
	0x000e 00014 (/home/xzl/work/golang-1.22/golang-1.22/test/codegen/mathbits.go:856)	FUNCDATA	$5, command-line-arguments.Div32.arginfo1(SB)
	0x000e 00014 (/home/xzl/work/golang-1.22/golang-1.22/test/codegen/mathbits.go:856)	FUNCDATA	$6, command-line-arguments.Div32.argliveinfo(SB)
	0x000e 00014 (/home/xzl/work/golang-1.22/golang-1.22/test/codegen/mathbits.go:856)	PCDATA	$3, $1
	0x000e 00014 (<unknown line number>)	NOP
	0x000e 00014 (/home/xzl/work/golang-1.22/golang-1.22/test/codegen/mathbits.go:858)	TESTL	CX, CX
	0x0010 00016 (/home/xzl/work/golang-1.22/golang-1.22/test/codegen/mathbits.go:858)	JEQ	22
	0x0012 00018 (/home/xzl/work/golang-1.22/golang-1.22/test/codegen/mathbits.go:858)	CMPL	CX, AX
	0x0014 00020 (/home/xzl/work/golang-1.22/golang-1.22/test/codegen/mathbits.go:858)	JLS	59
	0x0016 00022 (/home/xzl/work/golang-1.22/golang-1.22/test/codegen/mathbits.go:858)	MOVL	AX, AX
	0x0018 00024 (/home/xzl/work/golang-1.22/golang-1.22/test/codegen/mathbits.go:858)	SHLQ	$32, AX
	0x001c 00028 (/home/xzl/work/golang-1.22/golang-1.22/test/codegen/mathbits.go:858)	MOVL	BX, DX
	0x001e 00030 (/home/xzl/work/golang-1.22/golang-1.22/test/codegen/mathbits.go:858)	MOVL	CX, CX
	0x0020 00032 (/home/xzl/work/golang-1.22/golang-1.22/test/codegen/mathbits.go:858)	ORQ	DX, AX
	0x0023 00035 (/home/xzl/work/golang-1.22/golang-1.22/test/codegen/mathbits.go:858)	TESTQ	CX, CX
	0x0026 00038 (/home/xzl/work/golang-1.22/golang-1.22/test/codegen/mathbits.go:858)	JEQ	54
	0x0028 00040 (/home/xzl/work/golang-1.22/golang-1.22/test/codegen/mathbits.go:858)	XORL	DX, DX
	0x002a 00042 (/home/xzl/work/golang-1.22/golang-1.22/test/codegen/mathbits.go:858)	DIVQ	CX
	0x002d 00045 (/home/xzl/work/golang-1.22/golang-1.22/test/codegen/mathbits.go:858)	MOVQ	DX, BX
	0x0030 00048 (/home/xzl/work/golang-1.22/golang-1.22/test/codegen/mathbits.go:858)	ADDQ	$16, SP
	0x0034 00052 (/home/xzl/work/golang-1.22/golang-1.22/test/codegen/mathbits.go:858)	POPQ	BP
	0x0035 00053 (/home/xzl/work/golang-1.22/golang-1.22/test/codegen/mathbits.go:858)	RET
	0x0036 00054 (/home/xzl/work/golang-1.22/golang-1.22/test/codegen/mathbits.go:858)	PCDATA	$1, $0
	0x0036 00054 (/home/xzl/work/golang-1.22/golang-1.22/test/codegen/mathbits.go:858)	CALL	runtime.panicdivide(SB)
	0x003b 00059 (/home/xzl/work/golang-1.22/golang-1.22/test/codegen/mathbits.go:858)	MOVQ	runtime.overflowError(SB), CX
	0x0042 00066 (/home/xzl/work/golang-1.22/golang-1.22/test/codegen/mathbits.go:858)	TESTQ	CX, CX
	0x0045 00069 (/home/xzl/work/golang-1.22/golang-1.22/test/codegen/mathbits.go:858)	JEQ	75
	0x0047 00071 (/home/xzl/work/golang-1.22/golang-1.22/test/codegen/mathbits.go:858)	MOVQ	8(CX), CX
	0x004b 00075 (/home/xzl/work/golang-1.22/golang-1.22/test/codegen/mathbits.go:858)	MOVQ	runtime.overflowError+8(SB), BX
	0x0052 00082 (/home/xzl/work/golang-1.22/golang-1.22/test/codegen/mathbits.go:858)	MOVQ	CX, AX
	0x0055 00085 (/home/xzl/work/golang-1.22/golang-1.22/test/codegen/mathbits.go:858)	CALL	runtime.gopanic(SB)
	0x005a 00090 (/home/xzl/work/golang-1.22/golang-1.22/test/codegen/mathbits.go:858)	XCHGL	AX, AX
	0x005b 00091 (/home/xzl/work/golang-1.22/golang-1.22/test/codegen/mathbits.go:858)	NOP
	0x005b 00091 (/home/xzl/work/golang-1.22/golang-1.22/test/codegen/mathbits.go:856)	PCDATA	$1, $-1
	0x005b 00091 (/home/xzl/work/golang-1.22/golang-1.22/test/codegen/mathbits.go:856)	PCDATA	$0, $-2
	0x005b 00091 (/home/xzl/work/golang-1.22/golang-1.22/test/codegen/mathbits.go:856)	MOVL	AX, 8(SP)
	0x005f 00095 (/home/xzl/work/golang-1.22/golang-1.22/test/codegen/mathbits.go:856)	MOVL	BX, 12(SP)
	0x0063 00099 (/home/xzl/work/golang-1.22/golang-1.22/test/codegen/mathbits.go:856)	MOVL	CX, 16(SP)
	0x0067 00103 (/home/xzl/work/golang-1.22/golang-1.22/test/codegen/mathbits.go:856)	CALL	runtime.morestack_noctxt(SB)
	0x006c 00108 (/home/xzl/work/golang-1.22/golang-1.22/test/codegen/mathbits.go:856)	PCDATA	$0, $-1
	0x006c 00108 (/home/xzl/work/golang-1.22/golang-1.22/test/codegen/mathbits.go:856)	MOVL	8(SP), AX
	0x0070 00112 (/home/xzl/work/golang-1.22/golang-1.22/test/codegen/mathbits.go:856)	MOVL	12(SP), BX
	0x0074 00116 (/home/xzl/work/golang-1.22/golang-1.22/test/codegen/mathbits.go:856)	MOVL	16(SP), CX
	0x0078 00120 (/home/xzl/work/golang-1.22/golang-1.22/test/codegen/mathbits.go:856)	JMP	0
	0x0000 49 3b 66 10 76 55 55 48 89 e5 48 83 ec 10 85 c9  I;f.vUUH..H.....
	0x0010 74 04 39 c1 76 25 89 c0 48 c1 e0 20 89 da 89 c9  t.9.v%..H.. ....
	0x0020 48 09 d0 48 85 c9 74 0e 31 d2 48 f7 f1 48 89 d3  H..H..t.1.H..H..
	0x0030 48 83 c4 10 5d c3 e8 00 00 00 00 48 8b 0d 00 00  H...]......H....
	0x0040 00 00 48 85 c9 74 04 48 8b 49 08 48 8b 1d 00 00  ..H..t.H.I.H....
	0x0050 00 00 48 89 c8 e8 00 00 00 00 90 89 44 24 08 89  ..H.........D$..
	0x0060 5c 24 0c 89 4c 24 10 e8 00 00 00 00 8b 44 24 08  \$..L$.......D$.
	0x0070 8b 5c 24 0c 8b 4c 24 10 eb 86                    .\$..L$...
	rel 55+4 t=R_CALL runtime.panicdivide<1>+0
	rel 62+4 t=R_PCREL runtime.overflowError<0>+0
	rel 78+4 t=R_PCREL runtime.overflowError<0>+8
	rel 86+4 t=R_CALL runtime.gopanic<1>+0
	rel 104+4 t=R_CALL runtime.morestack_noctxt<0>+0
command-line-arguments.Div64<1> STEXT size=86 args=0x18 locals=0x8 funcid=0x0 align=0x0
	0x0000 00000 (/home/xzl/work/golang-1.22/golang-1.22/test/codegen/mathbits.go:861)	TEXT	command-line-arguments.Div64(SB), ABIInternal, $8-24
	0x0000 00000 (/home/xzl/work/golang-1.22/golang-1.22/test/codegen/mathbits.go:861)	CMPQ	SP, 16(R14)
	0x0004 00004 (/home/xzl/work/golang-1.22/golang-1.22/test/codegen/mathbits.go:861)	PCDATA	$0, $-2
	0x0004 00004 (/home/xzl/work/golang-1.22/golang-1.22/test/codegen/mathbits.go:861)	JLS	45
	0x0006 00006 (/home/xzl/work/golang-1.22/golang-1.22/test/codegen/mathbits.go:861)	PCDATA	$0, $-1
	0x0006 00006 (/home/xzl/work/golang-1.22/golang-1.22/test/codegen/mathbits.go:861)	PUSHQ	BP
	0x0007 00007 (/home/xzl/work/golang-1.22/golang-1.22/test/codegen/mathbits.go:861)	MOVQ	SP, BP
	0x000a 00010 (/home/xzl/work/golang-1.22/golang-1.22/test/codegen/mathbits.go:861)	FUNCDATA	$0, gclocals·g2BeySu+wFnoycgXfElmcg==(SB)
	0x000a 00010 (/home/xzl/work/golang-1.22/golang-1.22/test/codegen/mathbits.go:861)	FUNCDATA	$1, gclocals·g2BeySu+wFnoycgXfElmcg==(SB)
	0x000a 00010 (/home/xzl/work/golang-1.22/golang-1.22/test/codegen/mathbits.go:861)	FUNCDATA	$5, command-line-arguments.Div64.arginfo1(SB)
	0x000a 00010 (/home/xzl/work/golang-1.22/golang-1.22/test/codegen/mathbits.go:861)	FUNCDATA	$6, command-line-arguments.Div64.argliveinfo(SB)
	0x000a 00010 (/home/xzl/work/golang-1.22/golang-1.22/test/codegen/mathbits.go:861)	PCDATA	$3, $1
	0x000a 00010 (/home/xzl/work/golang-1.22/golang-1.22/test/codegen/mathbits.go:863)	TESTQ	CX, CX
	0x000d 00013 (/home/xzl/work/golang-1.22/golang-1.22/test/codegen/mathbits.go:863)	JEQ	39
	0x000f 00015 (/home/xzl/work/golang-1.22/golang-1.22/test/codegen/mathbits.go:863)	CMPQ	CX, AX
	0x0012 00018 (/home/xzl/work/golang-1.22/golang-1.22/test/codegen/mathbits.go:863)	JLS	34
	0x0014 00020 (/home/xzl/work/golang-1.22/golang-1.22/test/codegen/mathbits.go:863)	MOVQ	AX, DX
	0x0017 00023 (/home/xzl/work/golang-1.22/golang-1.22/test/codegen/mathbits.go:863)	MOVQ	BX, AX
	0x001a 00026 (/home/xzl/work/golang-1.22/golang-1.22/test/codegen/mathbits.go:863)	DIVQ	CX
	0x001d 00029 (/home/xzl/work/golang-1.22/golang-1.22/test/codegen/mathbits.go:863)	MOVQ	DX, BX
	0x0020 00032 (/home/xzl/work/golang-1.22/golang-1.22/test/codegen/mathbits.go:863)	POPQ	BP
	0x0021 00033 (/home/xzl/work/golang-1.22/golang-1.22/test/codegen/mathbits.go:863)	RET
	0x0022 00034 (/home/xzl/work/golang-1.22/golang-1.22/test/codegen/mathbits.go:863)	PCDATA	$1, $0
	0x0022 00034 (/home/xzl/work/golang-1.22/golang-1.22/test/codegen/mathbits.go:863)	CALL	runtime.panicoverflow(SB)
	0x0027 00039 (/home/xzl/work/golang-1.22/golang-1.22/test/codegen/mathbits.go:863)	CALL	runtime.panicdivide(SB)
	0x002c 00044 (/home/xzl/work/golang-1.22/golang-1.22/test/codegen/mathbits.go:863)	XCHGL	AX, AX
	0x002d 00045 (/home/xzl/work/golang-1.22/golang-1.22/test/codegen/mathbits.go:863)	NOP
	0x002d 00045 (/home/xzl/work/golang-1.22/golang-1.22/test/codegen/mathbits.go:861)	PCDATA	$1, $-1
	0x002d 00045 (/home/xzl/work/golang-1.22/golang-1.22/test/codegen/mathbits.go:861)	PCDATA	$0, $-2
	0x002d 00045 (/home/xzl/work/golang-1.22/golang-1.22/test/codegen/mathbits.go:861)	MOVQ	AX, 8(SP)
	0x0032 00050 (/home/xzl/work/golang-1.22/golang-1.22/test/codegen/mathbits.go:861)	MOVQ	BX, 16(SP)
	0x0037 00055 (/home/xzl/work/golang-1.22/golang-1.22/test/codegen/mathbits.go:861)	MOVQ	CX, 24(SP)
	0x003c 00060 (/home/xzl/work/golang-1.22/golang-1.22/test/codegen/mathbits.go:861)	NOP
	0x0040 00064 (/home/xzl/work/golang-1.22/golang-1.22/test/codegen/mathbits.go:861)	CALL	runtime.morestack_noctxt(SB)
	0x0045 00069 (/home/xzl/work/golang-1.22/golang-1.22/test/codegen/mathbits.go:861)	PCDATA	$0, $-1
	0x0045 00069 (/home/xzl/work/golang-1.22/golang-1.22/test/codegen/mathbits.go:861)	MOVQ	8(SP), AX
	0x004a 00074 (/home/xzl/work/golang-1.22/golang-1.22/test/codegen/mathbits.go:861)	MOVQ	16(SP), BX
	0x004f 00079 (/home/xzl/work/golang-1.22/golang-1.22/test/codegen/mathbits.go:861)	MOVQ	24(SP), CX
	0x0054 00084 (/home/xzl/work/golang-1.22/golang-1.22/test/codegen/mathbits.go:861)	JMP	0
	0x0000 49 3b 66 10 76 27 55 48 89 e5 48 85 c9 74 18 48  I;f.v'UH..H..t.H
	0x0010 39 c1 76 0e 48 89 c2 48 89 d8 48 f7 f1 48 89 d3  9.v.H..H..H..H..
	0x0020 5d c3 e8 00 00 00 00 e8 00 00 00 00 90 48 89 44  ]............H.D
	0x0030 24 08 48 89 5c 24 10 48 89 4c 24 18 0f 1f 40 00  $.H.\$.H.L$...@.
	0x0040 e8 00 00 00 00 48 8b 44 24 08 48 8b 5c 24 10 48  .....H.D$.H.\$.H
	0x0050 8b 4c 24 18 eb aa                                .L$...
	rel 35+4 t=R_CALL runtime.panicoverflow<1>+0
	rel 40+4 t=R_CALL runtime.panicdivide<1>+0
	rel 65+4 t=R_CALL runtime.morestack_noctxt<0>+0
command-line-arguments.Div64degenerate<1> STEXT nosplit size=34 args=0x8 locals=0x0 funcid=0x0 align=0x0
	0x0000 00000 (/home/xzl/work/golang-1.22/golang-1.22/test/codegen/mathbits.go:866)	TEXT	command-line-arguments.Div64degenerate(SB), NOSPLIT|NOFRAME|ABIInternal, $0-8
	0x0000 00000 (/home/xzl/work/golang-1.22/golang-1.22/test/codegen/mathbits.go:866)	FUNCDATA	$0, gclocals·g2BeySu+wFnoycgXfElmcg==(SB)
	0x0000 00000 (/home/xzl/work/golang-1.22/golang-1.22/test/codegen/mathbits.go:866)	FUNCDATA	$1, gclocals·g2BeySu+wFnoycgXfElmcg==(SB)
	0x0000 00000 (/home/xzl/work/golang-1.22/golang-1.22/test/codegen/mathbits.go:866)	FUNCDATA	$5, command-line-arguments.Div64degenerate.arginfo1(SB)
	0x0000 00000 (/home/xzl/work/golang-1.22/golang-1.22/test/codegen/mathbits.go:866)	FUNCDATA	$6, command-line-arguments.Div64degenerate.argliveinfo(SB)
	0x0000 00000 (/home/xzl/work/golang-1.22/golang-1.22/test/codegen/mathbits.go:866)	PCDATA	$3, $1
	0x0000 00000 (/home/xzl/work/golang-1.22/golang-1.22/test/codegen/mathbits.go:868)	MOVQ	AX, CX
	0x0003 00003 (/home/xzl/work/golang-1.22/golang-1.22/test/codegen/mathbits.go:868)	MOVQ	$-3689348814741910323, AX
	0x000d 00013 (/home/xzl/work/golang-1.22/golang-1.22/test/codegen/mathbits.go:868)	MULQ	CX
	0x0010 00016 (/home/xzl/work/golang-1.22/golang-1.22/test/codegen/mathbits.go:868)	SHRQ	$2, DX
	0x0014 00020 (/home/xzl/work/golang-1.22/golang-1.22/test/codegen/mathbits.go:868)	LEAQ	(DX)(DX*4), SI
	0x0018 00024 (/home/xzl/work/golang-1.22/golang-1.22/test/codegen/mathbits.go:868)	SUBQ	SI, CX
	0x001b 00027 (/home/xzl/work/golang-1.22/golang-1.22/test/codegen/mathbits.go:868)	MOVQ	DX, AX
	0x001e 00030 (/home/xzl/work/golang-1.22/golang-1.22/test/codegen/mathbits.go:868)	MOVQ	CX, BX
	0x0021 00033 (/home/xzl/work/golang-1.22/golang-1.22/test/codegen/mathbits.go:868)	RET
	0x0000 48 89 c1 48 b8 cd cc cc cc cc cc cc cc 48 f7 e1  H..H.........H..
	0x0010 48 c1 ea 02 48 8d 34 92 48 29 f1 48 89 d0 48 89  H...H.4.H).H..H.
	0x0020 cb c3                                            ..
go:cuinfo.producer.command-line-arguments<0> SDWARFCUINFO dupok size=0
	0x0000 72 65 67 61 62 69                                regabi
go:cuinfo.packagename.command-line-arguments<0> SDWARFCUINFO dupok size=0
	0x0000 63 6f 64 65 67 65 6e                             codegen
go:info.math/bits.LeadingZeros$abstract<0> SDWARFABSFCN dupok size=36
	0x0000 05 6d 61 74 68 2f 62 69 74 73 2e 4c 65 61 64 69  .math/bits.Leadi
	0x0010 6e 67 5a 65 72 6f 73 00 01 19 01 13 78 00 00 00  ngZeros.....x...
	0x0020 00 00 00 00                                      ....
	rel 0+0 t=R_USETYPE type:int<0>+0
	rel 0+0 t=R_USETYPE type:uint<0>+0
	rel 31+4 t=R_DWARFSECREF go:info.uint<0>+0
go:info.math/bits.LeadingZeros64$abstract<0> SDWARFABSFCN dupok size=38
	0x0000 05 6d 61 74 68 2f 62 69 74 73 2e 4c 65 61 64 69  .math/bits.Leadi
	0x0010 6e 67 5a 65 72 6f 73 36 34 00 01 25 01 13 78 00  ngZeros64..%..x.
	0x0020 00 00 00 00 00 00                                ......
	rel 0+0 t=R_USETYPE type:int<0>+0
	rel 0+0 t=R_USETYPE type:uint64<0>+0
	rel 33+4 t=R_DWARFSECREF go:info.uint64<0>+0
go:info.math/bits.LeadingZeros32$abstract<0> SDWARFABSFCN dupok size=38
	0x0000 05 6d 61 74 68 2f 62 69 74 73 2e 4c 65 61 64 69  .math/bits.Leadi
	0x0010 6e 67 5a 65 72 6f 73 33 32 00 01 22 01 13 78 00  ngZeros32.."..x.
	0x0020 00 00 00 00 00 00                                ......
	rel 0+0 t=R_USETYPE type:int<0>+0
	rel 0+0 t=R_USETYPE type:uint32<0>+0
	rel 33+4 t=R_DWARFSECREF go:info.uint32<0>+0
go:info.math/bits.LeadingZeros16$abstract<0> SDWARFABSFCN dupok size=38
	0x0000 05 6d 61 74 68 2f 62 69 74 73 2e 4c 65 61 64 69  .math/bits.Leadi
	0x0010 6e 67 5a 65 72 6f 73 31 36 00 01 1f 01 13 78 00  ngZeros16.....x.
	0x0020 00 00 00 00 00 00                                ......
	rel 0+0 t=R_USETYPE type:int<0>+0
	rel 0+0 t=R_USETYPE type:uint16<0>+0
	rel 33+4 t=R_DWARFSECREF go:info.uint16<0>+0
go:info.math/bits.LeadingZeros8$abstract<0> SDWARFABSFCN dupok size=37
	0x0000 05 6d 61 74 68 2f 62 69 74 73 2e 4c 65 61 64 69  .math/bits.Leadi
	0x0010 6e 67 5a 65 72 6f 73 38 00 01 1c 01 13 78 00 00  ngZeros8.....x..
	0x0020 00 00 00 00 00                                   .....
	rel 0+0 t=R_USETYPE type:int<0>+0
	rel 0+0 t=R_USETYPE type:uint8<0>+0
	rel 32+4 t=R_DWARFSECREF go:info.uint8<0>+0
go:info.math/bits.OnesCount8$abstract<0> SDWARFABSFCN dupok size=34
	0x0000 05 6d 61 74 68 2f 62 69 74 73 2e 4f 6e 65 73 43  .math/bits.OnesC
	0x0010 6f 75 6e 74 38 00 01 7d 01 13 78 00 00 00 00 00  ount8..}..x.....
	0x0020 00 00                                            ..
	rel 0+0 t=R_USETYPE type:int<0>+0
	rel 0+0 t=R_USETYPE type:uint8<0>+0
	rel 29+4 t=R_DWARFSECREF go:info.uint8<0>+0
go:info.math/bits.ReverseBytes$abstract<0> SDWARFABSFCN dupok size=37
	0x0000 05 6d 61 74 68 2f 62 69 74 73 2e 52 65 76 65 72  .math/bits.Rever
	0x0010 73 65 42 79 74 65 73 00 01 8a 02 01 13 78 00 00  seBytes......x..
	0x0020 00 00 00 00 00                                   .....
	rel 0+0 t=R_USETYPE type:uint<0>+0
	rel 32+4 t=R_DWARFSECREF go:info.uint<0>+0
go:info.math/bits.ReverseBytes16$abstract<0> SDWARFABSFCN dupok size=39
	0x0000 05 6d 61 74 68 2f 62 69 74 73 2e 52 65 76 65 72  .math/bits.Rever
	0x0010 73 65 42 79 74 65 73 31 36 00 01 94 02 01 13 78  seBytes16......x
	0x0020 00 00 00 00 00 00 00                             .......
	rel 0+0 t=R_USETYPE type:uint16<0>+0
	rel 34+4 t=R_DWARFSECREF go:info.uint16<0>+0
go:info.math/bits.TrailingZeros$abstract<0> SDWARFABSFCN dupok size=37
	0x0000 05 6d 61 74 68 2f 62 69 74 73 2e 54 72 61 69 6c  .math/bits.Trail
	0x0010 69 6e 67 5a 65 72 6f 73 00 01 3b 01 13 78 00 00  ingZeros..;..x..
	0x0020 00 00 00 00 00                                   .....
	rel 0+0 t=R_USETYPE type:int<0>+0
	rel 0+0 t=R_USETYPE type:uint<0>+0
	rel 32+4 t=R_DWARFSECREF go:info.uint<0>+0
go:info.math/bits.Div32$abstract<0> SDWARFABSFCN dupok size=77
	0x0000 05 6d 61 74 68 2f 62 69 74 73 2e 44 69 76 33 32  .math/bits.Div32
	0x0010 00 01 f9 03 01 13 68 69 00 00 00 00 00 00 13 6c  ......hi.......l
	0x0020 6f 00 00 00 00 00 00 13 79 00 00 00 00 00 00 13  o.......y.......
	0x0030 71 75 6f 00 01 00 00 00 00 13 72 65 6d 00 01 00  quo.......rem...
	0x0040 00 00 00 0e 7a 00 fd 03 00 00 00 00 00           ....z........
	rel 0+0 t=R_USETYPE type:uint32<0>+0
	rel 0+0 t=R_USETYPE type:uint64<0>+0
	rel 26+4 t=R_DWARFSECREF go:info.uint32<0>+0
	rel 35+4 t=R_DWARFSECREF go:info.uint32<0>+0
	rel 43+4 t=R_DWARFSECREF go:info.uint32<0>+0
	rel 53+4 t=R_DWARFSECREF go:info.uint32<0>+0
	rel 63+4 t=R_DWARFSECREF go:info.uint32<0>+0
	rel 72+4 t=R_DWARFSECREF go:info.uint64<0>+0
go:string..gostring.256.IIS8Kia8zlWqeowMPazRBA==<0> SRODATA dupok size=256
	0x0000 00 01 01 02 01 02 02 03 01 02 02 03 02 03 03 04  ................
	0x0010 01 02 02 03 02 03 03 04 02 03 03 04 03 04 04 05  ................
	0x0020 01 02 02 03 02 03 03 04 02 03 03 04 03 04 04 05  ................
	0x0030 02 03 03 04 03 04 04 05 03 04 04 05 04 05 05 06  ................
	0x0040 01 02 02 03 02 03 03 04 02 03 03 04 03 04 04 05  ................
	0x0050 02 03 03 04 03 04 04 05 03 04 04 05 04 05 05 06  ................
	0x0060 02 03 03 04 03 04 04 05 03 04 04 05 04 05 05 06  ................
	0x0070 03 04 04 05 04 05 05 06 04 05 05 06 05 06 06 07  ................
	0x0080 01 02 02 03 02 03 03 04 02 03 03 04 03 04 04 05  ................
	0x0090 02 03 03 04 03 04 04 05 03 04 04 05 04 05 05 06  ................
	0x00a0 02 03 03 04 03 04 04 05 03 04 04 05 04 05 05 06  ................
	0x00b0 03 04 04 05 04 05 05 06 04 05 05 06 05 06 06 07  ................
	0x00c0 02 03 03 04 03 04 04 05 03 04 04 05 04 05 05 06  ................
	0x00d0 03 04 04 05 04 05 05 06 04 05 05 06 05 06 06 07  ................
	0x00e0 03 04 04 05 04 05 05 06 04 05 05 06 05 06 06 07  ................
	0x00f0 04 05 05 06 05 06 06 07 05 06 06 07 06 07 07 08  ................
go:string."overflow"<0> SRODATA dupok size=8
	0x0000 6f 76 65 72 66 6c 6f 77                          overflow
command-line-arguments..stmp_0<0> SRODATA static size=16
	0x0000 00 00 00 00 00 00 00 00 08 00 00 00 00 00 00 00  ................
	rel 0+8 t=R_ADDR go:string."overflow"<0>+0
command-line-arguments..stmp_1<0> SRODATA static size=16
	0x0000 00 00 00 00 00 00 00 00 08 00 00 00 00 00 00 00  ................
	rel 0+8 t=R_ADDR go:string."overflow"<0>+0
command-line-arguments..stmp_2<0> SRODATA static size=16
	0x0000 00 00 00 00 00 00 00 00 08 00 00 00 00 00 00 00  ................
	rel 0+8 t=R_ADDR go:string."overflow"<0>+0
command-line-arguments..stmp_3<0> SRODATA static size=16
	0x0000 00 00 00 00 00 00 00 00 08 00 00 00 00 00 00 00  ................
	rel 0+8 t=R_ADDR go:string."overflow"<0>+0
command-line-arguments..stmp_4<0> SRODATA static size=16
	0x0000 00 00 00 00 00 00 00 00 08 00 00 00 00 00 00 00  ................
	rel 0+8 t=R_ADDR go:string."overflow"<0>+0
command-line-arguments..stmp_5<0> SRODATA static size=16
	0x0000 00 00 00 00 00 00 00 00 08 00 00 00 00 00 00 00  ................
	rel 0+8 t=R_ADDR go:string."overflow"<0>+0
command-line-arguments..stmp_6<0> SRODATA static size=16
	0x0000 00 00 00 00 00 00 00 00 08 00 00 00 00 00 00 00  ................
	rel 0+8 t=R_ADDR go:string."overflow"<0>+0
command-line-arguments..stmp_7<0> SRODATA static size=16
	0x0000 00 00 00 00 00 00 00 00 08 00 00 00 00 00 00 00  ................
	rel 0+8 t=R_ADDR go:string."overflow"<0>+0
command-line-arguments..stmp_8<0> SRODATA static size=16
	0x0000 00 00 00 00 00 00 00 00 08 00 00 00 00 00 00 00  ................
	rel 0+8 t=R_ADDR go:string."overflow"<0>+0
command-line-arguments..stmp_9<0> SRODATA static size=16
	0x0000 00 00 00 00 00 00 00 00 08 00 00 00 00 00 00 00  ................
	rel 0+8 t=R_ADDR go:string."overflow"<0>+0
command-line-arguments..stmp_10<0> SRODATA static size=16
	0x0000 00 00 00 00 00 00 00 00 08 00 00 00 00 00 00 00  ................
	rel 0+8 t=R_ADDR go:string."overflow"<0>+0
command-line-arguments..stmp_11<0> SRODATA static size=16
	0x0000 00 00 00 00 00 00 00 00 08 00 00 00 00 00 00 00  ................
	rel 0+8 t=R_ADDR go:string."overflow"<0>+0
runtime.memequal64·f<0> SRODATA dupok size=8
	0x0000 00 00 00 00 00 00 00 00                          ........
	rel 0+8 t=R_ADDR runtime.memequal64<1>+0
runtime.gcbits.0100000000000000<0> SRODATA dupok size=8
	0x0000 01 00 00 00 00 00 00 00                          ........
type:.namedata.*[2]uint64-<0> SRODATA dupok size=12
	0x0000 00 0a 2a 5b 32 5d 75 69 6e 74 36 34              ..*[2]uint64
runtime.memequal128·f<0> SRODATA dupok size=8
	0x0000 00 00 00 00 00 00 00 00                          ........
	rel 0+8 t=R_ADDR runtime.memequal128<1>+0
runtime.gcbits.<0> SRODATA dupok size=0
type:[2]uint64<0> SRODATA dupok size=72
	0x0000 10 00 00 00 00 00 00 00 00 00 00 00 00 00 00 00  ................
	0x0010 5d c2 28 f1 0a 08 08 11 00 00 00 00 00 00 00 00  ].(.............
	0x0020 00 00 00 00 00 00 00 00 00 00 00 00 00 00 00 00  ................
	0x0030 00 00 00 00 00 00 00 00 00 00 00 00 00 00 00 00  ................
	0x0040 02 00 00 00 00 00 00 00                          ........
	rel 24+8 t=R_ADDR runtime.memequal128·f<0>+0
	rel 32+8 t=R_ADDR runtime.gcbits.<0>+0
	rel 40+4 t=R_ADDROFF type:.namedata.*[2]uint64-<0>+0
	rel 44+4 t=RelocType(-32763) type:*[2]uint64<0>+0
	rel 48+8 t=R_ADDR type:uint64<0>+0
	rel 56+8 t=R_ADDR type:[]uint64<0>+0
type:*[2]uint64<0> SRODATA dupok size=56
	0x0000 08 00 00 00 00 00 00 00 08 00 00 00 00 00 00 00  ................
	0x0010 56 c3 b8 ad 08 08 08 36 00 00 00 00 00 00 00 00  V......6........
	0x0020 00 00 00 00 00 00 00 00 00 00 00 00 00 00 00 00  ................
	0x0030 00 00 00 00 00 00 00 00                          ........
	rel 24+8 t=R_ADDR runtime.memequal64·f<0>+0
	rel 32+8 t=R_ADDR runtime.gcbits.0100000000000000<0>+0
	rel 40+4 t=R_ADDROFF type:.namedata.*[2]uint64-<0>+0
	rel 48+8 t=R_ADDR type:[2]uint64<0>+0
type:.namedata.*[3]uint-<0> SRODATA dupok size=10
	0x0000 00 08 2a 5b 33 5d 75 69 6e 74                    ..*[3]uint
type:.eqfunc24<0> SRODATA dupok size=16
	0x0000 00 00 00 00 00 00 00 00 18 00 00 00 00 00 00 00  ................
	rel 0+8 t=R_ADDR runtime.memequal_varlen<1>+0
type:[3]uint<0> SRODATA dupok size=72
	0x0000 18 00 00 00 00 00 00 00 00 00 00 00 00 00 00 00  ................
	0x0010 78 74 f9 9a 0a 08 08 11 00 00 00 00 00 00 00 00  xt..............
	0x0020 00 00 00 00 00 00 00 00 00 00 00 00 00 00 00 00  ................
	0x0030 00 00 00 00 00 00 00 00 00 00 00 00 00 00 00 00  ................
	0x0040 03 00 00 00 00 00 00 00                          ........
	rel 24+8 t=R_ADDR type:.eqfunc24<0>+0
	rel 32+8 t=R_ADDR runtime.gcbits.<0>+0
	rel 40+4 t=R_ADDROFF type:.namedata.*[3]uint-<0>+0
	rel 44+4 t=RelocType(-32763) type:*[3]uint<0>+0
	rel 48+8 t=R_ADDR type:uint<0>+0
	rel 56+8 t=R_ADDR type:[]uint<0>+0
type:*[3]uint<0> SRODATA dupok size=56
	0x0000 08 00 00 00 00 00 00 00 08 00 00 00 00 00 00 00  ................
	0x0010 eb 9c 3e af 08 08 08 36 00 00 00 00 00 00 00 00  ..>....6........
	0x0020 00 00 00 00 00 00 00 00 00 00 00 00 00 00 00 00  ................
	0x0030 00 00 00 00 00 00 00 00                          ........
	rel 24+8 t=R_ADDR runtime.memequal64·f<0>+0
	rel 32+8 t=R_ADDR runtime.gcbits.0100000000000000<0>+0
	rel 40+4 t=R_ADDROFF type:.namedata.*[3]uint-<0>+0
	rel 48+8 t=R_ADDR type:[3]uint<0>+0
type:.namedata.*[3]uint64-<0> SRODATA dupok size=12
	0x0000 00 0a 2a 5b 33 5d 75 69 6e 74 36 34              ..*[3]uint64
type:[3]uint64<0> SRODATA dupok size=72
	0x0000 18 00 00 00 00 00 00 00 00 00 00 00 00 00 00 00  ................
	0x0010 56 2b ea b5 0a 08 08 11 00 00 00 00 00 00 00 00  V+..............
	0x0020 00 00 00 00 00 00 00 00 00 00 00 00 00 00 00 00  ................
	0x0030 00 00 00 00 00 00 00 00 00 00 00 00 00 00 00 00  ................
	0x0040 03 00 00 00 00 00 00 00                          ........
	rel 24+8 t=R_ADDR type:.eqfunc24<0>+0
	rel 32+8 t=R_ADDR runtime.gcbits.<0>+0
	rel 40+4 t=R_ADDROFF type:.namedata.*[3]uint64-<0>+0
	rel 44+4 t=RelocType(-32763) type:*[3]uint64<0>+0
	rel 48+8 t=R_ADDR type:uint64<0>+0
	rel 56+8 t=R_ADDR type:[]uint64<0>+0
type:*[3]uint64<0> SRODATA dupok size=56
	0x0000 08 00 00 00 00 00 00 00 08 00 00 00 00 00 00 00  ................
	0x0010 d9 14 63 dc 08 08 08 36 00 00 00 00 00 00 00 00  ..c....6........
	0x0020 00 00 00 00 00 00 00 00 00 00 00 00 00 00 00 00  ................
	0x0030 00 00 00 00 00 00 00 00                          ........
	rel 24+8 t=R_ADDR runtime.memequal64·f<0>+0
	rel 32+8 t=R_ADDR runtime.gcbits.0100000000000000<0>+0
	rel 40+4 t=R_ADDROFF type:.namedata.*[3]uint64-<0>+0
	rel 48+8 t=R_ADDR type:[3]uint64<0>+0
gclocals·g2BeySu+wFnoycgXfElmcg==<0> SRODATA dupok size=8
	0x0000 01 00 00 00 00 00 00 00                          ........
command-line-arguments.LeadingZeros.arginfo1<0> SRODATA static dupok size=3
	0x0000 00 08 ff                                         ...
command-line-arguments.LeadingZeros.argliveinfo<0> SRODATA static dupok size=2
	0x0000 00 00                                            ..
command-line-arguments.LeadingZeros64.arginfo1<0> SRODATA static dupok size=3
	0x0000 00 08 ff                                         ...
command-line-arguments.LeadingZeros64.argliveinfo<0> SRODATA static dupok size=2
	0x0000 00 00                                            ..
command-line-arguments.LeadingZeros32.arginfo1<0> SRODATA static dupok size=3
	0x0000 00 04 ff                                         ...
command-line-arguments.LeadingZeros32.argliveinfo<0> SRODATA static dupok size=2
	0x0000 00 00                                            ..
command-line-arguments.LeadingZeros16.arginfo1<0> SRODATA static dupok size=3
	0x0000 00 02 ff                                         ...
command-line-arguments.LeadingZeros16.argliveinfo<0> SRODATA static dupok size=2
	0x0000 00 00                                            ..
command-line-arguments.LeadingZeros8.arginfo1<0> SRODATA static dupok size=3
	0x0000 00 01 ff                                         ...
command-line-arguments.LeadingZeros8.argliveinfo<0> SRODATA static dupok size=2
	0x0000 00 00                                            ..
command-line-arguments.Len.arginfo1<0> SRODATA static dupok size=3
	0x0000 00 08 ff                                         ...
command-line-arguments.Len.argliveinfo<0> SRODATA static dupok size=2
	0x0000 00 00                                            ..
command-line-arguments.Len64.arginfo1<0> SRODATA static dupok size=3
	0x0000 00 08 ff                                         ...
command-line-arguments.Len64.argliveinfo<0> SRODATA static dupok size=2
	0x0000 00 00                                            ..
command-line-arguments.SubFromLen64.arginfo1<0> SRODATA static dupok size=3
	0x0000 00 08 ff                                         ...
command-line-arguments.SubFromLen64.argliveinfo<0> SRODATA static dupok size=2
	0x0000 00 00                                            ..
command-line-arguments.Len32.arginfo1<0> SRODATA static dupok size=3
	0x0000 00 04 ff                                         ...
command-line-arguments.Len32.argliveinfo<0> SRODATA static dupok size=2
	0x0000 00 00                                            ..
command-line-arguments.Len16.arginfo1<0> SRODATA static dupok size=3
	0x0000 00 02 ff                                         ...
command-line-arguments.Len16.argliveinfo<0> SRODATA static dupok size=2
	0x0000 00 00                                            ..
command-line-arguments.Len8.arginfo1<0> SRODATA static dupok size=3
	0x0000 00 01 ff                                         ...
command-line-arguments.Len8.argliveinfo<0> SRODATA static dupok size=2
	0x0000 00 00                                            ..
command-line-arguments.OnesCount.arginfo1<0> SRODATA static dupok size=3
	0x0000 00 08 ff                                         ...
command-line-arguments.OnesCount.argliveinfo<0> SRODATA static dupok size=2
	0x0000 00 00                                            ..
command-line-arguments.OnesCount64.arginfo1<0> SRODATA static dupok size=3
	0x0000 00 08 ff                                         ...
command-line-arguments.OnesCount64.argliveinfo<0> SRODATA static dupok size=2
	0x0000 00 00                                            ..
command-line-arguments.OnesCount32.arginfo1<0> SRODATA static dupok size=3
	0x0000 00 04 ff                                         ...
command-line-arguments.OnesCount32.argliveinfo<0> SRODATA static dupok size=2
	0x0000 00 00                                            ..
command-line-arguments.OnesCount16.arginfo1<0> SRODATA static dupok size=3
	0x0000 00 02 ff                                         ...
command-line-arguments.OnesCount16.argliveinfo<0> SRODATA static dupok size=2
	0x0000 00 00                                            ..
command-line-arguments.OnesCount8.arginfo1<0> SRODATA static dupok size=3
	0x0000 00 01 ff                                         ...
command-line-arguments.OnesCount8.argliveinfo<0> SRODATA static dupok size=2
	0x0000 00 00                                            ..
command-line-arguments.ReverseBytes.arginfo1<0> SRODATA static dupok size=3
	0x0000 00 08 ff                                         ...
command-line-arguments.ReverseBytes.argliveinfo<0> SRODATA static dupok size=2
	0x0000 00 00                                            ..
command-line-arguments.ReverseBytes64.arginfo1<0> SRODATA static dupok size=3
	0x0000 00 08 ff                                         ...
command-line-arguments.ReverseBytes64.argliveinfo<0> SRODATA static dupok size=2
	0x0000 00 00                                            ..
command-line-arguments.ReverseBytes32.arginfo1<0> SRODATA static dupok size=3
	0x0000 00 04 ff                                         ...
command-line-arguments.ReverseBytes32.argliveinfo<0> SRODATA static dupok size=2
	0x0000 00 00                                            ..
command-line-arguments.ReverseBytes16.arginfo1<0> SRODATA static dupok size=3
	0x0000 00 02 ff                                         ...
command-line-arguments.ReverseBytes16.argliveinfo<0> SRODATA static dupok size=2
	0x0000 00 00                                            ..
command-line-arguments.RotateLeft64.arginfo1<0> SRODATA static dupok size=3
	0x0000 00 08 ff                                         ...
command-line-arguments.RotateLeft64.argliveinfo<0> SRODATA static dupok size=2
	0x0000 00 00                                            ..
command-line-arguments.RotateLeft32.arginfo1<0> SRODATA static dupok size=3
	0x0000 00 04 ff                                         ...
command-line-arguments.RotateLeft32.argliveinfo<0> SRODATA static dupok size=2
	0x0000 00 00                                            ..
command-line-arguments.RotateLeft16.arginfo1<0> SRODATA static dupok size=5
	0x0000 00 02 08 08 ff                                   .....
command-line-arguments.RotateLeft16.argliveinfo<0> SRODATA static dupok size=2
	0x0000 00 00                                            ..
command-line-arguments.RotateLeft8.arginfo1<0> SRODATA static dupok size=5
	0x0000 00 01 08 08 ff                                   .....
command-line-arguments.RotateLeft8.argliveinfo<0> SRODATA static dupok size=2
	0x0000 00 00                                            ..
command-line-arguments.RotateLeftVariable.arginfo1<0> SRODATA static dupok size=5
	0x0000 00 08 08 08 ff                                   .....
command-line-arguments.RotateLeftVariable.argliveinfo<0> SRODATA static dupok size=2
	0x0000 00 00                                            ..
command-line-arguments.RotateLeftVariable64.arginfo1<0> SRODATA static dupok size=5
	0x0000 00 08 08 08 ff                                   .....
command-line-arguments.RotateLeftVariable64.argliveinfo<0> SRODATA static dupok size=2
	0x0000 00 00                                            ..
command-line-arguments.RotateLeftVariable32.arginfo1<0> SRODATA static dupok size=5
	0x0000 00 04 08 08 ff                                   .....
command-line-arguments.RotateLeftVariable32.argliveinfo<0> SRODATA static dupok size=2
	0x0000 00 00                                            ..
command-line-arguments.TrailingZeros.arginfo1<0> SRODATA static dupok size=3
	0x0000 00 08 ff                                         ...
command-line-arguments.TrailingZeros.argliveinfo<0> SRODATA static dupok size=2
	0x0000 00 00                                            ..
command-line-arguments.TrailingZeros64.arginfo1<0> SRODATA static dupok size=3
	0x0000 00 08 ff                                         ...
command-line-arguments.TrailingZeros64.argliveinfo<0> SRODATA static dupok size=2
	0x0000 00 00                                            ..
command-line-arguments.TrailingZeros64Subtract.arginfo1<0> SRODATA static dupok size=3
	0x0000 00 08 ff                                         ...
command-line-arguments.TrailingZeros64Subtract.argliveinfo<0> SRODATA static dupok size=2
	0x0000 00 00                                            ..
command-line-arguments.TrailingZeros32.arginfo1<0> SRODATA static dupok size=3
	0x0000 00 04 ff                                         ...
command-line-arguments.TrailingZeros32.argliveinfo<0> SRODATA static dupok size=2
	0x0000 00 00                                            ..
command-line-arguments.TrailingZeros16.arginfo1<0> SRODATA static dupok size=3
	0x0000 00 02 ff                                         ...
command-line-arguments.TrailingZeros16.argliveinfo<0> SRODATA static dupok size=2
	0x0000 00 00                                            ..
command-line-arguments.TrailingZeros8.arginfo1<0> SRODATA static dupok size=3
	0x0000 00 01 ff                                         ...
command-line-arguments.TrailingZeros8.argliveinfo<0> SRODATA static dupok size=2
	0x0000 00 00                                            ..
command-line-arguments.IterateBits.arginfo1<0> SRODATA static dupok size=3
	0x0000 00 08 ff                                         ...
command-line-arguments.IterateBits.argliveinfo<0> SRODATA static dupok size=2
	0x0000 00 00                                            ..
command-line-arguments.IterateBits64.arginfo1<0> SRODATA static dupok size=3
	0x0000 00 08 ff                                         ...
command-line-arguments.IterateBits64.argliveinfo<0> SRODATA static dupok size=2
	0x0000 00 00                                            ..
command-line-arguments.IterateBits32.arginfo1<0> SRODATA static dupok size=3
	0x0000 00 04 ff                                         ...
command-line-arguments.IterateBits32.argliveinfo<0> SRODATA static dupok size=2
	0x0000 00 00                                            ..
command-line-arguments.IterateBits16.arginfo1<0> SRODATA static dupok size=3
	0x0000 00 02 ff                                         ...
command-line-arguments.IterateBits16.argliveinfo<0> SRODATA static dupok size=2
	0x0000 00 00                                            ..
command-line-arguments.IterateBits8.arginfo1<0> SRODATA static dupok size=3
	0x0000 00 01 ff                                         ...
command-line-arguments.IterateBits8.argliveinfo<0> SRODATA static dupok size=2
	0x0000 00 00                                            ..
command-line-arguments.Add.arginfo1<0> SRODATA static dupok size=7
	0x0000 00 08 08 08 10 08 ff                             .......
command-line-arguments.Add.argliveinfo<0> SRODATA static dupok size=2
	0x0000 00 00                                            ..
command-line-arguments.AddC.arginfo1<0> SRODATA static dupok size=5
	0x0000 00 08 08 08 ff                                   .....
command-line-arguments.AddC.argliveinfo<0> SRODATA static dupok size=2
	0x0000 00 00                                            ..
command-line-arguments.AddZ.arginfo1<0> SRODATA static dupok size=5
	0x0000 00 08 08 08 ff                                   .....
command-line-arguments.AddZ.argliveinfo<0> SRODATA static dupok size=2
	0x0000 00 00                                            ..
command-line-arguments.AddR.arginfo1<0> SRODATA static dupok size=7
	0x0000 00 08 08 08 10 08 ff                             .......
command-line-arguments.AddR.argliveinfo<0> SRODATA static dupok size=2
	0x0000 00 00                                            ..
gclocals·LlfHo70um+DIUn9rjx/QUA==<0> SRODATA dupok size=10
	0x0000 02 00 00 00 03 00 00 00 07 00                    ..........
gclocals·J5F+7Qw7O7ve2QcWC7DpeQ==<0> SRODATA dupok size=8
	0x0000 02 00 00 00 00 00 00 00                          ........
command-line-arguments.AddM.arginfo1<0> SRODATA static dupok size=7
	0x0000 00 08 08 08 10 08 ff                             .......
command-line-arguments.AddM.argliveinfo<0> SRODATA static dupok size=2
	0x0000 00 00                                            ..
command-line-arguments.Add64.arginfo1<0> SRODATA static dupok size=7
	0x0000 00 08 08 08 10 08 ff                             .......
command-line-arguments.Add64.argliveinfo<0> SRODATA static dupok size=2
	0x0000 00 00                                            ..
command-line-arguments.Add64C.arginfo1<0> SRODATA static dupok size=5
	0x0000 00 08 08 08 ff                                   .....
command-line-arguments.Add64C.argliveinfo<0> SRODATA static dupok size=2
	0x0000 00 00                                            ..
command-line-arguments.Add64Z.arginfo1<0> SRODATA static dupok size=5
	0x0000 00 08 08 08 ff                                   .....
command-line-arguments.Add64Z.argliveinfo<0> SRODATA static dupok size=2
	0x0000 00 00                                            ..
command-line-arguments.Add64R.arginfo1<0> SRODATA static dupok size=7
	0x0000 00 08 08 08 10 08 ff                             .......
command-line-arguments.Add64R.argliveinfo<0> SRODATA static dupok size=2
	0x0000 00 00                                            ..
command-line-arguments.Add64M.arginfo1<0> SRODATA static dupok size=7
	0x0000 00 08 08 08 10 08 ff                             .......
command-line-arguments.Add64M.argliveinfo<0> SRODATA static dupok size=2
	0x0000 00 00                                            ..
gclocals·br8UsANEGWp75kzr7DNKRQ==<0> SRODATA dupok size=10
	0x0000 02 00 00 00 04 00 00 00 0f 00                    ..........
command-line-arguments.Add64MSaveC.arginfo1<0> SRODATA static dupok size=9
	0x0000 00 08 08 08 10 08 18 08 ff                       .........
command-line-arguments.Add64MSaveC.argliveinfo<0> SRODATA static dupok size=2
	0x0000 00 00                                            ..
command-line-arguments.Add64PanicOnOverflowEQ.arginfo1<0> SRODATA static dupok size=5
	0x0000 00 08 08 08 ff                                   .....
command-line-arguments.Add64PanicOnOverflowEQ.argliveinfo<0> SRODATA static dupok size=2
	0x0000 00 00                                            ..
command-line-arguments.Add64PanicOnOverflowNE.arginfo1<0> SRODATA static dupok size=5
	0x0000 00 08 08 08 ff                                   .....
command-line-arguments.Add64PanicOnOverflowNE.argliveinfo<0> SRODATA static dupok size=2
	0x0000 00 00                                            ..
command-line-arguments.Add64PanicOnOverflowGT.arginfo1<0> SRODATA static dupok size=5
	0x0000 00 08 08 08 ff                                   .....
command-line-arguments.Add64PanicOnOverflowGT.argliveinfo<0> SRODATA static dupok size=2
	0x0000 00 00                                            ..
command-line-arguments.Add64MPanicOnOverflowEQ.arginfo1<0> SRODATA static dupok size=13
	0x0000 fe 00 08 08 08 fd fe 10 08 18 08 fd ff           .............
command-line-arguments.Add64MPanicOnOverflowNE.arginfo1<0> SRODATA static dupok size=13
	0x0000 fe 00 08 08 08 fd fe 10 08 18 08 fd ff           .............
command-line-arguments.Add64MPanicOnOverflowGT.arginfo1<0> SRODATA static dupok size=13
	0x0000 fe 00 08 08 08 fd fe 10 08 18 08 fd ff           .............
command-line-arguments.Add64MultipleChains.arginfo1<0> SRODATA static dupok size=25
	0x0000 fe 00 08 08 08 fd fe 10 08 18 08 fd fe 20 08 28  ............. .(
	0x0010 08 fd fe 30 08 38 08 fd ff                       ...0.8...
command-line-arguments.Sub.arginfo1<0> SRODATA static dupok size=7
	0x0000 00 08 08 08 10 08 ff                             .......
command-line-arguments.Sub.argliveinfo<0> SRODATA static dupok size=2
	0x0000 00 00                                            ..
command-line-arguments.SubC.arginfo1<0> SRODATA static dupok size=5
	0x0000 00 08 08 08 ff                                   .....
command-line-arguments.SubC.argliveinfo<0> SRODATA static dupok size=2
	0x0000 00 00                                            ..
command-line-arguments.SubZ.arginfo1<0> SRODATA static dupok size=5
	0x0000 00 08 08 08 ff                                   .....
command-line-arguments.SubZ.argliveinfo<0> SRODATA static dupok size=2
	0x0000 00 00                                            ..
command-line-arguments.SubR.arginfo1<0> SRODATA static dupok size=7
	0x0000 00 08 08 08 10 08 ff                             .......
command-line-arguments.SubR.argliveinfo<0> SRODATA static dupok size=2
	0x0000 00 00                                            ..
command-line-arguments.SubM.arginfo1<0> SRODATA static dupok size=7
	0x0000 00 08 08 08 10 08 ff                             .......
command-line-arguments.SubM.argliveinfo<0> SRODATA static dupok size=2
	0x0000 00 00                                            ..
command-line-arguments.Sub64.arginfo1<0> SRODATA static dupok size=7
	0x0000 00 08 08 08 10 08 ff                             .......
command-line-arguments.Sub64.argliveinfo<0> SRODATA static dupok size=2
	0x0000 00 00                                            ..
command-line-arguments.Sub64C.arginfo1<0> SRODATA static dupok size=5
	0x0000 00 08 08 08 ff                                   .....
command-line-arguments.Sub64C.argliveinfo<0> SRODATA static dupok size=2
	0x0000 00 00                                            ..
command-line-arguments.Sub64Z.arginfo1<0> SRODATA static dupok size=5
	0x0000 00 08 08 08 ff                                   .....
command-line-arguments.Sub64Z.argliveinfo<0> SRODATA static dupok size=2
	0x0000 00 00                                            ..
command-line-arguments.Sub64R.arginfo1<0> SRODATA static dupok size=7
	0x0000 00 08 08 08 10 08 ff                             .......
command-line-arguments.Sub64R.argliveinfo<0> SRODATA static dupok size=2
	0x0000 00 00                                            ..
command-line-arguments.Sub64M.arginfo1<0> SRODATA static dupok size=7
	0x0000 00 08 08 08 10 08 ff                             .......
command-line-arguments.Sub64M.argliveinfo<0> SRODATA static dupok size=2
	0x0000 00 00                                            ..
command-line-arguments.Sub64MSaveC.arginfo1<0> SRODATA static dupok size=9
	0x0000 00 08 08 08 10 08 18 08 ff                       .........
command-line-arguments.Sub64MSaveC.argliveinfo<0> SRODATA static dupok size=2
	0x0000 00 00                                            ..
command-line-arguments.Sub64PanicOnOverflowEQ.arginfo1<0> SRODATA static dupok size=5
	0x0000 00 08 08 08 ff                                   .....
command-line-arguments.Sub64PanicOnOverflowEQ.argliveinfo<0> SRODATA static dupok size=2
	0x0000 00 00                                            ..
command-line-arguments.Sub64PanicOnOverflowNE.arginfo1<0> SRODATA static dupok size=5
	0x0000 00 08 08 08 ff                                   .....
command-line-arguments.Sub64PanicOnOverflowNE.argliveinfo<0> SRODATA static dupok size=2
	0x0000 00 00                                            ..
command-line-arguments.Sub64PanicOnOverflowGT.arginfo1<0> SRODATA static dupok size=5
	0x0000 00 08 08 08 ff                                   .....
command-line-arguments.Sub64PanicOnOverflowGT.argliveinfo<0> SRODATA static dupok size=2
	0x0000 00 00                                            ..
command-line-arguments.Sub64MPanicOnOverflowEQ.arginfo1<0> SRODATA static dupok size=13
	0x0000 fe 00 08 08 08 fd fe 10 08 18 08 fd ff           .............
command-line-arguments.Sub64MPanicOnOverflowNE.arginfo1<0> SRODATA static dupok size=13
	0x0000 fe 00 08 08 08 fd fe 10 08 18 08 fd ff           .............
command-line-arguments.Sub64MPanicOnOverflowGT.arginfo1<0> SRODATA static dupok size=13
	0x0000 fe 00 08 08 08 fd fe 10 08 18 08 fd ff           .............
command-line-arguments.Mul.arginfo1<0> SRODATA static dupok size=5
	0x0000 00 08 08 08 ff                                   .....
command-line-arguments.Mul.argliveinfo<0> SRODATA static dupok size=2
	0x0000 00 00                                            ..
command-line-arguments.Mul64.arginfo1<0> SRODATA static dupok size=5
	0x0000 00 08 08 08 ff                                   .....
command-line-arguments.Mul64.argliveinfo<0> SRODATA static dupok size=2
	0x0000 00 00                                            ..
command-line-arguments.Mul64HiOnly.arginfo1<0> SRODATA static dupok size=5
	0x0000 00 08 08 08 ff                                   .....
command-line-arguments.Mul64HiOnly.argliveinfo<0> SRODATA static dupok size=2
	0x0000 00 00                                            ..
command-line-arguments.Mul64LoOnly.arginfo1<0> SRODATA static dupok size=5
	0x0000 00 08 08 08 ff                                   .....
command-line-arguments.Mul64LoOnly.argliveinfo<0> SRODATA static dupok size=2
	0x0000 00 00                                            ..
command-line-arguments.Div.arginfo1<0> SRODATA static dupok size=7
	0x0000 00 08 08 08 10 08 ff                             .......
command-line-arguments.Div.argliveinfo<0> SRODATA static dupok size=2
	0x0000 00 00                                            ..
command-line-arguments.Div32.arginfo1<0> SRODATA static dupok size=7
	0x0000 00 04 04 04 08 04 ff                             .......
command-line-arguments.Div32.argliveinfo<0> SRODATA static dupok size=2
	0x0000 00 00                                            ..
command-line-arguments.Div64.arginfo1<0> SRODATA static dupok size=7
	0x0000 00 08 08 08 10 08 ff                             .......
command-line-arguments.Div64.argliveinfo<0> SRODATA static dupok size=2
	0x0000 00 00                                            ..
command-line-arguments.Div64degenerate.arginfo1<0> SRODATA static dupok size=3
	0x0000 00 08 ff                                         ...
command-line-arguments.Div64degenerate.argliveinfo<0> SRODATA static dupok size=2
	0x0000 00 00                                            ..
aux for command-line-arguments.LeadingZeros<0> SDWARFLOC size=102
	0x0000 ff ff ff ff ff ff ff ff 00 00 00 00 00 00 00 00  ................
	0x0010 00 00 00 00 00 00 00 00 06 00 00 00 00 00 00 00  ................
	0x0020 01 00 50 00 00 00 00 00 00 00 00 00 00 00 00 00  ..P.............
	0x0030 00 00 00 ff ff ff ff ff ff ff ff 00 00 00 00 00  ................
	0x0040 00 00 00 00 00 00 00 00 00 00 00 06 00 00 00 00  ................
	0x0050 00 00 00 01 00 50 00 00 00 00 00 00 00 00 00 00  .....P..........
	0x0060 00 00 00 00 00 00                                ......
	rel 8+8 t=R_ADDR command-line-arguments.LeadingZeros<1>+0
	rel 59+8 t=R_ADDR command-line-arguments.LeadingZeros<1>+0
aux for command-line-arguments.LeadingZeros<0> SDWARFLINES size=29
	0x0000 00 09 02 00 00 00 00 00 00 00 00 04 02 03 09 14  ................
	0x0010 04 03 03 05 1e 04 02 3f 02 01 00 01 01           .......?.....
	rel 3+8 t=R_ADDR command-line-arguments.LeadingZeros<1>+0
aux for command-line-arguments.LeadingZeros<0> SDWARFFCN size=123
	0x0000 03 63 6f 6d 6d 61 6e 64 2d 6c 69 6e 65 2d 61 72  .command-line-ar
	0x0010 67 75 6d 65 6e 74 73 2e 4c 65 61 64 69 6e 67 5a  guments.LeadingZ
	0x0020 65 72 6f 73 00 00 00 00 00 00 00 00 00 00 00 00  eros............
	0x0030 00 00 00 00 00 01 9c 02 00 00 00 0f 01 12 6e 00  ..............n.
	0x0040 00 0f 00 00 00 00 00 00 00 00 11 7e 72 30 00 01  ...........~r0..
	0x0050 0f 00 00 00 00 00 08 00 00 00 00 00 00 00 00 00  ................
	0x0060 00 00 00 00 00 00 00 00 00 00 00 02 00 00 00 17  ................
	0x0070 15 00 00 00 00 00 00 00 00 00 00                 ...........
	rel 0+0 t=R_USETYPE type:int<0>+0
	rel 37+8 t=R_ADDR command-line-arguments.LeadingZeros<1>+0
	rel 45+8 t=R_ADDR command-line-arguments.LeadingZeros<1>+7
	rel 66+4 t=R_DWARFSECREF go:info.uint<0>+0
	rel 70+4 t=R_DWARFSECREF <0>+0
	rel 81+4 t=R_DWARFSECREF go:info.int<0>+0
	rel 87+4 t=R_DWARFSECREF go:info.math/bits.LeadingZeros$abstract<0>+0
	rel 91+8 t=R_ADDR command-line-arguments.LeadingZeros<1>+1
	rel 99+8 t=R_ADDR command-line-arguments.LeadingZeros<1>+6
	rel 113+4 t=R_DWARFSECREF go:info.math/bits.LeadingZeros$abstract<0>+27
	rel 117+4 t=R_DWARFSECREF <0>+51
aux for command-line-arguments.LeadingZeros64<0> SDWARFLOC size=102
	0x0000 ff ff ff ff ff ff ff ff 00 00 00 00 00 00 00 00  ................
	0x0010 00 00 00 00 00 00 00 00 06 00 00 00 00 00 00 00  ................
	0x0020 01 00 50 00 00 00 00 00 00 00 00 00 00 00 00 00  ..P.............
	0x0030 00 00 00 ff ff ff ff ff ff ff ff 00 00 00 00 00  ................
	0x0040 00 00 00 00 00 00 00 00 00 00 00 06 00 00 00 00  ................
	0x0050 00 00 00 01 00 50 00 00 00 00 00 00 00 00 00 00  .....P..........
	0x0060 00 00 00 00 00 00                                ......
	rel 8+8 t=R_ADDR command-line-arguments.LeadingZeros64<1>+0
	rel 59+8 t=R_ADDR command-line-arguments.LeadingZeros64<1>+0
aux for command-line-arguments.LeadingZeros64<0> SDWARFLINES size=29
	0x0000 00 09 02 00 00 00 00 00 00 00 00 04 02 03 14 14  ................
	0x0010 04 03 03 06 1e 04 02 3e 02 01 00 01 01           .......>.....
	rel 3+8 t=R_ADDR command-line-arguments.LeadingZeros64<1>+0
aux for command-line-arguments.LeadingZeros64<0> SDWARFFCN size=125
	0x0000 03 63 6f 6d 6d 61 6e 64 2d 6c 69 6e 65 2d 61 72  .command-line-ar
	0x0010 67 75 6d 65 6e 74 73 2e 4c 65 61 64 69 6e 67 5a  guments.LeadingZ
	0x0020 65 72 6f 73 36 34 00 00 00 00 00 00 00 00 00 00  eros64..........
	0x0030 00 00 00 00 00 00 00 01 9c 02 00 00 00 1a 01 12  ................
	0x0040 6e 00 00 1a 00 00 00 00 00 00 00 00 11 7e 72 30  n............~r0
	0x0050 00 01 1a 00 00 00 00 00 08 00 00 00 00 00 00 00  ................
	0x0060 00 00 00 00 00 00 00 00 00 00 00 00 00 02 00 00  ................
	0x0070 00 22 15 00 00 00 00 00 00 00 00 00 00           ."...........
	rel 0+0 t=R_USETYPE type:int<0>+0
	rel 39+8 t=R_ADDR command-line-arguments.LeadingZeros64<1>+0
	rel 47+8 t=R_ADDR command-line-arguments.LeadingZeros64<1>+7
	rel 68+4 t=R_DWARFSECREF go:info.uint64<0>+0
	rel 72+4 t=R_DWARFSECREF <0>+0
	rel 83+4 t=R_DWARFSECREF go:info.int<0>+0
	rel 89+4 t=R_DWARFSECREF go:info.math/bits.LeadingZeros64$abstract<0>+0
	rel 93+8 t=R_ADDR command-line-arguments.LeadingZeros64<1>+1
	rel 101+8 t=R_ADDR command-line-arguments.LeadingZeros64<1>+6
	rel 115+4 t=R_DWARFSECREF go:info.math/bits.LeadingZeros64$abstract<0>+29
	rel 119+4 t=R_DWARFSECREF <0>+51
aux for command-line-arguments.LeadingZeros32<0> SDWARFLOC size=102
	0x0000 ff ff ff ff ff ff ff ff 00 00 00 00 00 00 00 00  ................
	0x0010 00 00 00 00 00 00 00 00 05 00 00 00 00 00 00 00  ................
	0x0020 01 00 50 00 00 00 00 00 00 00 00 00 00 00 00 00  ..P.............
	0x0030 00 00 00 ff ff ff ff ff ff ff ff 00 00 00 00 00  ................
	0x0040 00 00 00 00 00 00 00 00 00 00 00 05 00 00 00 00  ................
	0x0050 00 00 00 01 00 50 00 00 00 00 00 00 00 00 00 00  .....P..........
	0x0060 00 00 00 00 00 00                                ......
	rel 8+8 t=R_ADDR command-line-arguments.LeadingZeros32<1>+0
	rel 59+8 t=R_ADDR command-line-arguments.LeadingZeros32<1>+0
aux for command-line-arguments.LeadingZeros32<0> SDWARFLINES size=29
	0x0000 00 09 02 00 00 00 00 00 00 00 00 04 02 03 1f 14  ................
	0x0010 04 03 16 04 02 03 06 3c 02 01 00 01 01           .......<.....
	rel 3+8 t=R_ADDR command-line-arguments.LeadingZeros32<1>+0
aux for command-line-arguments.LeadingZeros32<0> SDWARFFCN size=125
	0x0000 03 63 6f 6d 6d 61 6e 64 2d 6c 69 6e 65 2d 61 72  .command-line-ar
	0x0010 67 75 6d 65 6e 74 73 2e 4c 65 61 64 69 6e 67 5a  guments.LeadingZ
	0x0020 65 72 6f 73 33 32 00 00 00 00 00 00 00 00 00 00  eros32..........
	0x0030 00 00 00 00 00 00 00 01 9c 02 00 00 00 25 01 12  .............%..
	0x0040 6e 00 00 25 00 00 00 00 00 00 00 00 11 7e 72 30  n..%.........~r0
	0x0050 00 01 25 00 00 00 00 00 08 00 00 00 00 00 00 00  ..%.............
	0x0060 00 00 00 00 00 00 00 00 00 00 00 00 00 02 00 00  ................
	0x0070 00 2d 15 00 00 00 00 00 00 00 00 00 00           .-...........
	rel 0+0 t=R_USETYPE type:int<0>+0
	rel 39+8 t=R_ADDR command-line-arguments.LeadingZeros32<1>+0
	rel 47+8 t=R_ADDR command-line-arguments.LeadingZeros32<1>+6
	rel 68+4 t=R_DWARFSECREF go:info.uint32<0>+0
	rel 72+4 t=R_DWARFSECREF <0>+0
	rel 83+4 t=R_DWARFSECREF go:info.int<0>+0
	rel 89+4 t=R_DWARFSECREF go:info.math/bits.LeadingZeros32$abstract<0>+0
	rel 93+8 t=R_ADDR command-line-arguments.LeadingZeros32<1>+1
	rel 101+8 t=R_ADDR command-line-arguments.LeadingZeros32<1>+5
	rel 115+4 t=R_DWARFSECREF go:info.math/bits.LeadingZeros32$abstract<0>+29
	rel 119+4 t=R_DWARFSECREF <0>+51
aux for command-line-arguments.LeadingZeros16<0> SDWARFLOC size=102
	0x0000 ff ff ff ff ff ff ff ff 00 00 00 00 00 00 00 00  ................
	0x0010 00 00 00 00 00 00 00 00 0a 00 00 00 00 00 00 00  ................
	0x0020 01 00 50 00 00 00 00 00 00 00 00 00 00 00 00 00  ..P.............
	0x0030 00 00 00 ff ff ff ff ff ff ff ff 00 00 00 00 00  ................
	0x0040 00 00 00 00 00 00 00 00 00 00 00 0a 00 00 00 00  ................
	0x0050 00 00 00 01 00 50 00 00 00 00 00 00 00 00 00 00  .....P..........
	0x0060 00 00 00 00 00 00                                ......
	rel 8+8 t=R_ADDR command-line-arguments.LeadingZeros16<1>+0
	rel 59+8 t=R_ADDR command-line-arguments.LeadingZeros16<1>+0
aux for command-line-arguments.LeadingZeros16<0> SDWARFLINES size=34
	0x0000 00 09 02 00 00 00 00 00 00 00 00 04 02 03 2a 14  ..............*.
	0x0010 04 03 03 73 15 06 2d 04 02 06 03 14 78 02 01 00  ...s..-.....x...
	0x0020 01 01                                            ..
	rel 3+8 t=R_ADDR command-line-arguments.LeadingZeros16<1>+0
aux for command-line-arguments.LeadingZeros16<0> SDWARFFCN size=125
	0x0000 03 63 6f 6d 6d 61 6e 64 2d 6c 69 6e 65 2d 61 72  .command-line-ar
	0x0010 67 75 6d 65 6e 74 73 2e 4c 65 61 64 69 6e 67 5a  guments.LeadingZ
	0x0020 65 72 6f 73 31 36 00 00 00 00 00 00 00 00 00 00  eros16..........
	0x0030 00 00 00 00 00 00 00 01 9c 02 00 00 00 30 01 12  .............0..
	0x0040 6e 00 00 30 00 00 00 00 00 00 00 00 11 7e 72 30  n..0.........~r0
	0x0050 00 01 30 00 00 00 00 00 08 00 00 00 00 00 00 00  ..0.............
	0x0060 00 00 00 00 00 00 00 00 00 00 00 00 00 02 00 00  ................
	0x0070 00 38 15 00 00 00 00 00 00 00 00 00 00           .8...........
	rel 0+0 t=R_USETYPE type:int<0>+0
	rel 39+8 t=R_ADDR command-line-arguments.LeadingZeros16<1>+0
	rel 47+8 t=R_ADDR command-line-arguments.LeadingZeros16<1>+15
	rel 68+4 t=R_DWARFSECREF go:info.uint16<0>+0
	rel 72+4 t=R_DWARFSECREF <0>+0
	rel 83+4 t=R_DWARFSECREF go:info.int<0>+0
	rel 89+4 t=R_DWARFSECREF go:info.math/bits.LeadingZeros16$abstract<0>+0
	rel 93+8 t=R_ADDR command-line-arguments.LeadingZeros16<1>+1
	rel 101+8 t=R_ADDR command-line-arguments.LeadingZeros16<1>+14
	rel 115+4 t=R_DWARFSECREF go:info.math/bits.LeadingZeros16$abstract<0>+29
	rel 119+4 t=R_DWARFSECREF <0>+51
aux for command-line-arguments.LeadingZeros8<0> SDWARFLOC size=102
	0x0000 ff ff ff ff ff ff ff ff 00 00 00 00 00 00 00 00  ................
	0x0010 00 00 00 00 00 00 00 00 0a 00 00 00 00 00 00 00  ................
	0x0020 01 00 50 00 00 00 00 00 00 00 00 00 00 00 00 00  ..P.............
	0x0030 00 00 00 ff ff ff ff ff ff ff ff 00 00 00 00 00  ................
	0x0040 00 00 00 00 00 00 00 00 00 00 00 0a 00 00 00 00  ................
	0x0050 00 00 00 01 00 50 00 00 00 00 00 00 00 00 00 00  .....P..........
	0x0060 00 00 00 00 00 00                                ......
	rel 8+8 t=R_ADDR command-line-arguments.LeadingZeros8<1>+0
	rel 59+8 t=R_ADDR command-line-arguments.LeadingZeros8<1>+0
aux for command-line-arguments.LeadingZeros8<0> SDWARFLINES size=34
	0x0000 00 09 02 00 00 00 00 00 00 00 00 04 02 03 35 14  ..............5.
	0x0010 04 03 03 65 15 06 2d 04 02 06 03 22 78 02 01 00  ...e..-...."x...
	0x0020 01 01                                            ..
	rel 3+8 t=R_ADDR command-line-arguments.LeadingZeros8<1>+0
aux for command-line-arguments.LeadingZeros8<0> SDWARFFCN size=124
	0x0000 03 63 6f 6d 6d 61 6e 64 2d 6c 69 6e 65 2d 61 72  .command-line-ar
	0x0010 67 75 6d 65 6e 74 73 2e 4c 65 61 64 69 6e 67 5a  guments.LeadingZ
	0x0020 65 72 6f 73 38 00 00 00 00 00 00 00 00 00 00 00  eros8...........
	0x0030 00 00 00 00 00 00 01 9c 02 00 00 00 3b 01 12 6e  ............;..n
	0x0040 00 00 3b 00 00 00 00 00 00 00 00 11 7e 72 30 00  ..;.........~r0.
	0x0050 01 3b 00 00 00 00 00 08 00 00 00 00 00 00 00 00  .;..............
	0x0060 00 00 00 00 00 00 00 00 00 00 00 00 02 00 00 00  ................
	0x0070 43 15 00 00 00 00 00 00 00 00 00 00              C...........
	rel 0+0 t=R_USETYPE type:int<0>+0
	rel 38+8 t=R_ADDR command-line-arguments.LeadingZeros8<1>+0
	rel 46+8 t=R_ADDR command-line-arguments.LeadingZeros8<1>+15
	rel 67+4 t=R_DWARFSECREF go:info.uint8<0>+0
	rel 71+4 t=R_DWARFSECREF <0>+0
	rel 82+4 t=R_DWARFSECREF go:info.int<0>+0
	rel 88+4 t=R_DWARFSECREF go:info.math/bits.LeadingZeros8$abstract<0>+0
	rel 92+8 t=R_ADDR command-line-arguments.LeadingZeros8<1>+1
	rel 100+8 t=R_ADDR command-line-arguments.LeadingZeros8<1>+14
	rel 114+4 t=R_DWARFSECREF go:info.math/bits.LeadingZeros8$abstract<0>+28
	rel 118+4 t=R_DWARFSECREF <0>+51
aux for command-line-arguments.Len<0> SDWARFLOC size=51
	0x0000 ff ff ff ff ff ff ff ff 00 00 00 00 00 00 00 00  ................
	0x0010 00 00 00 00 00 00 00 00 05 00 00 00 00 00 00 00  ................
	0x0020 01 00 50 00 00 00 00 00 00 00 00 00 00 00 00 00  ..P.............
	0x0030 00 00 00                                         ...
	rel 8+8 t=R_ADDR command-line-arguments.Len<1>+0
aux for command-line-arguments.Len<0> SDWARFLINES size=24
	0x0000 00 09 02 00 00 00 00 00 00 00 00 04 02 03 cc 00  ................
	0x0010 14 06 41 02 08 00 01 01                          ..A.....
	rel 3+8 t=R_ADDR command-line-arguments.Len<1>+0
aux for command-line-arguments.Len<0> SDWARFFCN size=78
	0x0000 03 63 6f 6d 6d 61 6e 64 2d 6c 69 6e 65 2d 61 72  .command-line-ar
	0x0010 67 75 6d 65 6e 74 73 2e 4c 65 6e 00 00 00 00 00  guments.Len.....
	0x0020 00 00 00 00 00 00 00 00 00 00 00 00 01 9c 02 00  ................
	0x0030 00 00 4a 01 12 6e 00 00 4a 00 00 00 00 00 00 00  ..J..n..J.......
	0x0040 00 11 7e 72 30 00 01 4a 00 00 00 00 00 00        ..~r0..J......
	rel 0+0 t=R_USETYPE type:int<0>+0
	rel 28+8 t=R_ADDR command-line-arguments.Len<1>+0
	rel 36+8 t=R_ADDR command-line-arguments.Len<1>+13
	rel 57+4 t=R_DWARFSECREF go:info.uint<0>+0
	rel 61+4 t=R_DWARFSECREF <0>+0
	rel 72+4 t=R_DWARFSECREF go:info.int<0>+0
aux for command-line-arguments.Len64<0> SDWARFLOC size=51
	0x0000 ff ff ff ff ff ff ff ff 00 00 00 00 00 00 00 00  ................
	0x0010 00 00 00 00 00 00 00 00 05 00 00 00 00 00 00 00  ................
	0x0020 01 00 50 00 00 00 00 00 00 00 00 00 00 00 00 00  ..P.............
	0x0030 00 00 00                                         ...
	rel 8+8 t=R_ADDR command-line-arguments.Len64<1>+0
aux for command-line-arguments.Len64<0> SDWARFLINES size=24
	0x0000 00 09 02 00 00 00 00 00 00 00 00 04 02 03 d7 00  ................
	0x0010 14 06 41 02 08 00 01 01                          ..A.....
	rel 3+8 t=R_ADDR command-line-arguments.Len64<1>+0
aux for command-line-arguments.Len64<0> SDWARFFCN size=80
	0x0000 03 63 6f 6d 6d 61 6e 64 2d 6c 69 6e 65 2d 61 72  .command-line-ar
	0x0010 67 75 6d 65 6e 74 73 2e 4c 65 6e 36 34 00 00 00  guments.Len64...
	0x0020 00 00 00 00 00 00 00 00 00 00 00 00 00 00 01 9c  ................
	0x0030 02 00 00 00 55 01 12 6e 00 00 55 00 00 00 00 00  ....U..n..U.....
	0x0040 00 00 00 11 7e 72 30 00 01 55 00 00 00 00 00 00  ....~r0..U......
	rel 0+0 t=R_USETYPE type:int<0>+0
	rel 30+8 t=R_ADDR command-line-arguments.Len64<1>+0
	rel 38+8 t=R_ADDR command-line-arguments.Len64<1>+13
	rel 59+4 t=R_DWARFSECREF go:info.uint64<0>+0
	rel 63+4 t=R_DWARFSECREF <0>+0
	rel 74+4 t=R_DWARFSECREF go:info.int<0>+0
aux for command-line-arguments.SubFromLen64<0> SDWARFLOC size=51
	0x0000 ff ff ff ff ff ff ff ff 00 00 00 00 00 00 00 00  ................
	0x0010 00 00 00 00 00 00 00 00 05 00 00 00 00 00 00 00  ................
	0x0020 01 00 50 00 00 00 00 00 00 00 00 00 00 00 00 00  ..P.............
	0x0030 00 00 00                                         ...
	rel 8+8 t=R_ADDR command-line-arguments.SubFromLen64<1>+0
aux for command-line-arguments.SubFromLen64<0> SDWARFLINES size=24
	0x0000 00 09 02 00 00 00 00 00 00 00 00 04 02 03 dc 00  ................
	0x0010 14 06 41 02 01 00 01 01                          ..A.....
	rel 3+8 t=R_ADDR command-line-arguments.SubFromLen64<1>+0
aux for command-line-arguments.SubFromLen64<0> SDWARFFCN size=87
	0x0000 03 63 6f 6d 6d 61 6e 64 2d 6c 69 6e 65 2d 61 72  .command-line-ar
	0x0010 67 75 6d 65 6e 74 73 2e 53 75 62 46 72 6f 6d 4c  guments.SubFromL
	0x0020 65 6e 36 34 00 00 00 00 00 00 00 00 00 00 00 00  en64............
	0x0030 00 00 00 00 00 01 9c 02 00 00 00 60 01 12 6e 00  ...........`..n.
	0x0040 00 60 00 00 00 00 00 00 00 00 11 7e 72 30 00 01  .`.........~r0..
	0x0050 60 00 00 00 00 00 00                             `......
	rel 0+0 t=R_USETYPE type:int<0>+0
	rel 37+8 t=R_ADDR command-line-arguments.SubFromLen64<1>+0
	rel 45+8 t=R_ADDR command-line-arguments.SubFromLen64<1>+6
	rel 66+4 t=R_DWARFSECREF go:info.uint64<0>+0
	rel 70+4 t=R_DWARFSECREF <0>+0
	rel 81+4 t=R_DWARFSECREF go:info.int<0>+0
aux for command-line-arguments.Len32<0> SDWARFLOC size=51
	0x0000 ff ff ff ff ff ff ff ff 00 00 00 00 00 00 00 00  ................
	0x0010 00 00 00 00 00 00 00 00 04 00 00 00 00 00 00 00  ................
	0x0020 01 00 50 00 00 00 00 00 00 00 00 00 00 00 00 00  ..P.............
	0x0030 00 00 00                                         ...
	rel 8+8 t=R_ADDR command-line-arguments.Len32<1>+0
aux for command-line-arguments.Len32<0> SDWARFLINES size=24
	0x0000 00 09 02 00 00 00 00 00 00 00 00 04 02 03 e7 00  ................
	0x0010 14 06 37 02 08 00 01 01                          ..7.....
	rel 3+8 t=R_ADDR command-line-arguments.Len32<1>+0
aux for command-line-arguments.Len32<0> SDWARFFCN size=80
	0x0000 03 63 6f 6d 6d 61 6e 64 2d 6c 69 6e 65 2d 61 72  .command-line-ar
	0x0010 67 75 6d 65 6e 74 73 2e 4c 65 6e 33 32 00 00 00  guments.Len32...
	0x0020 00 00 00 00 00 00 00 00 00 00 00 00 00 00 01 9c  ................
	0x0030 02 00 00 00 65 01 12 6e 00 00 65 00 00 00 00 00  ....e..n..e.....
	0x0040 00 00 00 11 7e 72 30 00 01 65 00 00 00 00 00 00  ....~r0..e......
	rel 0+0 t=R_USETYPE type:int<0>+0
	rel 30+8 t=R_ADDR command-line-arguments.Len32<1>+0
	rel 38+8 t=R_ADDR command-line-arguments.Len32<1>+12
	rel 59+4 t=R_DWARFSECREF go:info.uint32<0>+0
	rel 63+4 t=R_DWARFSECREF <0>+0
	rel 74+4 t=R_DWARFSECREF go:info.int<0>+0
aux for command-line-arguments.Len16<0> SDWARFLOC size=51
	0x0000 ff ff ff ff ff ff ff ff 00 00 00 00 00 00 00 00  ................
	0x0010 00 00 00 00 00 00 00 00 09 00 00 00 00 00 00 00  ................
	0x0020 01 00 50 00 00 00 00 00 00 00 00 00 00 00 00 00  ..P.............
	0x0030 00 00 00                                         ...
	rel 8+8 t=R_ADDR command-line-arguments.Len16<1>+0
aux for command-line-arguments.Len16<0> SDWARFLINES size=24
	0x0000 00 09 02 00 00 00 00 00 00 00 00 04 02 03 f2 00  ................
	0x0010 14 06 2d 02 0e 00 01 01                          ..-.....
	rel 3+8 t=R_ADDR command-line-arguments.Len16<1>+0
aux for command-line-arguments.Len16<0> SDWARFFCN size=80
	0x0000 03 63 6f 6d 6d 61 6e 64 2d 6c 69 6e 65 2d 61 72  .command-line-ar
	0x0010 67 75 6d 65 6e 74 73 2e 4c 65 6e 31 36 00 00 00  guments.Len16...
	0x0020 00 00 00 00 00 00 00 00 00 00 00 00 00 00 01 9c  ................
	0x0030 02 00 00 00 70 01 12 6e 00 00 70 00 00 00 00 00  ....p..n..p.....
	0x0040 00 00 00 11 7e 72 30 00 01 70 00 00 00 00 00 00  ....~r0..p......
	rel 0+0 t=R_USETYPE type:int<0>+0
	rel 30+8 t=R_ADDR command-line-arguments.Len16<1>+0
	rel 38+8 t=R_ADDR command-line-arguments.Len16<1>+17
	rel 59+4 t=R_DWARFSECREF go:info.uint16<0>+0
	rel 63+4 t=R_DWARFSECREF <0>+0
	rel 74+4 t=R_DWARFSECREF go:info.int<0>+0
aux for command-line-arguments.Len8<0> SDWARFLOC size=51
	0x0000 ff ff ff ff ff ff ff ff 00 00 00 00 00 00 00 00  ................
	0x0010 00 00 00 00 00 00 00 00 09 00 00 00 00 00 00 00  ................
	0x0020 01 00 50 00 00 00 00 00 00 00 00 00 00 00 00 00  ..P.............
	0x0030 00 00 00                                         ...
	rel 8+8 t=R_ADDR command-line-arguments.Len8<1>+0
aux for command-line-arguments.Len8<0> SDWARFLINES size=24
	0x0000 00 09 02 00 00 00 00 00 00 00 00 04 02 03 fd 00  ................
	0x0010 14 06 2d 02 0e 00 01 01                          ..-.....
	rel 3+8 t=R_ADDR command-line-arguments.Len8<1>+0
aux for command-line-arguments.Len8<0> SDWARFFCN size=79
	0x0000 03 63 6f 6d 6d 61 6e 64 2d 6c 69 6e 65 2d 61 72  .command-line-ar
	0x0010 67 75 6d 65 6e 74 73 2e 4c 65 6e 38 00 00 00 00  guments.Len8....
	0x0020 00 00 00 00 00 00 00 00 00 00 00 00 00 01 9c 02  ................
	0x0030 00 00 00 7b 01 12 6e 00 00 7b 00 00 00 00 00 00  ...{..n..{......
	0x0040 00 00 11 7e 72 30 00 01 7b 00 00 00 00 00 00     ...~r0..{......
	rel 0+0 t=R_USETYPE type:int<0>+0
	rel 29+8 t=R_ADDR command-line-arguments.Len8<1>+0
	rel 37+8 t=R_ADDR command-line-arguments.Len8<1>+17
	rel 58+4 t=R_DWARFSECREF go:info.uint8<0>+0
	rel 62+4 t=R_DWARFSECREF <0>+0
	rel 73+4 t=R_DWARFSECREF go:info.int<0>+0
aux for command-line-arguments.OnesCount<0> SDWARFLOC size=51
	0x0000 ff ff ff ff ff ff ff ff 00 00 00 00 00 00 00 00  ................
	0x0010 00 00 00 00 00 00 00 00 05 00 00 00 00 00 00 00  ................
	0x0020 01 00 50 00 00 00 00 00 00 00 00 00 00 00 00 00  ..P.............
	0x0030 00 00 00                                         ...
	rel 8+8 t=R_ADDR command-line-arguments.OnesCount<1>+0
aux for command-line-arguments.OnesCount<0> SDWARFLINES size=24
	0x0000 00 09 02 00 00 00 00 00 00 00 00 04 02 03 8c 01  ................
	0x0010 14 06 41 02 01 00 01 01                          ..A.....
	rel 3+8 t=R_ADDR command-line-arguments.OnesCount<1>+0
aux for command-line-arguments.OnesCount<0> SDWARFFCN size=87
	0x0000 03 63 6f 6d 6d 61 6e 64 2d 6c 69 6e 65 2d 61 72  .command-line-ar
	0x0010 67 75 6d 65 6e 74 73 2e 4f 6e 65 73 43 6f 75 6e  guments.OnesCoun
	0x0020 74 00 00 00 00 00 00 00 00 00 00 00 00 00 00 00  t...............
	0x0030 00 00 01 9c 02 00 00 00 8b 01 01 12 6e 00 00 8b  ............n...
	0x0040 01 00 00 00 00 00 00 00 00 11 7e 72 30 00 01 8b  ..........~r0...
	0x0050 01 00 00 00 00 00 00                             .......
	rel 0+0 t=R_USETYPE type:int<0>+0
	rel 34+8 t=R_ADDR command-line-arguments.OnesCount<1>+0
	rel 42+8 t=R_ADDR command-line-arguments.OnesCount<1>+6
	rel 65+4 t=R_DWARFSECREF go:info.uint<0>+0
	rel 69+4 t=R_DWARFSECREF <0>+0
	rel 81+4 t=R_DWARFSECREF go:info.int<0>+0
aux for command-line-arguments.OnesCount64<0> SDWARFLOC size=51
	0x0000 ff ff ff ff ff ff ff ff 00 00 00 00 00 00 00 00  ................
	0x0010 00 00 00 00 00 00 00 00 05 00 00 00 00 00 00 00  ................
	0x0020 01 00 50 00 00 00 00 00 00 00 00 00 00 00 00 00  ..P.............
	0x0030 00 00 00                                         ...
	rel 8+8 t=R_ADDR command-line-arguments.OnesCount64<1>+0
aux for command-line-arguments.OnesCount64<0> SDWARFLINES size=24
	0x0000 00 09 02 00 00 00 00 00 00 00 00 04 02 03 96 01  ................
	0x0010 14 06 41 02 01 00 01 01                          ..A.....
	rel 3+8 t=R_ADDR command-line-arguments.OnesCount64<1>+0
aux for command-line-arguments.OnesCount64<0> SDWARFFCN size=89
	0x0000 03 63 6f 6d 6d 61 6e 64 2d 6c 69 6e 65 2d 61 72  .command-line-ar
	0x0010 67 75 6d 65 6e 74 73 2e 4f 6e 65 73 43 6f 75 6e  guments.OnesCoun
	0x0020 74 36 34 00 00 00 00 00 00 00 00 00 00 00 00 00  t64.............
	0x0030 00 00 00 00 01 9c 02 00 00 00 95 01 01 12 6e 00  ..............n.
	0x0040 00 95 01 00 00 00 00 00 00 00 00 11 7e 72 30 00  ............~r0.
	0x0050 01 95 01 00 00 00 00 00 00                       .........
	rel 0+0 t=R_USETYPE type:int<0>+0
	rel 36+8 t=R_ADDR command-line-arguments.OnesCount64<1>+0
	rel 44+8 t=R_ADDR command-line-arguments.OnesCount64<1>+6
	rel 67+4 t=R_DWARFSECREF go:info.uint64<0>+0
	rel 71+4 t=R_DWARFSECREF <0>+0
	rel 83+4 t=R_DWARFSECREF go:info.int<0>+0
aux for command-line-arguments.OnesCount32<0> SDWARFLOC size=51
	0x0000 ff ff ff ff ff ff ff ff 00 00 00 00 00 00 00 00  ................
	0x0010 00 00 00 00 00 00 00 00 04 00 00 00 00 00 00 00  ................
	0x0020 01 00 50 00 00 00 00 00 00 00 00 00 00 00 00 00  ..P.............
	0x0030 00 00 00                                         ...
	rel 8+8 t=R_ADDR command-line-arguments.OnesCount32<1>+0
aux for command-line-arguments.OnesCount32<0> SDWARFLINES size=24
	0x0000 00 09 02 00 00 00 00 00 00 00 00 04 02 03 a0 01  ................
	0x0010 14 06 37 02 01 00 01 01                          ..7.....
	rel 3+8 t=R_ADDR command-line-arguments.OnesCount32<1>+0
aux for command-line-arguments.OnesCount32<0> SDWARFFCN size=89
	0x0000 03 63 6f 6d 6d 61 6e 64 2d 6c 69 6e 65 2d 61 72  .command-line-ar
	0x0010 67 75 6d 65 6e 74 73 2e 4f 6e 65 73 43 6f 75 6e  guments.OnesCoun
	0x0020 74 33 32 00 00 00 00 00 00 00 00 00 00 00 00 00  t32.............
	0x0030 00 00 00 00 01 9c 02 00 00 00 9f 01 01 12 6e 00  ..............n.
	0x0040 00 9f 01 00 00 00 00 00 00 00 00 11 7e 72 30 00  ............~r0.
	0x0050 01 9f 01 00 00 00 00 00 00                       .........
	rel 0+0 t=R_USETYPE type:int<0>+0
	rel 36+8 t=R_ADDR command-line-arguments.OnesCount32<1>+0
	rel 44+8 t=R_ADDR command-line-arguments.OnesCount32<1>+5
	rel 67+4 t=R_DWARFSECREF go:info.uint32<0>+0
	rel 71+4 t=R_DWARFSECREF <0>+0
	rel 83+4 t=R_DWARFSECREF go:info.int<0>+0
aux for command-line-arguments.OnesCount16<0> SDWARFLOC size=51
	0x0000 ff ff ff ff ff ff ff ff 00 00 00 00 00 00 00 00  ................
	0x0010 00 00 00 00 00 00 00 00 09 00 00 00 00 00 00 00  ................
	0x0020 01 00 50 00 00 00 00 00 00 00 00 00 00 00 00 00  ..P.............
	0x0030 00 00 00                                         ...
	rel 8+8 t=R_ADDR command-line-arguments.OnesCount16<1>+0
aux for command-line-arguments.OnesCount16<0> SDWARFLINES size=24
	0x0000 00 09 02 00 00 00 00 00 00 00 00 04 02 03 aa 01  ................
	0x0010 14 06 2d 02 07 00 01 01                          ..-.....
	rel 3+8 t=R_ADDR command-line-arguments.OnesCount16<1>+0
aux for command-line-arguments.OnesCount16<0> SDWARFFCN size=89
	0x0000 03 63 6f 6d 6d 61 6e 64 2d 6c 69 6e 65 2d 61 72  .command-line-ar
	0x0010 67 75 6d 65 6e 74 73 2e 4f 6e 65 73 43 6f 75 6e  guments.OnesCoun
	0x0020 74 31 36 00 00 00 00 00 00 00 00 00 00 00 00 00  t16.............
	0x0030 00 00 00 00 01 9c 02 00 00 00 a9 01 01 12 6e 00  ..............n.
	0x0040 00 a9 01 00 00 00 00 00 00 00 00 11 7e 72 30 00  ............~r0.
	0x0050 01 a9 01 00 00 00 00 00 00                       .........
	rel 0+0 t=R_USETYPE type:int<0>+0
	rel 36+8 t=R_ADDR command-line-arguments.OnesCount16<1>+0
	rel 44+8 t=R_ADDR command-line-arguments.OnesCount16<1>+10
	rel 67+4 t=R_DWARFSECREF go:info.uint16<0>+0
	rel 71+4 t=R_DWARFSECREF <0>+0
	rel 83+4 t=R_DWARFSECREF go:info.int<0>+0
aux for command-line-arguments.OnesCount8<0> SDWARFLOC size=102
	0x0000 ff ff ff ff ff ff ff ff 00 00 00 00 00 00 00 00  ................
	0x0010 00 00 00 00 00 00 00 00 0f 00 00 00 00 00 00 00  ................
	0x0020 01 00 50 00 00 00 00 00 00 00 00 00 00 00 00 00  ..P.............
	0x0030 00 00 00 ff ff ff ff ff ff ff ff 00 00 00 00 00  ................
	0x0040 00 00 00 00 00 00 00 00 00 00 00 0f 00 00 00 00  ................
	0x0050 00 00 00 01 00 50 00 00 00 00 00 00 00 00 00 00  .....P..........
	0x0060 00 00 00 00 00 00                                ......
	rel 8+8 t=R_ADDR command-line-arguments.OnesCount8<1>+0
	rel 59+8 t=R_ADDR command-line-arguments.OnesCount8<1>+0
aux for command-line-arguments.OnesCount8<0> SDWARFLINES size=35
	0x0000 00 09 02 00 00 00 00 00 00 00 00 04 02 03 ad 01  ................
	0x0010 14 04 03 03 4f 15 06 2d 04 02 06 03 34 82 02 01  ....O..-....4...
	0x0020 00 01 01                                         ...
	rel 3+8 t=R_ADDR command-line-arguments.OnesCount8<1>+0
aux for command-line-arguments.OnesCount8<0> SDWARFFCN size=125
	0x0000 03 63 6f 6d 6d 61 6e 64 2d 6c 69 6e 65 2d 61 72  .command-line-ar
	0x0010 67 75 6d 65 6e 74 73 2e 4f 6e 65 73 43 6f 75 6e  guments.OnesCoun
	0x0020 74 38 00 00 00 00 00 00 00 00 00 00 00 00 00 00  t8..............
	0x0030 00 00 00 01 9c 02 00 00 00 b3 01 01 12 6e 00 00  .............n..
	0x0040 b3 01 00 00 00 00 00 00 00 00 11 7e 72 30 00 01  ...........~r0..
	0x0050 b3 01 00 00 00 00 00 08 00 00 00 00 00 00 00 00  ................
	0x0060 00 00 00 00 00 00 00 00 00 00 00 00 02 00 00 00  ................
	0x0070 b7 01 15 00 00 00 00 00 00 00 00 00 00           .............
	rel 0+0 t=R_USETYPE type:int<0>+0
	rel 35+8 t=R_ADDR command-line-arguments.OnesCount8<1>+0
	rel 43+8 t=R_ADDR command-line-arguments.OnesCount8<1>+16
	rel 66+4 t=R_DWARFSECREF go:info.uint8<0>+0
	rel 70+4 t=R_DWARFSECREF <0>+0
	rel 82+4 t=R_DWARFSECREF go:info.int<0>+0
	rel 88+4 t=R_DWARFSECREF go:info.math/bits.OnesCount8$abstract<0>+0
	rel 92+8 t=R_ADDR command-line-arguments.OnesCount8<1>+1
	rel 100+8 t=R_ADDR command-line-arguments.OnesCount8<1>+15
	rel 115+4 t=R_DWARFSECREF go:info.math/bits.OnesCount8$abstract<0>+25
	rel 119+4 t=R_DWARFSECREF <0>+51
aux for command-line-arguments.ReverseBytes<0> SDWARFLOC size=102
	0x0000 ff ff ff ff ff ff ff ff 00 00 00 00 00 00 00 00  ................
	0x0010 00 00 00 00 00 00 00 00 04 00 00 00 00 00 00 00  ................
	0x0020 01 00 50 00 00 00 00 00 00 00 00 00 00 00 00 00  ..P.............
	0x0030 00 00 00 ff ff ff ff ff ff ff ff 00 00 00 00 00  ................
	0x0040 00 00 00 00 00 00 00 00 00 00 00 04 00 00 00 00  ................
	0x0050 00 00 00 01 00 50 00 00 00 00 00 00 00 00 00 00  .....P..........
	0x0060 00 00 00 00 00 00                                ......
	rel 8+8 t=R_ADDR command-line-arguments.ReverseBytes<1>+0
	rel 59+8 t=R_ADDR command-line-arguments.ReverseBytes<1>+0
aux for command-line-arguments.ReverseBytes<0> SDWARFLINES size=34
	0x0000 00 09 02 00 00 00 00 00 00 00 00 04 02 03 b8 01  ................
	0x0010 14 04 03 03 cb 00 1e 04 02 03 b9 7f 29 02 01 00  ............)...
	0x0020 01 01                                            ..
	rel 3+8 t=R_ADDR command-line-arguments.ReverseBytes<1>+0
aux for command-line-arguments.ReverseBytes<0> SDWARFFCN size=127
	0x0000 03 63 6f 6d 6d 61 6e 64 2d 6c 69 6e 65 2d 61 72  .command-line-ar
	0x0010 67 75 6d 65 6e 74 73 2e 52 65 76 65 72 73 65 42  guments.ReverseB
	0x0020 79 74 65 73 00 00 00 00 00 00 00 00 00 00 00 00  ytes............
	0x0030 00 00 00 00 00 01 9c 02 00 00 00 be 01 01 12 6e  ...............n
	0x0040 00 00 be 01 00 00 00 00 00 00 00 00 11 7e 72 30  .............~r0
	0x0050 00 01 be 01 00 00 00 00 00 08 00 00 00 00 00 00  ................
	0x0060 00 00 00 00 00 00 00 00 00 00 00 00 00 00 02 00  ................
	0x0070 00 00 c3 01 15 00 00 00 00 00 00 00 00 00 00     ...............
	rel 0+0 t=R_USETYPE type:uint<0>+0
	rel 37+8 t=R_ADDR command-line-arguments.ReverseBytes<1>+0
	rel 45+8 t=R_ADDR command-line-arguments.ReverseBytes<1>+5
	rel 68+4 t=R_DWARFSECREF go:info.uint<0>+0
	rel 72+4 t=R_DWARFSECREF <0>+0
	rel 84+4 t=R_DWARFSECREF go:info.uint<0>+0
	rel 90+4 t=R_DWARFSECREF go:info.math/bits.ReverseBytes$abstract<0>+0
	rel 94+8 t=R_ADDR command-line-arguments.ReverseBytes<1>+1
	rel 102+8 t=R_ADDR command-line-arguments.ReverseBytes<1>+4
	rel 117+4 t=R_DWARFSECREF go:info.math/bits.ReverseBytes$abstract<0>+28
	rel 121+4 t=R_DWARFSECREF <0>+51
aux for command-line-arguments.ReverseBytes64<0> SDWARFLOC size=51
	0x0000 ff ff ff ff ff ff ff ff 00 00 00 00 00 00 00 00  ................
	0x0010 00 00 00 00 00 00 00 00 03 00 00 00 00 00 00 00  ................
	0x0020 01 00 50 00 00 00 00 00 00 00 00 00 00 00 00 00  ..P.............
	0x0030 00 00 00                                         ...
	rel 8+8 t=R_ADDR command-line-arguments.ReverseBytes64<1>+0
aux for command-line-arguments.ReverseBytes64<0> SDWARFLINES size=24
	0x0000 00 09 02 00 00 00 00 00 00 00 00 04 02 03 c6 01  ................
	0x0010 14 06 2d 02 01 00 01 01                          ..-.....
	rel 3+8 t=R_ADDR command-line-arguments.ReverseBytes64<1>+0
aux for command-line-arguments.ReverseBytes64<0> SDWARFFCN size=92
	0x0000 03 63 6f 6d 6d 61 6e 64 2d 6c 69 6e 65 2d 61 72  .command-line-ar
	0x0010 67 75 6d 65 6e 74 73 2e 52 65 76 65 72 73 65 42  guments.ReverseB
	0x0020 79 74 65 73 36 34 00 00 00 00 00 00 00 00 00 00  ytes64..........
	0x0030 00 00 00 00 00 00 00 01 9c 02 00 00 00 c6 01 01  ................
	0x0040 12 6e 00 00 c6 01 00 00 00 00 00 00 00 00 11 7e  .n.............~
	0x0050 72 30 00 01 c6 01 00 00 00 00 00 00              r0..........
	rel 0+0 t=R_USETYPE type:uint64<0>+0
	rel 39+8 t=R_ADDR command-line-arguments.ReverseBytes64<1>+0
	rel 47+8 t=R_ADDR command-line-arguments.ReverseBytes64<1>+4
	rel 70+4 t=R_DWARFSECREF go:info.uint64<0>+0
	rel 74+4 t=R_DWARFSECREF <0>+0
	rel 86+4 t=R_DWARFSECREF go:info.uint64<0>+0
aux for command-line-arguments.ReverseBytes32<0> SDWARFLOC size=51
	0x0000 ff ff ff ff ff ff ff ff 00 00 00 00 00 00 00 00  ................
	0x0010 00 00 00 00 00 00 00 00 02 00 00 00 00 00 00 00  ................
	0x0020 01 00 50 00 00 00 00 00 00 00 00 00 00 00 00 00  ..P.............
	0x0030 00 00 00                                         ...
	rel 8+8 t=R_ADDR command-line-arguments.ReverseBytes32<1>+0
aux for command-line-arguments.ReverseBytes32<0> SDWARFLINES size=24
	0x0000 00 09 02 00 00 00 00 00 00 00 00 04 02 03 cf 01  ................
	0x0010 14 06 23 02 01 00 01 01                          ..#.....
	rel 3+8 t=R_ADDR command-line-arguments.ReverseBytes32<1>+0
aux for command-line-arguments.ReverseBytes32<0> SDWARFFCN size=92
	0x0000 03 63 6f 6d 6d 61 6e 64 2d 6c 69 6e 65 2d 61 72  .command-line-ar
	0x0010 67 75 6d 65 6e 74 73 2e 52 65 76 65 72 73 65 42  guments.ReverseB
	0x0020 79 74 65 73 33 32 00 00 00 00 00 00 00 00 00 00  ytes32..........
	0x0030 00 00 00 00 00 00 00 01 9c 02 00 00 00 cf 01 01  ................
	0x0040 12 6e 00 00 cf 01 00 00 00 00 00 00 00 00 11 7e  .n.............~
	0x0050 72 30 00 01 cf 01 00 00 00 00 00 00              r0..........
	rel 0+0 t=R_USETYPE type:uint32<0>+0
	rel 39+8 t=R_ADDR command-line-arguments.ReverseBytes32<1>+0
	rel 47+8 t=R_ADDR command-line-arguments.ReverseBytes32<1>+3
	rel 70+4 t=R_DWARFSECREF go:info.uint32<0>+0
	rel 74+4 t=R_DWARFSECREF <0>+0
	rel 86+4 t=R_DWARFSECREF go:info.uint32<0>+0
aux for command-line-arguments.ReverseBytes16<0> SDWARFLOC size=102
	0x0000 ff ff ff ff ff ff ff ff 00 00 00 00 00 00 00 00  ................
	0x0010 00 00 00 00 00 00 00 00 05 00 00 00 00 00 00 00  ................
	0x0020 01 00 50 00 00 00 00 00 00 00 00 00 00 00 00 00  ..P.............
	0x0030 00 00 00 ff ff ff ff ff ff ff ff 00 00 00 00 00  ................
	0x0040 00 00 00 00 00 00 00 00 00 00 00 05 00 00 00 00  ................
	0x0050 00 00 00 01 00 50 00 00 00 00 00 00 00 00 00 00  .....P..........
	0x0060 00 00 00 00 00 00                                ......
	rel 8+8 t=R_ADDR command-line-arguments.ReverseBytes16<1>+0
	rel 59+8 t=R_ADDR command-line-arguments.ReverseBytes16<1>+0
aux for command-line-arguments.ReverseBytes16<0> SDWARFLINES size=32
	0x0000 00 09 02 00 00 00 00 00 00 00 00 04 02 03 d2 01  ................
	0x0010 14 04 03 03 38 1e 04 02 03 4e 33 02 01 00 01 01  ....8....N3.....
	rel 3+8 t=R_ADDR command-line-arguments.ReverseBytes16<1>+0
aux for command-line-arguments.ReverseBytes16<0> SDWARFFCN size=129
	0x0000 03 63 6f 6d 6d 61 6e 64 2d 6c 69 6e 65 2d 61 72  .command-line-ar
	0x0010 67 75 6d 65 6e 74 73 2e 52 65 76 65 72 73 65 42  guments.ReverseB
	0x0020 79 74 65 73 31 36 00 00 00 00 00 00 00 00 00 00  ytes16..........
	0x0030 00 00 00 00 00 00 00 01 9c 02 00 00 00 d8 01 01  ................
	0x0040 12 6e 00 00 d8 01 00 00 00 00 00 00 00 00 11 7e  .n.............~
	0x0050 72 30 00 01 d8 01 00 00 00 00 00 08 00 00 00 00  r0..............
	0x0060 00 00 00 00 00 00 00 00 00 00 00 00 00 00 00 00  ................
	0x0070 02 00 00 00 df 01 15 00 00 00 00 00 00 00 00 00  ................
	0x0080 00                                               .
	rel 0+0 t=R_USETYPE type:uint16<0>+0
	rel 39+8 t=R_ADDR command-line-arguments.ReverseBytes16<1>+0
	rel 47+8 t=R_ADDR command-line-arguments.ReverseBytes16<1>+6
	rel 70+4 t=R_DWARFSECREF go:info.uint16<0>+0
	rel 74+4 t=R_DWARFSECREF <0>+0
	rel 86+4 t=R_DWARFSECREF go:info.uint16<0>+0
	rel 92+4 t=R_DWARFSECREF go:info.math/bits.ReverseBytes16$abstract<0>+0
	rel 96+8 t=R_ADDR command-line-arguments.ReverseBytes16<1>+1
	rel 104+8 t=R_ADDR command-line-arguments.ReverseBytes16<1>+5
	rel 119+4 t=R_DWARFSECREF go:info.math/bits.ReverseBytes16$abstract<0>+30
	rel 123+4 t=R_DWARFSECREF <0>+51
aux for command-line-arguments.RotateLeft64<0> SDWARFLOC size=51
	0x0000 ff ff ff ff ff ff ff ff 00 00 00 00 00 00 00 00  ................
	0x0010 00 00 00 00 00 00 00 00 04 00 00 00 00 00 00 00  ................
	0x0020 01 00 50 00 00 00 00 00 00 00 00 00 00 00 00 00  ..P.............
	0x0030 00 00 00                                         ...
	rel 8+8 t=R_ADDR command-line-arguments.RotateLeft64<1>+0
aux for command-line-arguments.RotateLeft64<0> SDWARFLINES size=24
	0x0000 00 09 02 00 00 00 00 00 00 00 00 04 02 03 e6 01  ................
	0x0010 14 06 37 02 01 00 01 01                          ..7.....
	rel 3+8 t=R_ADDR command-line-arguments.RotateLeft64<1>+0
aux for command-line-arguments.RotateLeft64<0> SDWARFFCN size=90
	0x0000 03 63 6f 6d 6d 61 6e 64 2d 6c 69 6e 65 2d 61 72  .command-line-ar
	0x0010 67 75 6d 65 6e 74 73 2e 52 6f 74 61 74 65 4c 65  guments.RotateLe
	0x0020 66 74 36 34 00 00 00 00 00 00 00 00 00 00 00 00  ft64............
	0x0030 00 00 00 00 00 01 9c 02 00 00 00 e6 01 01 12 6e  ...............n
	0x0040 00 00 e6 01 00 00 00 00 00 00 00 00 11 7e 72 30  .............~r0
	0x0050 00 01 e6 01 00 00 00 00 00 00                    ..........
	rel 0+0 t=R_USETYPE type:uint64<0>+0
	rel 37+8 t=R_ADDR command-line-arguments.RotateLeft64<1>+0
	rel 45+8 t=R_ADDR command-line-arguments.RotateLeft64<1>+5
	rel 68+4 t=R_DWARFSECREF go:info.uint64<0>+0
	rel 72+4 t=R_DWARFSECREF <0>+0
	rel 84+4 t=R_DWARFSECREF go:info.uint64<0>+0
aux for command-line-arguments.RotateLeft32<0> SDWARFLOC size=51
	0x0000 ff ff ff ff ff ff ff ff 00 00 00 00 00 00 00 00  ................
	0x0010 00 00 00 00 00 00 00 00 03 00 00 00 00 00 00 00  ................
	0x0020 01 00 50 00 00 00 00 00 00 00 00 00 00 00 00 00  ..P.............
	0x0030 00 00 00                                         ...
	rel 8+8 t=R_ADDR command-line-arguments.RotateLeft32<1>+0
aux for command-line-arguments.RotateLeft32<0> SDWARFLINES size=24
	0x0000 00 09 02 00 00 00 00 00 00 00 00 04 02 03 f0 01  ................
	0x0010 14 06 2d 02 01 00 01 01                          ..-.....
	rel 3+8 t=R_ADDR command-line-arguments.RotateLeft32<1>+0
aux for command-line-arguments.RotateLeft32<0> SDWARFFCN size=90
	0x0000 03 63 6f 6d 6d 61 6e 64 2d 6c 69 6e 65 2d 61 72  .command-line-ar
	0x0010 67 75 6d 65 6e 74 73 2e 52 6f 74 61 74 65 4c 65  guments.RotateLe
	0x0020 66 74 33 32 00 00 00 00 00 00 00 00 00 00 00 00  ft32............
	0x0030 00 00 00 00 00 01 9c 02 00 00 00 ef 01 01 12 6e  ...............n
	0x0040 00 00 ef 01 00 00 00 00 00 00 00 00 11 7e 72 30  .............~r0
	0x0050 00 01 ef 01 00 00 00 00 00 00                    ..........
	rel 0+0 t=R_USETYPE type:uint32<0>+0
	rel 37+8 t=R_ADDR command-line-arguments.RotateLeft32<1>+0
	rel 45+8 t=R_ADDR command-line-arguments.RotateLeft32<1>+4
	rel 68+4 t=R_DWARFSECREF go:info.uint32<0>+0
	rel 72+4 t=R_DWARFSECREF <0>+0
	rel 84+4 t=R_DWARFSECREF go:info.uint32<0>+0
aux for command-line-arguments.RotateLeft16<0> SDWARFLOC size=102
	0x0000 ff ff ff ff ff ff ff ff 00 00 00 00 00 00 00 00  ................
	0x0010 00 00 00 00 00 00 00 00 06 00 00 00 00 00 00 00  ................
	0x0020 01 00 50 00 00 00 00 00 00 00 00 00 00 00 00 00  ..P.............
	0x0030 00 00 00 ff ff ff ff ff ff ff ff 00 00 00 00 00  ................
	0x0040 00 00 00 00 00 00 00 00 00 00 00 07 00 00 00 00  ................
	0x0050 00 00 00 01 00 53 00 00 00 00 00 00 00 00 00 00  .....S..........
	0x0060 00 00 00 00 00 00                                ......
	rel 8+8 t=R_ADDR command-line-arguments.RotateLeft16<1>+0
	rel 59+8 t=R_ADDR command-line-arguments.RotateLeft16<1>+0
aux for command-line-arguments.RotateLeft16<0> SDWARFLINES size=24
	0x0000 00 09 02 00 00 00 00 00 00 00 00 04 02 03 f6 01  ................
	0x0010 14 06 2d 02 04 00 01 01                          ..-.....
	rel 3+8 t=R_ADDR command-line-arguments.RotateLeft16<1>+0
aux for command-line-arguments.RotateLeft16<0> SDWARFFCN size=104
	0x0000 03 63 6f 6d 6d 61 6e 64 2d 6c 69 6e 65 2d 61 72  .command-line-ar
	0x0010 67 75 6d 65 6e 74 73 2e 52 6f 74 61 74 65 4c 65  guments.RotateLe
	0x0020 66 74 31 36 00 00 00 00 00 00 00 00 00 00 00 00  ft16............
	0x0030 00 00 00 00 00 01 9c 02 00 00 00 f9 01 01 12 6e  ...............n
	0x0040 00 00 f9 01 00 00 00 00 00 00 00 00 12 73 00 00  .............s..
	0x0050 f9 01 00 00 00 00 00 00 00 00 11 7e 72 30 00 01  ...........~r0..
	0x0060 f9 01 00 00 00 00 00 00                          ........
	rel 0+0 t=R_USETYPE type:uint16<0>+0
	rel 37+8 t=R_ADDR command-line-arguments.RotateLeft16<1>+0
	rel 45+8 t=R_ADDR command-line-arguments.RotateLeft16<1>+7
	rel 68+4 t=R_DWARFSECREF go:info.uint16<0>+0
	rel 72+4 t=R_DWARFSECREF <0>+0
	rel 82+4 t=R_DWARFSECREF go:info.int<0>+0
	rel 86+4 t=R_DWARFSECREF <0>+51
	rel 98+4 t=R_DWARFSECREF go:info.uint16<0>+0
aux for command-line-arguments.RotateLeft8<0> SDWARFLOC size=102
	0x0000 ff ff ff ff ff ff ff ff 00 00 00 00 00 00 00 00  ................
	0x0010 00 00 00 00 00 00 00 00 05 00 00 00 00 00 00 00  ................
	0x0020 01 00 50 00 00 00 00 00 00 00 00 00 00 00 00 00  ..P.............
	0x0030 00 00 00 ff ff ff ff ff ff ff ff 00 00 00 00 00  ................
	0x0040 00 00 00 00 00 00 00 00 00 00 00 06 00 00 00 00  ................
	0x0050 00 00 00 01 00 53 00 00 00 00 00 00 00 00 00 00  .....S..........
	0x0060 00 00 00 00 00 00                                ......
	rel 8+8 t=R_ADDR command-line-arguments.RotateLeft8<1>+0
	rel 59+8 t=R_ADDR command-line-arguments.RotateLeft8<1>+0
aux for command-line-arguments.RotateLeft8<0> SDWARFLINES size=24
	0x0000 00 09 02 00 00 00 00 00 00 00 00 04 02 03 fc 01  ................
	0x0010 14 06 2d 02 03 00 01 01                          ..-.....
	rel 3+8 t=R_ADDR command-line-arguments.RotateLeft8<1>+0
aux for command-line-arguments.RotateLeft8<0> SDWARFFCN size=103
	0x0000 03 63 6f 6d 6d 61 6e 64 2d 6c 69 6e 65 2d 61 72  .command-line-ar
	0x0010 67 75 6d 65 6e 74 73 2e 52 6f 74 61 74 65 4c 65  guments.RotateLe
	0x0020 66 74 38 00 00 00 00 00 00 00 00 00 00 00 00 00  ft8.............
	0x0030 00 00 00 00 01 9c 02 00 00 00 ff 01 01 12 6e 00  ..............n.
	0x0040 00 ff 01 00 00 00 00 00 00 00 00 12 73 00 00 ff  ............s...
	0x0050 01 00 00 00 00 00 00 00 00 11 7e 72 30 00 01 ff  ..........~r0...
	0x0060 01 00 00 00 00 00 00                             .......
	rel 0+0 t=R_USETYPE type:uint8<0>+0
	rel 36+8 t=R_ADDR command-line-arguments.RotateLeft8<1>+0
	rel 44+8 t=R_ADDR command-line-arguments.RotateLeft8<1>+6
	rel 67+4 t=R_DWARFSECREF go:info.uint8<0>+0
	rel 71+4 t=R_DWARFSECREF <0>+0
	rel 81+4 t=R_DWARFSECREF go:info.int<0>+0
	rel 85+4 t=R_DWARFSECREF <0>+51
	rel 97+4 t=R_DWARFSECREF go:info.uint8<0>+0
aux for command-line-arguments.RotateLeftVariable<0> SDWARFLOC size=102
	0x0000 ff ff ff ff ff ff ff ff 00 00 00 00 00 00 00 00  ................
	0x0010 00 00 00 00 00 00 00 00 06 00 00 00 00 00 00 00  ................
	0x0020 01 00 50 00 00 00 00 00 00 00 00 00 00 00 00 00  ..P.............
	0x0030 00 00 00 ff ff ff ff ff ff ff ff 00 00 00 00 00  ................
	0x0040 00 00 00 00 00 00 00 00 00 00 00 07 00 00 00 00  ................
	0x0050 00 00 00 01 00 53 00 00 00 00 00 00 00 00 00 00  .....S..........
	0x0060 00 00 00 00 00 00                                ......
	rel 8+8 t=R_ADDR command-line-arguments.RotateLeftVariable<1>+0
	rel 59+8 t=R_ADDR command-line-arguments.RotateLeftVariable<1>+0
aux for command-line-arguments.RotateLeftVariable<0> SDWARFLINES size=24
	0x0000 00 09 02 00 00 00 00 00 00 00 00 04 02 03 85 02  ................
	0x0010 14 06 2d 02 04 00 01 01                          ..-.....
	rel 3+8 t=R_ADDR command-line-arguments.RotateLeftVariable<1>+0
aux for command-line-arguments.RotateLeftVariable<0> SDWARFFCN size=110
	0x0000 03 63 6f 6d 6d 61 6e 64 2d 6c 69 6e 65 2d 61 72  .command-line-ar
	0x0010 67 75 6d 65 6e 74 73 2e 52 6f 74 61 74 65 4c 65  guments.RotateLe
	0x0020 66 74 56 61 72 69 61 62 6c 65 00 00 00 00 00 00  ftVariable......
	0x0030 00 00 00 00 00 00 00 00 00 00 00 01 9c 02 00 00  ................
	0x0040 00 85 02 01 12 6e 00 00 85 02 00 00 00 00 00 00  .....n..........
	0x0050 00 00 12 6d 00 00 85 02 00 00 00 00 00 00 00 00  ...m............
	0x0060 11 7e 72 30 00 01 85 02 00 00 00 00 00 00        .~r0..........
	rel 0+0 t=R_USETYPE type:uint<0>+0
	rel 43+8 t=R_ADDR command-line-arguments.RotateLeftVariable<1>+0
	rel 51+8 t=R_ADDR command-line-arguments.RotateLeftVariable<1>+7
	rel 74+4 t=R_DWARFSECREF go:info.uint<0>+0
	rel 78+4 t=R_DWARFSECREF <0>+0
	rel 88+4 t=R_DWARFSECREF go:info.int<0>+0
	rel 92+4 t=R_DWARFSECREF <0>+51
	rel 104+4 t=R_DWARFSECREF go:info.uint<0>+0
aux for command-line-arguments.RotateLeftVariable64<0> SDWARFLOC size=102
	0x0000 ff ff ff ff ff ff ff ff 00 00 00 00 00 00 00 00  ................
	0x0010 00 00 00 00 00 00 00 00 06 00 00 00 00 00 00 00  ................
	0x0020 01 00 50 00 00 00 00 00 00 00 00 00 00 00 00 00  ..P.............
	0x0030 00 00 00 ff ff ff ff ff ff ff ff 00 00 00 00 00  ................
	0x0040 00 00 00 00 00 00 00 00 00 00 00 07 00 00 00 00  ................
	0x0050 00 00 00 01 00 53 00 00 00 00 00 00 00 00 00 00  .....S..........
	0x0060 00 00 00 00 00 00                                ......
	rel 8+8 t=R_ADDR command-line-arguments.RotateLeftVariable64<1>+0
	rel 59+8 t=R_ADDR command-line-arguments.RotateLeftVariable64<1>+0
aux for command-line-arguments.RotateLeftVariable64<0> SDWARFLINES size=24
	0x0000 00 09 02 00 00 00 00 00 00 00 00 04 02 03 8e 02  ................
	0x0010 14 06 2d 02 04 00 01 01                          ..-.....
	rel 3+8 t=R_ADDR command-line-arguments.RotateLeftVariable64<1>+0
aux for command-line-arguments.RotateLeftVariable64<0> SDWARFFCN size=112
	0x0000 03 63 6f 6d 6d 61 6e 64 2d 6c 69 6e 65 2d 61 72  .command-line-ar
	0x0010 67 75 6d 65 6e 74 73 2e 52 6f 74 61 74 65 4c 65  guments.RotateLe
	0x0020 66 74 56 61 72 69 61 62 6c 65 36 34 00 00 00 00  ftVariable64....
	0x0030 00 00 00 00 00 00 00 00 00 00 00 00 00 01 9c 02  ................
	0x0040 00 00 00 8e 02 01 12 6e 00 00 8e 02 00 00 00 00  .......n........
	0x0050 00 00 00 00 12 6d 00 00 8e 02 00 00 00 00 00 00  .....m..........
	0x0060 00 00 11 7e 72 30 00 01 8e 02 00 00 00 00 00 00  ...~r0..........
	rel 0+0 t=R_USETYPE type:uint64<0>+0
	rel 45+8 t=R_ADDR command-line-arguments.RotateLeftVariable64<1>+0
	rel 53+8 t=R_ADDR command-line-arguments.RotateLeftVariable64<1>+7
	rel 76+4 t=R_DWARFSECREF go:info.uint64<0>+0
	rel 80+4 t=R_DWARFSECREF <0>+0
	rel 90+4 t=R_DWARFSECREF go:info.int<0>+0
	rel 94+4 t=R_DWARFSECREF <0>+51
	rel 106+4 t=R_DWARFSECREF go:info.uint64<0>+0
aux for command-line-arguments.RotateLeftVariable32<0> SDWARFLOC size=102
	0x0000 ff ff ff ff ff ff ff ff 00 00 00 00 00 00 00 00  ................
	0x0010 00 00 00 00 00 00 00 00 05 00 00 00 00 00 00 00  ................
	0x0020 01 00 50 00 00 00 00 00 00 00 00 00 00 00 00 00  ..P.............
	0x0030 00 00 00 ff ff ff ff ff ff ff ff 00 00 00 00 00  ................
	0x0040 00 00 00 00 00 00 00 00 00 00 00 06 00 00 00 00  ................
	0x0050 00 00 00 01 00 53 00 00 00 00 00 00 00 00 00 00  .....S..........
	0x0060 00 00 00 00 00 00                                ......
	rel 8+8 t=R_ADDR command-line-arguments.RotateLeftVariable32<1>+0
	rel 59+8 t=R_ADDR command-line-arguments.RotateLeftVariable32<1>+0
aux for command-line-arguments.RotateLeftVariable32<0> SDWARFLINES size=24
	0x0000 00 09 02 00 00 00 00 00 00 00 00 04 02 03 98 02  ................
	0x0010 14 06 2d 02 03 00 01 01                          ..-.....
	rel 3+8 t=R_ADDR command-line-arguments.RotateLeftVariable32<1>+0
aux for command-line-arguments.RotateLeftVariable32<0> SDWARFFCN size=112
	0x0000 03 63 6f 6d 6d 61 6e 64 2d 6c 69 6e 65 2d 61 72  .command-line-ar
	0x0010 67 75 6d 65 6e 74 73 2e 52 6f 74 61 74 65 4c 65  guments.RotateLe
	0x0020 66 74 56 61 72 69 61 62 6c 65 33 32 00 00 00 00  ftVariable32....
	0x0030 00 00 00 00 00 00 00 00 00 00 00 00 00 01 9c 02  ................
	0x0040 00 00 00 97 02 01 12 6e 00 00 97 02 00 00 00 00  .......n........
	0x0050 00 00 00 00 12 6d 00 00 97 02 00 00 00 00 00 00  .....m..........
	0x0060 00 00 11 7e 72 30 00 01 97 02 00 00 00 00 00 00  ...~r0..........
	rel 0+0 t=R_USETYPE type:uint32<0>+0
	rel 45+8 t=R_ADDR command-line-arguments.RotateLeftVariable32<1>+0
	rel 53+8 t=R_ADDR command-line-arguments.RotateLeftVariable32<1>+6
	rel 76+4 t=R_DWARFSECREF go:info.uint32<0>+0
	rel 80+4 t=R_DWARFSECREF <0>+0
	rel 90+4 t=R_DWARFSECREF go:info.int<0>+0
	rel 94+4 t=R_DWARFSECREF <0>+51
	rel 106+4 t=R_DWARFSECREF go:info.uint32<0>+0
aux for command-line-arguments.TrailingZeros<0> SDWARFLOC size=102
	0x0000 ff ff ff ff ff ff ff ff 00 00 00 00 00 00 00 00  ................
	0x0010 00 00 00 00 00 00 00 00 06 00 00 00 00 00 00 00  ................
	0x0020 01 00 50 00 00 00 00 00 00 00 00 00 00 00 00 00  ..P.............
	0x0030 00 00 00 ff ff ff ff ff ff ff ff 00 00 00 00 00  ................
	0x0040 00 00 00 00 00 00 00 00 00 00 00 06 00 00 00 00  ................
	0x0050 00 00 00 01 00 50 00 00 00 00 00 00 00 00 00 00  .....P..........
	0x0060 00 00 00 00 00 00                                ......
	rel 8+8 t=R_ADDR command-line-arguments.TrailingZeros<1>+0
	rel 59+8 t=R_ADDR command-line-arguments.TrailingZeros<1>+0
aux for command-line-arguments.TrailingZeros<0> SDWARFLINES size=34
	0x0000 00 09 02 00 00 00 00 00 00 00 00 04 02 03 9f 02  ................
	0x0010 14 04 03 03 9e 7e 15 04 02 03 eb 01 46 02 01 00  .....~......F...
	0x0020 01 01                                            ..
	rel 3+8 t=R_ADDR command-line-arguments.TrailingZeros<1>+0
aux for command-line-arguments.TrailingZeros<0> SDWARFFCN size=128
	0x0000 03 63 6f 6d 6d 61 6e 64 2d 6c 69 6e 65 2d 61 72  .command-line-ar
	0x0010 67 75 6d 65 6e 74 73 2e 54 72 61 69 6c 69 6e 67  guments.Trailing
	0x0020 5a 65 72 6f 73 00 00 00 00 00 00 00 00 00 00 00  Zeros...........
	0x0030 00 00 00 00 00 00 01 9c 02 00 00 00 a5 02 01 12  ................
	0x0040 6e 00 00 a5 02 00 00 00 00 00 00 00 00 11 7e 72  n.............~r
	0x0050 30 00 01 a5 02 00 00 00 00 00 08 00 00 00 00 00  0...............
	0x0060 00 00 00 00 00 00 00 00 00 00 00 00 00 00 00 02  ................
	0x0070 00 00 00 af 02 15 00 00 00 00 00 00 00 00 00 00  ................
	rel 0+0 t=R_USETYPE type:int<0>+0
	rel 38+8 t=R_ADDR command-line-arguments.TrailingZeros<1>+0
	rel 46+8 t=R_ADDR command-line-arguments.TrailingZeros<1>+7
	rel 69+4 t=R_DWARFSECREF go:info.uint<0>+0
	rel 73+4 t=R_DWARFSECREF <0>+0
	rel 85+4 t=R_DWARFSECREF go:info.int<0>+0
	rel 91+4 t=R_DWARFSECREF go:info.math/bits.TrailingZeros$abstract<0>+0
	rel 95+8 t=R_ADDR command-line-arguments.TrailingZeros<1>+1
	rel 103+8 t=R_ADDR command-line-arguments.TrailingZeros<1>+6
	rel 118+4 t=R_DWARFSECREF go:info.math/bits.TrailingZeros$abstract<0>+28
	rel 122+4 t=R_DWARFSECREF <0>+51
aux for command-line-arguments.TrailingZeros64<0> SDWARFLOC size=51
	0x0000 ff ff ff ff ff ff ff ff 00 00 00 00 00 00 00 00  ................
	0x0010 00 00 00 00 00 00 00 00 05 00 00 00 00 00 00 00  ................
	0x0020 01 00 50 00 00 00 00 00 00 00 00 00 00 00 00 00  ..P.............
	0x0030 00 00 00                                         ...
	rel 8+8 t=R_ADDR command-line-arguments.TrailingZeros64<1>+0
aux for command-line-arguments.TrailingZeros64<0> SDWARFLINES size=24
	0x0000 00 09 02 00 00 00 00 00 00 00 00 04 02 03 b5 02  ................
	0x0010 14 06 41 02 01 00 01 01                          ..A.....
	rel 3+8 t=R_ADDR command-line-arguments.TrailingZeros64<1>+0
aux for command-line-arguments.TrailingZeros64<0> SDWARFFCN size=93
	0x0000 03 63 6f 6d 6d 61 6e 64 2d 6c 69 6e 65 2d 61 72  .command-line-ar
	0x0010 67 75 6d 65 6e 74 73 2e 54 72 61 69 6c 69 6e 67  guments.Trailing
	0x0020 5a 65 72 6f 73 36 34 00 00 00 00 00 00 00 00 00  Zeros64.........
	0x0030 00 00 00 00 00 00 00 00 01 9c 02 00 00 00 b2 02  ................
	0x0040 01 12 6e 00 00 b2 02 00 00 00 00 00 00 00 00 11  ..n.............
	0x0050 7e 72 30 00 01 b2 02 00 00 00 00 00 00           ~r0..........
	rel 0+0 t=R_USETYPE type:int<0>+0
	rel 40+8 t=R_ADDR command-line-arguments.TrailingZeros64<1>+0
	rel 48+8 t=R_ADDR command-line-arguments.TrailingZeros64<1>+6
	rel 71+4 t=R_DWARFSECREF go:info.uint64<0>+0
	rel 75+4 t=R_DWARFSECREF <0>+0
	rel 87+4 t=R_DWARFSECREF go:info.int<0>+0
aux for command-line-arguments.TrailingZeros64Subtract<0> SDWARFLOC size=51
	0x0000 ff ff ff ff ff ff ff ff 00 00 00 00 00 00 00 00  ................
	0x0010 00 00 00 00 00 00 00 00 0e 00 00 00 00 00 00 00  ................
	0x0020 01 00 50 00 00 00 00 00 00 00 00 00 00 00 00 00  ..P.............
	0x0030 00 00 00                                         ...
	rel 8+8 t=R_ADDR command-line-arguments.TrailingZeros64Subtract<1>+0
aux for command-line-arguments.TrailingZeros64Subtract<0> SDWARFLINES size=24
	0x0000 00 09 02 00 00 00 00 00 00 00 00 04 02 03 bb 02  ................
	0x0010 14 06 37 02 0b 00 01 01                          ..7.....
	rel 3+8 t=R_ADDR command-line-arguments.TrailingZeros64Subtract<1>+0
aux for command-line-arguments.TrailingZeros64Subtract<0> SDWARFFCN size=101
	0x0000 03 63 6f 6d 6d 61 6e 64 2d 6c 69 6e 65 2d 61 72  .command-line-ar
	0x0010 67 75 6d 65 6e 74 73 2e 54 72 61 69 6c 69 6e 67  guments.Trailing
	0x0020 5a 65 72 6f 73 36 34 53 75 62 74 72 61 63 74 00  Zeros64Subtract.
	0x0030 00 00 00 00 00 00 00 00 00 00 00 00 00 00 00 00  ................
	0x0040 01 9c 02 00 00 00 be 02 01 12 6e 00 00 be 02 00  ..........n.....
	0x0050 00 00 00 00 00 00 00 11 7e 72 30 00 01 be 02 00  ........~r0.....
	0x0060 00 00 00 00 00                                   .....
	rel 0+0 t=R_USETYPE type:int<0>+0
	rel 48+8 t=R_ADDR command-line-arguments.TrailingZeros64Subtract<1>+0
	rel 56+8 t=R_ADDR command-line-arguments.TrailingZeros64Subtract<1>+15
	rel 79+4 t=R_DWARFSECREF go:info.uint64<0>+0
	rel 83+4 t=R_DWARFSECREF <0>+0
	rel 95+4 t=R_DWARFSECREF go:info.int<0>+0
aux for command-line-arguments.TrailingZeros32<0> SDWARFLOC size=51
	0x0000 ff ff ff ff ff ff ff ff 00 00 00 00 00 00 00 00  ................
	0x0010 00 00 00 00 00 00 00 00 04 00 00 00 00 00 00 00  ................
	0x0020 01 00 50 00 00 00 00 00 00 00 00 00 00 00 00 00  ..P.............
	0x0030 00 00 00                                         ...
	rel 8+8 t=R_ADDR command-line-arguments.TrailingZeros32<1>+0
aux for command-line-arguments.TrailingZeros32<0> SDWARFLINES size=24
	0x0000 00 09 02 00 00 00 00 00 00 00 00 04 02 03 c8 02  ................
	0x0010 14 06 37 02 01 00 01 01                          ..7.....
	rel 3+8 t=R_ADDR command-line-arguments.TrailingZeros32<1>+0
aux for command-line-arguments.TrailingZeros32<0> SDWARFFCN size=93
	0x0000 03 63 6f 6d 6d 61 6e 64 2d 6c 69 6e 65 2d 61 72  .command-line-ar
	0x0010 67 75 6d 65 6e 74 73 2e 54 72 61 69 6c 69 6e 67  guments.Trailing
	0x0020 5a 65 72 6f 73 33 32 00 00 00 00 00 00 00 00 00  Zeros32.........
	0x0030 00 00 00 00 00 00 00 00 01 9c 02 00 00 00 c4 02  ................
	0x0040 01 12 6e 00 00 c4 02 00 00 00 00 00 00 00 00 11  ..n.............
	0x0050 7e 72 30 00 01 c4 02 00 00 00 00 00 00           ~r0..........
	rel 0+0 t=R_USETYPE type:int<0>+0
	rel 40+8 t=R_ADDR command-line-arguments.TrailingZeros32<1>+0
	rel 48+8 t=R_ADDR command-line-arguments.TrailingZeros32<1>+5
	rel 71+4 t=R_DWARFSECREF go:info.uint32<0>+0
	rel 75+4 t=R_DWARFSECREF <0>+0
	rel 87+4 t=R_DWARFSECREF go:info.int<0>+0
aux for command-line-arguments.TrailingZeros16<0> SDWARFLOC size=51
	0x0000 ff ff ff ff ff ff ff ff 00 00 00 00 00 00 00 00  ................
	0x0010 00 00 00 00 00 00 00 00 05 00 00 00 00 00 00 00  ................
	0x0020 01 00 50 00 00 00 00 00 00 00 00 00 00 00 00 00  ..P.............
	0x0030 00 00 00                                         ...
	rel 8+8 t=R_ADDR command-line-arguments.TrailingZeros16<1>+0
aux for command-line-arguments.TrailingZeros16<0> SDWARFLINES size=24
	0x0000 00 09 02 00 00 00 00 00 00 00 00 04 02 03 d4 02  ................
	0x0010 14 06 41 02 04 00 01 01                          ..A.....
	rel 3+8 t=R_ADDR command-line-arguments.TrailingZeros16<1>+0
aux for command-line-arguments.TrailingZeros16<0> SDWARFFCN size=93
	0x0000 03 63 6f 6d 6d 61 6e 64 2d 6c 69 6e 65 2d 61 72  .command-line-ar
	0x0010 67 75 6d 65 6e 74 73 2e 54 72 61 69 6c 69 6e 67  guments.Trailing
	0x0020 5a 65 72 6f 73 31 36 00 00 00 00 00 00 00 00 00  Zeros16.........
	0x0030 00 00 00 00 00 00 00 00 01 9c 02 00 00 00 d1 02  ................
	0x0040 01 12 6e 00 00 d1 02 00 00 00 00 00 00 00 00 11  ..n.............
	0x0050 7e 72 30 00 01 d1 02 00 00 00 00 00 00           ~r0..........
	rel 0+0 t=R_USETYPE type:int<0>+0
	rel 40+8 t=R_ADDR command-line-arguments.TrailingZeros16<1>+0
	rel 48+8 t=R_ADDR command-line-arguments.TrailingZeros16<1>+9
	rel 71+4 t=R_DWARFSECREF go:info.uint16<0>+0
	rel 75+4 t=R_DWARFSECREF <0>+0
	rel 87+4 t=R_DWARFSECREF go:info.int<0>+0
aux for command-line-arguments.TrailingZeros8<0> SDWARFLOC size=51
	0x0000 ff ff ff ff ff ff ff ff 00 00 00 00 00 00 00 00  ................
	0x0010 00 00 00 00 00 00 00 00 05 00 00 00 00 00 00 00  ................
	0x0020 01 00 50 00 00 00 00 00 00 00 00 00 00 00 00 00  ..P.............
	0x0030 00 00 00                                         ...
	rel 8+8 t=R_ADDR command-line-arguments.TrailingZeros8<1>+0
aux for command-line-arguments.TrailingZeros8<0> SDWARFLINES size=24
	0x0000 00 09 02 00 00 00 00 00 00 00 00 04 02 03 de 02  ................
	0x0010 14 06 41 02 04 00 01 01                          ..A.....
	rel 3+8 t=R_ADDR command-line-arguments.TrailingZeros8<1>+0
aux for command-line-arguments.TrailingZeros8<0> SDWARFFCN size=92
	0x0000 03 63 6f 6d 6d 61 6e 64 2d 6c 69 6e 65 2d 61 72  .command-line-ar
	0x0010 67 75 6d 65 6e 74 73 2e 54 72 61 69 6c 69 6e 67  guments.Trailing
	0x0020 5a 65 72 6f 73 38 00 00 00 00 00 00 00 00 00 00  Zeros8..........
	0x0030 00 00 00 00 00 00 00 01 9c 02 00 00 00 dd 02 01  ................
	0x0040 12 6e 00 00 dd 02 00 00 00 00 00 00 00 00 11 7e  .n.............~
	0x0050 72 30 00 01 dd 02 00 00 00 00 00 00              r0..........
	rel 0+0 t=R_USETYPE type:int<0>+0
	rel 39+8 t=R_ADDR command-line-arguments.TrailingZeros8<1>+0
	rel 47+8 t=R_ADDR command-line-arguments.TrailingZeros8<1>+9
	rel 70+4 t=R_DWARFSECREF go:info.uint8<0>+0
	rel 74+4 t=R_DWARFSECREF <0>+0
	rel 86+4 t=R_DWARFSECREF go:info.int<0>+0
aux for command-line-arguments.IterateBits<0> SDWARFLOC size=172
	0x0000 ff ff ff ff ff ff ff ff 00 00 00 00 00 00 00 00  ................
	0x0010 00 00 00 00 00 00 00 00 1b 00 00 00 00 00 00 00  ................
	0x0020 01 00 50 00 00 00 00 00 00 00 00 00 00 00 00 00  ..P.............
	0x0030 00 00 00 ff ff ff ff ff ff ff ff 00 00 00 00 00  ................
	0x0040 00 00 00 0e 00 00 00 00 00 00 00 13 00 00 00 00  ................
	0x0050 00 00 00 01 00 52 13 00 00 00 00 00 00 00 1c 00  .....R..........
	0x0060 00 00 00 00 00 00 01 00 52 00 00 00 00 00 00 00  ........R.......
	0x0070 00 00 00 00 00 00 00 00 00 ff ff ff ff ff ff ff  ................
	0x0080 ff 00 00 00 00 00 00 00 00 13 00 00 00 00 00 00  ................
	0x0090 00 1b 00 00 00 00 00 00 00 01 00 50 00 00 00 00  ...........P....
	0x00a0 00 00 00 00 00 00 00 00 00 00 00 00              ............
	rel 8+8 t=R_ADDR command-line-arguments.IterateBits<1>+0
	rel 59+8 t=R_ADDR command-line-arguments.IterateBits<1>+0
	rel 129+8 t=R_ADDR command-line-arguments.IterateBits<1>+0
aux for command-line-arguments.IterateBits<0> SDWARFLINES size=52
	0x0000 00 09 02 00 00 00 00 00 00 00 00 04 02 03 e5 02  ................
	0x0010 14 06 23 04 03 06 03 d8 7d 1f 06 23 04 02 06 03  ..#.....}..#....
	0x0020 aa 02 46 06 2e 06 3d 06 2d 06 03 01 28 06 2d 02  ..F...=.-...(.-.
	0x0030 01 00 01 01                                      ....
	rel 3+8 t=R_ADDR command-line-arguments.IterateBits<1>+0
aux for command-line-arguments.IterateBits<0> SDWARFFCN size=139
	0x0000 03 63 6f 6d 6d 61 6e 64 2d 6c 69 6e 65 2d 61 72  .command-line-ar
	0x0010 67 75 6d 65 6e 74 73 2e 49 74 65 72 61 74 65 42  guments.IterateB
	0x0020 69 74 73 00 00 00 00 00 00 00 00 00 00 00 00 00  its.............
	0x0030 00 00 00 00 01 9c 02 00 00 00 e9 02 01 12 6e 00  ..............n.
	0x0040 00 e9 02 00 00 00 00 00 00 00 00 11 7e 72 30 00  ............~r0.
	0x0050 01 e9 02 00 00 00 00 00 0d 69 00 ea 02 00 00 00  .........i......
	0x0060 00 00 00 00 00 08 00 00 00 00 00 00 00 00 00 00  ................
	0x0070 00 00 00 00 00 00 00 00 00 00 02 00 00 00 ee 02  ................
	0x0080 15 00 00 00 00 00 00 00 00 00 00                 ...........
	rel 0+0 t=R_USETYPE type:int<0>+0
	rel 36+8 t=R_ADDR command-line-arguments.IterateBits<1>+0
	rel 44+8 t=R_ADDR command-line-arguments.IterateBits<1>+28
	rel 67+4 t=R_DWARFSECREF go:info.uint<0>+0
	rel 71+4 t=R_DWARFSECREF <0>+0
	rel 83+4 t=R_DWARFSECREF go:info.int<0>+0
	rel 93+4 t=R_DWARFSECREF go:info.int<0>+0
	rel 97+4 t=R_DWARFSECREF <0>+51
	rel 102+4 t=R_DWARFSECREF go:info.math/bits.TrailingZeros$abstract<0>+0
	rel 106+8 t=R_ADDR command-line-arguments.IterateBits<1>+4
	rel 114+8 t=R_ADDR command-line-arguments.IterateBits<1>+11
	rel 129+4 t=R_DWARFSECREF go:info.math/bits.TrailingZeros$abstract<0>+28
	rel 133+4 t=R_DWARFSECREF <0>+121
aux for command-line-arguments.IterateBits64<0> SDWARFLOC size=121
	0x0000 ff ff ff ff ff ff ff ff 00 00 00 00 00 00 00 00  ................
	0x0010 00 00 00 00 00 00 00 00 1b 00 00 00 00 00 00 00  ................
	0x0020 01 00 50 00 00 00 00 00 00 00 00 00 00 00 00 00  ..P.............
	0x0030 00 00 00 ff ff ff ff ff ff ff ff 00 00 00 00 00  ................
	0x0040 00 00 00 0e 00 00 00 00 00 00 00 13 00 00 00 00  ................
	0x0050 00 00 00 01 00 52 13 00 00 00 00 00 00 00 1c 00  .....R..........
	0x0060 00 00 00 00 00 00 01 00 52 00 00 00 00 00 00 00  ........R.......
	0x0070 00 00 00 00 00 00 00 00 00                       .........
	rel 8+8 t=R_ADDR command-line-arguments.IterateBits64<1>+0
	rel 59+8 t=R_ADDR command-line-arguments.IterateBits64<1>+0
aux for command-line-arguments.IterateBits64<0> SDWARFLINES size=39
	0x0000 00 09 02 00 00 00 00 00 00 00 00 04 02 03 f0 02  ................
	0x0010 14 06 23 06 26 06 23 60 06 3d 06 2d 06 03 01 28  ..#.&.#`.=.-...(
	0x0020 06 2d 02 01 00 01 01                             .-.....
	rel 3+8 t=R_ADDR command-line-arguments.IterateBits64<1>+0
aux for command-line-arguments.IterateBits64<0> SDWARFFCN size=104
	0x0000 03 63 6f 6d 6d 61 6e 64 2d 6c 69 6e 65 2d 61 72  .command-line-ar
	0x0010 67 75 6d 65 6e 74 73 2e 49 74 65 72 61 74 65 42  guments.IterateB
	0x0020 69 74 73 36 34 00 00 00 00 00 00 00 00 00 00 00  its64...........
	0x0030 00 00 00 00 00 00 01 9c 02 00 00 00 f4 02 01 12  ................
	0x0040 6e 00 00 f4 02 00 00 00 00 00 00 00 00 11 7e 72  n.............~r
	0x0050 30 00 01 f4 02 00 00 00 00 00 0d 69 00 f5 02 00  0..........i....
	0x0060 00 00 00 00 00 00 00 00                          ........
	rel 0+0 t=R_USETYPE type:int<0>+0
	rel 38+8 t=R_ADDR command-line-arguments.IterateBits64<1>+0
	rel 46+8 t=R_ADDR command-line-arguments.IterateBits64<1>+28
	rel 69+4 t=R_DWARFSECREF go:info.uint64<0>+0
	rel 73+4 t=R_DWARFSECREF <0>+0
	rel 85+4 t=R_DWARFSECREF go:info.int<0>+0
	rel 95+4 t=R_DWARFSECREF go:info.int<0>+0
	rel 99+4 t=R_DWARFSECREF <0>+51
aux for command-line-arguments.IterateBits32<0> SDWARFLOC size=121
	0x0000 ff ff ff ff ff ff ff ff 00 00 00 00 00 00 00 00  ................
	0x0010 00 00 00 00 00 00 00 00 19 00 00 00 00 00 00 00  ................
	0x0020 01 00 50 00 00 00 00 00 00 00 00 00 00 00 00 00  ..P.............
	0x0030 00 00 00 ff ff ff ff ff ff ff ff 00 00 00 00 00  ................
	0x0040 00 00 00 0d 00 00 00 00 00 00 00 12 00 00 00 00  ................
	0x0050 00 00 00 01 00 52 12 00 00 00 00 00 00 00 1a 00  .....R..........
	0x0060 00 00 00 00 00 00 01 00 52 00 00 00 00 00 00 00  ........R.......
	0x0070 00 00 00 00 00 00 00 00 00                       .........
	rel 8+8 t=R_ADDR command-line-arguments.IterateBits32<1>+0
	rel 59+8 t=R_ADDR command-line-arguments.IterateBits32<1>+0
aux for command-line-arguments.IterateBits32<0> SDWARFLINES size=39
	0x0000 00 09 02 00 00 00 00 00 00 00 00 04 02 03 fb 02  ................
	0x0010 14 06 23 06 26 06 23 56 06 3d 06 23 06 03 01 28  ..#.&.#V.=.#...(
	0x0020 06 2d 02 01 00 01 01                             .-.....
	rel 3+8 t=R_ADDR command-line-arguments.IterateBits32<1>+0
aux for command-line-arguments.IterateBits32<0> SDWARFFCN size=104
	0x0000 03 63 6f 6d 6d 61 6e 64 2d 6c 69 6e 65 2d 61 72  .command-line-ar
	0x0010 67 75 6d 65 6e 74 73 2e 49 74 65 72 61 74 65 42  guments.IterateB
	0x0020 69 74 73 33 32 00 00 00 00 00 00 00 00 00 00 00  its32...........
	0x0030 00 00 00 00 00 00 01 9c 02 00 00 00 ff 02 01 12  ................
	0x0040 6e 00 00 ff 02 00 00 00 00 00 00 00 00 11 7e 72  n.............~r
	0x0050 30 00 01 ff 02 00 00 00 00 00 0d 69 00 80 03 00  0..........i....
	0x0060 00 00 00 00 00 00 00 00                          ........
	rel 0+0 t=R_USETYPE type:int<0>+0
	rel 38+8 t=R_ADDR command-line-arguments.IterateBits32<1>+0
	rel 46+8 t=R_ADDR command-line-arguments.IterateBits32<1>+26
	rel 69+4 t=R_DWARFSECREF go:info.uint32<0>+0
	rel 73+4 t=R_DWARFSECREF <0>+0
	rel 85+4 t=R_DWARFSECREF go:info.int<0>+0
	rel 95+4 t=R_DWARFSECREF go:info.int<0>+0
	rel 99+4 t=R_DWARFSECREF <0>+51
aux for command-line-arguments.IterateBits16<0> SDWARFLOC size=121
	0x0000 ff ff ff ff ff ff ff ff 00 00 00 00 00 00 00 00  ................
	0x0010 00 00 00 00 00 00 00 00 1a 00 00 00 00 00 00 00  ................
	0x0020 01 00 50 00 00 00 00 00 00 00 00 00 00 00 00 00  ..P.............
	0x0030 00 00 00 ff ff ff ff ff ff ff ff 00 00 00 00 00  ................
	0x0040 00 00 00 0d 00 00 00 00 00 00 00 12 00 00 00 00  ................
	0x0050 00 00 00 01 00 52 12 00 00 00 00 00 00 00 1b 00  .....R..........
	0x0060 00 00 00 00 00 00 01 00 52 00 00 00 00 00 00 00  ........R.......
	0x0070 00 00 00 00 00 00 00 00 00                       .........
	rel 8+8 t=R_ADDR command-line-arguments.IterateBits16<1>+0
	rel 59+8 t=R_ADDR command-line-arguments.IterateBits16<1>+0
aux for command-line-arguments.IterateBits16<0> SDWARFLINES size=41
	0x0000 00 09 02 00 00 00 00 00 00 00 00 04 02 03 86 03  ................
	0x0010 14 06 23 06 27 06 23 56 06 03 7f 3d 06 2d 06 03  ..#.'.#V...=.-..
	0x0020 02 28 06 2d 02 01 00 01 01                       .(.-.....
	rel 3+8 t=R_ADDR command-line-arguments.IterateBits16<1>+0
aux for command-line-arguments.IterateBits16<0> SDWARFFCN size=104
	0x0000 03 63 6f 6d 6d 61 6e 64 2d 6c 69 6e 65 2d 61 72  .command-line-ar
	0x0010 67 75 6d 65 6e 74 73 2e 49 74 65 72 61 74 65 42  guments.IterateB
	0x0020 69 74 73 31 36 00 00 00 00 00 00 00 00 00 00 00  its16...........
	0x0030 00 00 00 00 00 00 01 9c 02 00 00 00 8a 03 01 12  ................
	0x0040 6e 00 00 8a 03 00 00 00 00 00 00 00 00 11 7e 72  n.............~r
	0x0050 30 00 01 8a 03 00 00 00 00 00 0d 69 00 8b 03 00  0..........i....
	0x0060 00 00 00 00 00 00 00 00                          ........
	rel 0+0 t=R_USETYPE type:int<0>+0
	rel 38+8 t=R_ADDR command-line-arguments.IterateBits16<1>+0
	rel 46+8 t=R_ADDR command-line-arguments.IterateBits16<1>+27
	rel 69+4 t=R_DWARFSECREF go:info.uint16<0>+0
	rel 73+4 t=R_DWARFSECREF <0>+0
	rel 85+4 t=R_DWARFSECREF go:info.int<0>+0
	rel 95+4 t=R_DWARFSECREF go:info.int<0>+0
	rel 99+4 t=R_DWARFSECREF <0>+51
aux for command-line-arguments.IterateBits8<0> SDWARFLOC size=121
	0x0000 ff ff ff ff ff ff ff ff 00 00 00 00 00 00 00 00  ................
	0x0010 00 00 00 00 00 00 00 00 19 00 00 00 00 00 00 00  ................
	0x0020 01 00 50 00 00 00 00 00 00 00 00 00 00 00 00 00  ..P.............
	0x0030 00 00 00 ff ff ff ff ff ff ff ff 00 00 00 00 00  ................
	0x0040 00 00 00 0d 00 00 00 00 00 00 00 12 00 00 00 00  ................
	0x0050 00 00 00 01 00 52 12 00 00 00 00 00 00 00 1a 00  .....R..........
	0x0060 00 00 00 00 00 00 01 00 52 00 00 00 00 00 00 00  ........R.......
	0x0070 00 00 00 00 00 00 00 00 00                       .........
	rel 8+8 t=R_ADDR command-line-arguments.IterateBits8<1>+0
	rel 59+8 t=R_ADDR command-line-arguments.IterateBits8<1>+0
aux for command-line-arguments.IterateBits8<0> SDWARFLINES size=41
	0x0000 00 09 02 00 00 00 00 00 00 00 00 04 02 03 92 03  ................
	0x0010 14 06 23 06 27 06 23 56 06 03 7f 3d 06 23 06 03  ..#.'.#V...=.#..
	0x0020 02 28 06 2d 02 01 00 01 01                       .(.-.....
	rel 3+8 t=R_ADDR command-line-arguments.IterateBits8<1>+0
aux for command-line-arguments.IterateBits8<0> SDWARFFCN size=103
	0x0000 03 63 6f 6d 6d 61 6e 64 2d 6c 69 6e 65 2d 61 72  .command-line-ar
	0x0010 67 75 6d 65 6e 74 73 2e 49 74 65 72 61 74 65 42  guments.IterateB
	0x0020 69 74 73 38 00 00 00 00 00 00 00 00 00 00 00 00  its8............
	0x0030 00 00 00 00 00 01 9c 02 00 00 00 96 03 01 12 6e  ...............n
	0x0040 00 00 96 03 00 00 00 00 00 00 00 00 11 7e 72 30  .............~r0
	0x0050 00 01 96 03 00 00 00 00 00 0d 69 00 97 03 00 00  ..........i.....
	0x0060 00 00 00 00 00 00 00                             .......
	rel 0+0 t=R_USETYPE type:int<0>+0
	rel 37+8 t=R_ADDR command-line-arguments.IterateBits8<1>+0
	rel 45+8 t=R_ADDR command-line-arguments.IterateBits8<1>+26
	rel 68+4 t=R_DWARFSECREF go:info.uint8<0>+0
	rel 72+4 t=R_DWARFSECREF <0>+0
	rel 84+4 t=R_DWARFSECREF go:info.int<0>+0
	rel 94+4 t=R_DWARFSECREF go:info.int<0>+0
	rel 98+4 t=R_DWARFSECREF <0>+51
aux for command-line-arguments.Add<0> SDWARFLOC size=153
	0x0000 ff ff ff ff ff ff ff ff 00 00 00 00 00 00 00 00  ................
	0x0010 00 00 00 00 00 00 00 00 08 00 00 00 00 00 00 00  ................
	0x0020 01 00 50 00 00 00 00 00 00 00 00 00 00 00 00 00  ..P.............
	0x0030 00 00 00 ff ff ff ff ff ff ff ff 00 00 00 00 00  ................
	0x0040 00 00 00 00 00 00 00 00 00 00 00 08 00 00 00 00  ................
	0x0050 00 00 00 01 00 53 00 00 00 00 00 00 00 00 00 00  .....S..........
	0x0060 00 00 00 00 00 00 ff ff ff ff ff ff ff ff 00 00  ................
	0x0070 00 00 00 00 00 00 00 00 00 00 00 00 00 00 0c 00  ................
	0x0080 00 00 00 00 00 00 01 00 52 00 00 00 00 00 00 00  ........R.......
	0x0090 00 00 00 00 00 00 00 00 00                       .........
	rel 8+8 t=R_ADDR command-line-arguments.Add<1>+0
	rel 59+8 t=R_ADDR command-line-arguments.Add<1>+0
	rel 110+8 t=R_ADDR command-line-arguments.Add<1>+0
aux for command-line-arguments.Add<0> SDWARFLINES size=24
	0x0000 00 09 02 00 00 00 00 00 00 00 00 04 02 03 a6 03  ................
	0x0010 14 06 23 02 0a 00 01 01                          ..#.....
	rel 3+8 t=R_ADDR command-line-arguments.Add<1>+0
aux for command-line-arguments.Add<0> SDWARFFCN size=120
	0x0000 03 63 6f 6d 6d 61 6e 64 2d 6c 69 6e 65 2d 61 72  .command-line-ar
	0x0010 67 75 6d 65 6e 74 73 2e 41 64 64 00 00 00 00 00  guments.Add.....
	0x0020 00 00 00 00 00 00 00 00 00 00 00 00 01 9c 02 00  ................
	0x0030 00 00 a6 03 01 12 78 00 00 a6 03 00 00 00 00 00  ......x.........
	0x0040 00 00 00 12 79 00 00 a6 03 00 00 00 00 00 00 00  ....y...........
	0x0050 00 12 63 69 00 00 a6 03 00 00 00 00 00 00 00 00  ..ci............
	0x0060 11 72 00 01 a6 03 00 00 00 00 00 11 63 6f 00 01  .r..........co..
	0x0070 a6 03 00 00 00 00 00 00                          ........
	rel 0+0 t=R_USETYPE type:uint<0>+0
	rel 28+8 t=R_ADDR command-line-arguments.Add<1>+0
	rel 36+8 t=R_ADDR command-line-arguments.Add<1>+12
	rel 59+4 t=R_DWARFSECREF go:info.uint<0>+0
	rel 63+4 t=R_DWARFSECREF <0>+0
	rel 73+4 t=R_DWARFSECREF go:info.uint<0>+0
	rel 77+4 t=R_DWARFSECREF <0>+51
	rel 88+4 t=R_DWARFSECREF go:info.uint<0>+0
	rel 92+4 t=R_DWARFSECREF <0>+102
	rel 102+4 t=R_DWARFSECREF go:info.uint<0>+0
	rel 114+4 t=R_DWARFSECREF go:info.uint<0>+0
aux for command-line-arguments.AddC<0> SDWARFLOC size=102
	0x0000 ff ff ff ff ff ff ff ff 00 00 00 00 00 00 00 00  ................
	0x0010 00 00 00 00 00 00 00 00 09 00 00 00 00 00 00 00  ................
	0x0020 01 00 50 00 00 00 00 00 00 00 00 00 00 00 00 00  ..P.............
	0x0030 00 00 00 ff ff ff ff ff ff ff ff 00 00 00 00 00  ................
	0x0040 00 00 00 00 00 00 00 00 00 00 00 09 00 00 00 00  ................
	0x0050 00 00 00 01 00 53 00 00 00 00 00 00 00 00 00 00  .....S..........
	0x0060 00 00 00 00 00 00                                ......
	rel 8+8 t=R_ADDR command-line-arguments.AddC<1>+0
	rel 59+8 t=R_ADDR command-line-arguments.AddC<1>+0
aux for command-line-arguments.AddC<0> SDWARFLINES size=24
	0x0000 00 09 02 00 00 00 00 00 00 00 00 04 02 03 b1 03  ................
	0x0010 14 06 23 02 0b 00 01 01                          ..#.....
	rel 3+8 t=R_ADDR command-line-arguments.AddC<1>+0
aux for command-line-arguments.AddC<0> SDWARFFCN size=107
	0x0000 03 63 6f 6d 6d 61 6e 64 2d 6c 69 6e 65 2d 61 72  .command-line-ar
	0x0010 67 75 6d 65 6e 74 73 2e 41 64 64 43 00 00 00 00  guments.AddC....
	0x0020 00 00 00 00 00 00 00 00 00 00 00 00 00 01 9c 02  ................
	0x0030 00 00 00 af 03 01 12 78 00 00 af 03 00 00 00 00  .......x........
	0x0040 00 00 00 00 12 63 69 00 00 af 03 00 00 00 00 00  .....ci.........
	0x0050 00 00 00 11 72 00 01 af 03 00 00 00 00 00 11 63  ....r..........c
	0x0060 6f 00 01 af 03 00 00 00 00 00 00                 o..........
	rel 0+0 t=R_USETYPE type:uint<0>+0
	rel 29+8 t=R_ADDR command-line-arguments.AddC<1>+0
	rel 37+8 t=R_ADDR command-line-arguments.AddC<1>+13
	rel 60+4 t=R_DWARFSECREF go:info.uint<0>+0
	rel 64+4 t=R_DWARFSECREF <0>+0
	rel 75+4 t=R_DWARFSECREF go:info.uint<0>+0
	rel 79+4 t=R_DWARFSECREF <0>+51
	rel 89+4 t=R_DWARFSECREF go:info.uint<0>+0
	rel 101+4 t=R_DWARFSECREF go:info.uint<0>+0
aux for command-line-arguments.AddZ<0> SDWARFLOC size=102
	0x0000 ff ff ff ff ff ff ff ff 00 00 00 00 00 00 00 00  ................
	0x0010 00 00 00 00 00 00 00 00 06 00 00 00 00 00 00 00  ................
	0x0020 01 00 50 00 00 00 00 00 00 00 00 00 00 00 00 00  ..P.............
	0x0030 00 00 00 ff ff ff ff ff ff ff ff 00 00 00 00 00  ................
	0x0040 00 00 00 00 00 00 00 00 00 00 00 06 00 00 00 00  ................
	0x0050 00 00 00 01 00 53 00 00 00 00 00 00 00 00 00 00  .....S..........
	0x0060 00 00 00 00 00 00                                ......
	rel 8+8 t=R_ADDR command-line-arguments.AddZ<1>+0
	rel 59+8 t=R_ADDR command-line-arguments.AddZ<1>+0
aux for command-line-arguments.AddZ<0> SDWARFLINES size=24
	0x0000 00 09 02 00 00 00 00 00 00 00 00 04 02 03 bc 03  ................
	0x0010 14 06 2d 02 07 00 01 01                          ..-.....
	rel 3+8 t=R_ADDR command-line-arguments.AddZ<1>+0
aux for command-line-arguments.AddZ<0> SDWARFFCN size=106
	0x0000 03 63 6f 6d 6d 61 6e 64 2d 6c 69 6e 65 2d 61 72  .command-line-ar
	0x0010 67 75 6d 65 6e 74 73 2e 41 64 64 5a 00 00 00 00  guments.AddZ....
	0x0020 00 00 00 00 00 00 00 00 00 00 00 00 00 01 9c 02  ................
	0x0030 00 00 00 ba 03 01 12 78 00 00 ba 03 00 00 00 00  .......x........
	0x0040 00 00 00 00 12 79 00 00 ba 03 00 00 00 00 00 00  .....y..........
	0x0050 00 00 11 72 00 01 ba 03 00 00 00 00 00 11 63 6f  ...r..........co
	0x0060 00 01 ba 03 00 00 00 00 00 00                    ..........
	rel 0+0 t=R_USETYPE type:uint<0>+0
	rel 29+8 t=R_ADDR command-line-arguments.AddZ<1>+0
	rel 37+8 t=R_ADDR command-line-arguments.AddZ<1>+10
	rel 60+4 t=R_DWARFSECREF go:info.uint<0>+0
	rel 64+4 t=R_DWARFSECREF <0>+0
	rel 74+4 t=R_DWARFSECREF go:info.uint<0>+0
	rel 78+4 t=R_DWARFSECREF <0>+51
	rel 88+4 t=R_DWARFSECREF go:info.uint<0>+0
	rel 100+4 t=R_DWARFSECREF go:info.uint<0>+0
aux for command-line-arguments.AddR<0> SDWARFLOC size=204
	0x0000 ff ff ff ff ff ff ff ff 00 00 00 00 00 00 00 00  ................
	0x0010 00 00 00 00 00 00 00 00 05 00 00 00 00 00 00 00  ................
	0x0020 01 00 50 00 00 00 00 00 00 00 00 00 00 00 00 00  ..P.............
	0x0030 00 00 00 ff ff ff ff ff ff ff ff 00 00 00 00 00  ................
	0x0040 00 00 00 00 00 00 00 00 00 00 00 06 00 00 00 00  ................
	0x0050 00 00 00 01 00 53 00 00 00 00 00 00 00 00 00 00  .....S..........
	0x0060 00 00 00 00 00 00 ff ff ff ff ff ff ff ff 00 00  ................
	0x0070 00 00 00 00 00 00 00 00 00 00 00 00 00 00 06 00  ................
	0x0080 00 00 00 00 00 00 01 00 52 00 00 00 00 00 00 00  ........R.......
	0x0090 00 00 00 00 00 00 00 00 00 ff ff ff ff ff ff ff  ................
	0x00a0 ff 00 00 00 00 00 00 00 00 05 00 00 00 00 00 00  ................
	0x00b0 00 06 00 00 00 00 00 00 00 01 00 50 00 00 00 00  ...........P....
	0x00c0 00 00 00 00 00 00 00 00 00 00 00 00              ............
	rel 8+8 t=R_ADDR command-line-arguments.AddR<1>+0
	rel 59+8 t=R_ADDR command-line-arguments.AddR<1>+0
	rel 110+8 t=R_ADDR command-line-arguments.AddR<1>+0
	rel 161+8 t=R_ADDR command-line-arguments.AddR<1>+0
aux for command-line-arguments.AddR<0> SDWARFLINES size=26
	0x0000 00 09 02 00 00 00 00 00 00 00 00 04 02 03 c7 03  ................
	0x0010 14 06 23 06 2e 02 01 00 01 01                    ..#.......
	rel 3+8 t=R_ADDR command-line-arguments.AddR<1>+0
aux for command-line-arguments.AddR<0> SDWARFFCN size=124
	0x0000 03 63 6f 6d 6d 61 6e 64 2d 6c 69 6e 65 2d 61 72  .command-line-ar
	0x0010 67 75 6d 65 6e 74 73 2e 41 64 64 52 00 00 00 00  guments.AddR....
	0x0020 00 00 00 00 00 00 00 00 00 00 00 00 00 01 9c 02  ................
	0x0030 00 00 00 c5 03 01 12 78 00 00 c5 03 00 00 00 00  .......x........
	0x0040 00 00 00 00 12 79 00 00 c5 03 00 00 00 00 00 00  .....y..........
	0x0050 00 00 12 63 69 00 00 c5 03 00 00 00 00 00 00 00  ...ci...........
	0x0060 00 11 7e 72 30 00 01 c5 03 00 00 00 00 00 0d 72  ..~r0..........r
	0x0070 00 cd 03 00 00 00 00 00 00 00 00 00              ............
	rel 0+0 t=R_USETYPE type:uint<0>+0
	rel 29+8 t=R_ADDR command-line-arguments.AddR<1>+0
	rel 37+8 t=R_ADDR command-line-arguments.AddR<1>+6
	rel 60+4 t=R_DWARFSECREF go:info.uint<0>+0
	rel 64+4 t=R_DWARFSECREF <0>+0
	rel 74+4 t=R_DWARFSECREF go:info.uint<0>+0
	rel 78+4 t=R_DWARFSECREF <0>+51
	rel 89+4 t=R_DWARFSECREF go:info.uint<0>+0
	rel 93+4 t=R_DWARFSECREF <0>+102
	rel 105+4 t=R_DWARFSECREF go:info.uint<0>+0
	rel 115+4 t=R_DWARFSECREF go:info.uint<0>+0
	rel 119+4 t=R_DWARFSECREF <0>+153
aux for command-line-arguments.AddM<0> SDWARFLOC size=153
	0x0000 ff ff ff ff ff ff ff ff 00 00 00 00 00 00 00 00  ................
	0x0010 00 00 00 00 00 00 00 00 1f 00 00 00 00 00 00 00  ................
	0x0020 01 00 50 00 00 00 00 00 00 00 00 00 00 00 00 00  ..P.............
	0x0030 00 00 00 ff ff ff ff ff ff ff ff 00 00 00 00 00  ................
	0x0040 00 00 00 00 00 00 00 00 00 00 00 2b 00 00 00 00  ...........+....
	0x0050 00 00 00 01 00 53 00 00 00 00 00 00 00 00 00 00  .....S..........
	0x0060 00 00 00 00 00 00 ff ff ff ff ff ff ff ff 00 00  ................
	0x0070 00 00 00 00 00 00 00 00 00 00 00 00 00 00 2b 00  ..............+.
	0x0080 00 00 00 00 00 00 01 00 52 00 00 00 00 00 00 00  ........R.......
	0x0090 00 00 00 00 00 00 00 00 00                       .........
	rel 8+8 t=R_ADDR command-line-arguments.AddM<1>+0
	rel 59+8 t=R_ADDR command-line-arguments.AddM<1>+0
	rel 110+8 t=R_ADDR command-line-arguments.AddM<1>+0
aux for command-line-arguments.AddM<0> SDWARFLINES size=34
	0x0000 00 09 02 00 00 00 00 00 00 00 00 04 02 03 cd 03  ................
	0x0010 14 06 2d 06 6d 06 37 06 7e 06 37 06 7e 02 01 00  ..-.m.7.~.7.~...
	0x0020 01 01                                            ..
	rel 3+8 t=R_ADDR command-line-arguments.AddM<1>+0
aux for command-line-arguments.AddM<0> SDWARFFCN size=97
	0x0000 03 63 6f 6d 6d 61 6e 64 2d 6c 69 6e 65 2d 61 72  .command-line-ar
	0x0010 67 75 6d 65 6e 74 73 2e 41 64 64 4d 00 00 00 00  guments.AddM....
	0x0020 00 00 00 00 00 00 00 00 00 00 00 00 00 01 9c 02  ................
	0x0030 00 00 00 d1 03 01 12 70 00 00 d1 03 00 00 00 00  .......p........
	0x0040 00 00 00 00 12 71 00 00 d1 03 00 00 00 00 00 00  .....q..........
	0x0050 00 00 12 72 00 00 d1 03 00 00 00 00 00 00 00 00  ...r............
	0x0060 00                                               .
	rel 29+8 t=R_ADDR command-line-arguments.AddM<1>+0
	rel 37+8 t=R_ADDR command-line-arguments.AddM<1>+43
	rel 60+4 t=R_DWARFSECREF go:info.*[3]uint<0>+0
	rel 64+4 t=R_DWARFSECREF <0>+0
	rel 74+4 t=R_DWARFSECREF go:info.*[3]uint<0>+0
	rel 78+4 t=R_DWARFSECREF <0>+51
	rel 88+4 t=R_DWARFSECREF go:info.*[3]uint<0>+0
	rel 92+4 t=R_DWARFSECREF <0>+102
aux for command-line-arguments.Add64<0> SDWARFLOC size=153
	0x0000 ff ff ff ff ff ff ff ff 00 00 00 00 00 00 00 00  ................
	0x0010 00 00 00 00 00 00 00 00 08 00 00 00 00 00 00 00  ................
	0x0020 01 00 50 00 00 00 00 00 00 00 00 00 00 00 00 00  ..P.............
	0x0030 00 00 00 ff ff ff ff ff ff ff ff 00 00 00 00 00  ................
	0x0040 00 00 00 00 00 00 00 00 00 00 00 08 00 00 00 00  ................
	0x0050 00 00 00 01 00 53 00 00 00 00 00 00 00 00 00 00  .....S..........
	0x0060 00 00 00 00 00 00 ff ff ff ff ff ff ff ff 00 00  ................
	0x0070 00 00 00 00 00 00 00 00 00 00 00 00 00 00 0c 00  ................
	0x0080 00 00 00 00 00 00 01 00 52 00 00 00 00 00 00 00  ........R.......
	0x0090 00 00 00 00 00 00 00 00 00                       .........
	rel 8+8 t=R_ADDR command-line-arguments.Add64<1>+0
	rel 59+8 t=R_ADDR command-line-arguments.Add64<1>+0
	rel 110+8 t=R_ADDR command-line-arguments.Add64<1>+0
aux for command-line-arguments.Add64<0> SDWARFLINES size=24
	0x0000 00 09 02 00 00 00 00 00 00 00 00 04 02 03 dd 03  ................
	0x0010 14 06 23 02 0a 00 01 01                          ..#.....
	rel 3+8 t=R_ADDR command-line-arguments.Add64<1>+0
aux for command-line-arguments.Add64<0> SDWARFFCN size=122
	0x0000 03 63 6f 6d 6d 61 6e 64 2d 6c 69 6e 65 2d 61 72  .command-line-ar
	0x0010 67 75 6d 65 6e 74 73 2e 41 64 64 36 34 00 00 00  guments.Add64...
	0x0020 00 00 00 00 00 00 00 00 00 00 00 00 00 00 01 9c  ................
	0x0030 02 00 00 00 db 03 01 12 78 00 00 db 03 00 00 00  ........x.......
	0x0040 00 00 00 00 00 12 79 00 00 db 03 00 00 00 00 00  ......y.........
	0x0050 00 00 00 12 63 69 00 00 db 03 00 00 00 00 00 00  ....ci..........
	0x0060 00 00 11 72 00 01 db 03 00 00 00 00 00 11 63 6f  ...r..........co
	0x0070 00 01 db 03 00 00 00 00 00 00                    ..........
	rel 0+0 t=R_USETYPE type:uint64<0>+0
	rel 30+8 t=R_ADDR command-line-arguments.Add64<1>+0
	rel 38+8 t=R_ADDR command-line-arguments.Add64<1>+12
	rel 61+4 t=R_DWARFSECREF go:info.uint64<0>+0
	rel 65+4 t=R_DWARFSECREF <0>+0
	rel 75+4 t=R_DWARFSECREF go:info.uint64<0>+0
	rel 79+4 t=R_DWARFSECREF <0>+51
	rel 90+4 t=R_DWARFSECREF go:info.uint64<0>+0
	rel 94+4 t=R_DWARFSECREF <0>+102
	rel 104+4 t=R_DWARFSECREF go:info.uint64<0>+0
	rel 116+4 t=R_DWARFSECREF go:info.uint64<0>+0
aux for command-line-arguments.Add64C<0> SDWARFLOC size=102
	0x0000 ff ff ff ff ff ff ff ff 00 00 00 00 00 00 00 00  ................
	0x0010 00 00 00 00 00 00 00 00 09 00 00 00 00 00 00 00  ................
	0x0020 01 00 50 00 00 00 00 00 00 00 00 00 00 00 00 00  ..P.............
	0x0030 00 00 00 ff ff ff ff ff ff ff ff 00 00 00 00 00  ................
	0x0040 00 00 00 00 00 00 00 00 00 00 00 09 00 00 00 00  ................
	0x0050 00 00 00 01 00 53 00 00 00 00 00 00 00 00 00 00  .....S..........
	0x0060 00 00 00 00 00 00                                ......
	rel 8+8 t=R_ADDR command-line-arguments.Add64C<1>+0
	rel 59+8 t=R_ADDR command-line-arguments.Add64C<1>+0
aux for command-line-arguments.Add64C<0> SDWARFLINES size=24
	0x0000 00 09 02 00 00 00 00 00 00 00 00 04 02 03 e8 03  ................
	0x0010 14 06 23 02 0b 00 01 01                          ..#.....
	rel 3+8 t=R_ADDR command-line-arguments.Add64C<1>+0
aux for command-line-arguments.Add64C<0> SDWARFFCN size=109
	0x0000 03 63 6f 6d 6d 61 6e 64 2d 6c 69 6e 65 2d 61 72  .command-line-ar
	0x0010 67 75 6d 65 6e 74 73 2e 41 64 64 36 34 43 00 00  guments.Add64C..
	0x0020 00 00 00 00 00 00 00 00 00 00 00 00 00 00 00 01  ................
	0x0030 9c 02 00 00 00 e6 03 01 12 78 00 00 e6 03 00 00  .........x......
	0x0040 00 00 00 00 00 00 12 63 69 00 00 e6 03 00 00 00  .......ci.......
	0x0050 00 00 00 00 00 11 72 00 01 e6 03 00 00 00 00 00  ......r.........
	0x0060 11 63 6f 00 01 e6 03 00 00 00 00 00 00           .co..........
	rel 0+0 t=R_USETYPE type:uint64<0>+0
	rel 31+8 t=R_ADDR command-line-arguments.Add64C<1>+0
	rel 39+8 t=R_ADDR command-line-arguments.Add64C<1>+13
	rel 62+4 t=R_DWARFSECREF go:info.uint64<0>+0
	rel 66+4 t=R_DWARFSECREF <0>+0
	rel 77+4 t=R_DWARFSECREF go:info.uint64<0>+0
	rel 81+4 t=R_DWARFSECREF <0>+51
	rel 91+4 t=R_DWARFSECREF go:info.uint64<0>+0
	rel 103+4 t=R_DWARFSECREF go:info.uint64<0>+0
aux for command-line-arguments.Add64Z<0> SDWARFLOC size=102
	0x0000 ff ff ff ff ff ff ff ff 00 00 00 00 00 00 00 00  ................
	0x0010 00 00 00 00 00 00 00 00 06 00 00 00 00 00 00 00  ................
	0x0020 01 00 50 00 00 00 00 00 00 00 00 00 00 00 00 00  ..P.............
	0x0030 00 00 00 ff ff ff ff ff ff ff ff 00 00 00 00 00  ................
	0x0040 00 00 00 00 00 00 00 00 00 00 00 06 00 00 00 00  ................
	0x0050 00 00 00 01 00 53 00 00 00 00 00 00 00 00 00 00  .....S..........
	0x0060 00 00 00 00 00 00                                ......
	rel 8+8 t=R_ADDR command-line-arguments.Add64Z<1>+0
	rel 59+8 t=R_ADDR command-line-arguments.Add64Z<1>+0
aux for command-line-arguments.Add64Z<0> SDWARFLINES size=24
	0x0000 00 09 02 00 00 00 00 00 00 00 00 04 02 03 f3 03  ................
	0x0010 14 06 2d 02 07 00 01 01                          ..-.....
	rel 3+8 t=R_ADDR command-line-arguments.Add64Z<1>+0
aux for command-line-arguments.Add64Z<0> SDWARFFCN size=108
	0x0000 03 63 6f 6d 6d 61 6e 64 2d 6c 69 6e 65 2d 61 72  .command-line-ar
	0x0010 67 75 6d 65 6e 74 73 2e 41 64 64 36 34 5a 00 00  guments.Add64Z..
	0x0020 00 00 00 00 00 00 00 00 00 00 00 00 00 00 00 01  ................
	0x0030 9c 02 00 00 00 f1 03 01 12 78 00 00 f1 03 00 00  .........x......
	0x0040 00 00 00 00 00 00 12 79 00 00 f1 03 00 00 00 00  .......y........
	0x0050 00 00 00 00 11 72 00 01 f1 03 00 00 00 00 00 11  .....r..........
	0x0060 63 6f 00 01 f1 03 00 00 00 00 00 00              co..........
	rel 0+0 t=R_USETYPE type:uint64<0>+0
	rel 31+8 t=R_ADDR command-line-arguments.Add64Z<1>+0
	rel 39+8 t=R_ADDR command-line-arguments.Add64Z<1>+10
	rel 62+4 t=R_DWARFSECREF go:info.uint64<0>+0
	rel 66+4 t=R_DWARFSECREF <0>+0
	rel 76+4 t=R_DWARFSECREF go:info.uint64<0>+0
	rel 80+4 t=R_DWARFSECREF <0>+51
	rel 90+4 t=R_DWARFSECREF go:info.uint64<0>+0
	rel 102+4 t=R_DWARFSECREF go:info.uint64<0>+0
aux for command-line-arguments.Add64R<0> SDWARFLOC size=204
	0x0000 ff ff ff ff ff ff ff ff 00 00 00 00 00 00 00 00  ................
	0x0010 00 00 00 00 00 00 00 00 05 00 00 00 00 00 00 00  ................
	0x0020 01 00 50 00 00 00 00 00 00 00 00 00 00 00 00 00  ..P.............
	0x0030 00 00 00 ff ff ff ff ff ff ff ff 00 00 00 00 00  ................
	0x0040 00 00 00 00 00 00 00 00 00 00 00 06 00 00 00 00  ................
	0x0050 00 00 00 01 00 53 00 00 00 00 00 00 00 00 00 00  .....S..........
	0x0060 00 00 00 00 00 00 ff ff ff ff ff ff ff ff 00 00  ................
	0x0070 00 00 00 00 00 00 00 00 00 00 00 00 00 00 06 00  ................
	0x0080 00 00 00 00 00 00 01 00 52 00 00 00 00 00 00 00  ........R.......
	0x0090 00 00 00 00 00 00 00 00 00 ff ff ff ff ff ff ff  ................
	0x00a0 ff 00 00 00 00 00 00 00 00 05 00 00 00 00 00 00  ................
	0x00b0 00 06 00 00 00 00 00 00 00 01 00 50 00 00 00 00  ...........P....
	0x00c0 00 00 00 00 00 00 00 00 00 00 00 00              ............
	rel 8+8 t=R_ADDR command-line-arguments.Add64R<1>+0
	rel 59+8 t=R_ADDR command-line-arguments.Add64R<1>+0
	rel 110+8 t=R_ADDR command-line-arguments.Add64R<1>+0
	rel 161+8 t=R_ADDR command-line-arguments.Add64R<1>+0
aux for command-line-arguments.Add64R<0> SDWARFLINES size=26
	0x0000 00 09 02 00 00 00 00 00 00 00 00 04 02 03 fe 03  ................
	0x0010 14 06 23 06 2e 02 01 00 01 01                    ..#.......
	rel 3+8 t=R_ADDR command-line-arguments.Add64R<1>+0
aux for command-line-arguments.Add64R<0> SDWARFFCN size=126
	0x0000 03 63 6f 6d 6d 61 6e 64 2d 6c 69 6e 65 2d 61 72  .command-line-ar
	0x0010 67 75 6d 65 6e 74 73 2e 41 64 64 36 34 52 00 00  guments.Add64R..
	0x0020 00 00 00 00 00 00 00 00 00 00 00 00 00 00 00 01  ................
	0x0030 9c 02 00 00 00 fc 03 01 12 78 00 00 fc 03 00 00  .........x......
	0x0040 00 00 00 00 00 00 12 79 00 00 fc 03 00 00 00 00  .......y........
	0x0050 00 00 00 00 12 63 69 00 00 fc 03 00 00 00 00 00  .....ci.........
	0x0060 00 00 00 11 7e 72 30 00 01 fc 03 00 00 00 00 00  ....~r0.........
	0x0070 0d 72 00 84 04 00 00 00 00 00 00 00 00 00        .r............
	rel 0+0 t=R_USETYPE type:uint64<0>+0
	rel 31+8 t=R_ADDR command-line-arguments.Add64R<1>+0
	rel 39+8 t=R_ADDR command-line-arguments.Add64R<1>+6
	rel 62+4 t=R_DWARFSECREF go:info.uint64<0>+0
	rel 66+4 t=R_DWARFSECREF <0>+0
	rel 76+4 t=R_DWARFSECREF go:info.uint64<0>+0
	rel 80+4 t=R_DWARFSECREF <0>+51
	rel 91+4 t=R_DWARFSECREF go:info.uint64<0>+0
	rel 95+4 t=R_DWARFSECREF <0>+102
	rel 107+4 t=R_DWARFSECREF go:info.uint64<0>+0
	rel 117+4 t=R_DWARFSECREF go:info.uint64<0>+0
	rel 121+4 t=R_DWARFSECREF <0>+153
aux for command-line-arguments.Add64M<0> SDWARFLOC size=153
	0x0000 ff ff ff ff ff ff ff ff 00 00 00 00 00 00 00 00  ................
	0x0010 00 00 00 00 00 00 00 00 1f 00 00 00 00 00 00 00  ................
	0x0020 01 00 50 00 00 00 00 00 00 00 00 00 00 00 00 00  ..P.............
	0x0030 00 00 00 ff ff ff ff ff ff ff ff 00 00 00 00 00  ................
	0x0040 00 00 00 00 00 00 00 00 00 00 00 2b 00 00 00 00  ...........+....
	0x0050 00 00 00 01 00 53 00 00 00 00 00 00 00 00 00 00  .....S..........
	0x0060 00 00 00 00 00 00 ff ff ff ff ff ff ff ff 00 00  ................
	0x0070 00 00 00 00 00 00 00 00 00 00 00 00 00 00 2b 00  ..............+.
	0x0080 00 00 00 00 00 00 01 00 52 00 00 00 00 00 00 00  ........R.......
	0x0090 00 00 00 00 00 00 00 00 00                       .........
	rel 8+8 t=R_ADDR command-line-arguments.Add64M<1>+0
	rel 59+8 t=R_ADDR command-line-arguments.Add64M<1>+0
	rel 110+8 t=R_ADDR command-line-arguments.Add64M<1>+0
aux for command-line-arguments.Add64M<0> SDWARFLINES size=34
	0x0000 00 09 02 00 00 00 00 00 00 00 00 04 02 03 83 04  ................
	0x0010 14 06 2d 06 6e 06 37 06 7e 06 37 06 7e 02 01 00  ..-.n.7.~.7.~...
	0x0020 01 01                                            ..
	rel 3+8 t=R_ADDR command-line-arguments.Add64M<1>+0
aux for command-line-arguments.Add64M<0> SDWARFFCN size=99
	0x0000 03 63 6f 6d 6d 61 6e 64 2d 6c 69 6e 65 2d 61 72  .command-line-ar
	0x0010 67 75 6d 65 6e 74 73 2e 41 64 64 36 34 4d 00 00  guments.Add64M..
	0x0020 00 00 00 00 00 00 00 00 00 00 00 00 00 00 00 01  ................
	0x0030 9c 02 00 00 00 87 04 01 12 70 00 00 87 04 00 00  .........p......
	0x0040 00 00 00 00 00 00 12 71 00 00 87 04 00 00 00 00  .......q........
	0x0050 00 00 00 00 12 72 00 00 87 04 00 00 00 00 00 00  .....r..........
	0x0060 00 00 00                                         ...
	rel 31+8 t=R_ADDR command-line-arguments.Add64M<1>+0
	rel 39+8 t=R_ADDR command-line-arguments.Add64M<1>+43
	rel 62+4 t=R_DWARFSECREF go:info.*[3]uint64<0>+0
	rel 66+4 t=R_DWARFSECREF <0>+0
	rel 76+4 t=R_DWARFSECREF go:info.*[3]uint64<0>+0
	rel 80+4 t=R_DWARFSECREF <0>+51
	rel 90+4 t=R_DWARFSECREF go:info.*[3]uint64<0>+0
	rel 94+4 t=R_DWARFSECREF <0>+102
aux for command-line-arguments.Add64MSaveC<0> SDWARFLOC size=204
	0x0000 ff ff ff ff ff ff ff ff 00 00 00 00 00 00 00 00  ................
	0x0010 00 00 00 00 00 00 00 00 1c 00 00 00 00 00 00 00  ................
	0x0020 01 00 50 00 00 00 00 00 00 00 00 00 00 00 00 00  ..P.............
	0x0030 00 00 00 ff ff ff ff ff ff ff ff 00 00 00 00 00  ................
	0x0040 00 00 00 00 00 00 00 00 00 00 00 20 00 00 00 00  ........... ....
	0x0050 00 00 00 01 00 53 00 00 00 00 00 00 00 00 00 00  .....S..........
	0x0060 00 00 00 00 00 00 ff ff ff ff ff ff ff ff 00 00  ................
	0x0070 00 00 00 00 00 00 00 00 00 00 00 00 00 00 35 00  ..............5.
	0x0080 00 00 00 00 00 00 01 00 52 00 00 00 00 00 00 00  ........R.......
	0x0090 00 00 00 00 00 00 00 00 00 ff ff ff ff ff ff ff  ................
	0x00a0 ff 00 00 00 00 00 00 00 00 00 00 00 00 00 00 00  ................
	0x00b0 00 35 00 00 00 00 00 00 00 01 00 55 00 00 00 00  .5.........U....
	0x00c0 00 00 00 00 00 00 00 00 00 00 00 00              ............
	rel 8+8 t=R_ADDR command-line-arguments.Add64MSaveC<1>+0
	rel 59+8 t=R_ADDR command-line-arguments.Add64MSaveC<1>+0
	rel 110+8 t=R_ADDR command-line-arguments.Add64MSaveC<1>+0
	rel 161+8 t=R_ADDR command-line-arguments.Add64MSaveC<1>+0
aux for command-line-arguments.Add64MSaveC<0> SDWARFLINES size=32
	0x0000 00 09 02 00 00 00 00 00 00 00 00 04 02 03 8e 04  ................
	0x0010 14 06 2d 06 e3 06 37 35 2f 06 ba 02 01 00 01 01  ..-...75/.......
	rel 3+8 t=R_ADDR command-line-arguments.Add64MSaveC<1>+0
aux for command-line-arguments.Add64MSaveC<0> SDWARFFCN size=118
	0x0000 03 63 6f 6d 6d 61 6e 64 2d 6c 69 6e 65 2d 61 72  .command-line-ar
	0x0010 67 75 6d 65 6e 74 73 2e 41 64 64 36 34 4d 53 61  guments.Add64MSa
	0x0020 76 65 43 00 00 00 00 00 00 00 00 00 00 00 00 00  veC.............
	0x0030 00 00 00 00 01 9c 02 00 00 00 92 04 01 12 70 00  ..............p.
	0x0040 00 92 04 00 00 00 00 00 00 00 00 12 71 00 00 92  ............q...
	0x0050 04 00 00 00 00 00 00 00 00 12 72 00 00 92 04 00  ..........r.....
	0x0060 00 00 00 00 00 00 00 12 63 00 00 92 04 00 00 00  ........c.......
	0x0070 00 00 00 00 00 00                                ......
	rel 36+8 t=R_ADDR command-line-arguments.Add64MSaveC<1>+0
	rel 44+8 t=R_ADDR command-line-arguments.Add64MSaveC<1>+53
	rel 67+4 t=R_DWARFSECREF go:info.*[2]uint64<0>+0
	rel 71+4 t=R_DWARFSECREF <0>+0
	rel 81+4 t=R_DWARFSECREF go:info.*[2]uint64<0>+0
	rel 85+4 t=R_DWARFSECREF <0>+51
	rel 95+4 t=R_DWARFSECREF go:info.*[2]uint64<0>+0
	rel 99+4 t=R_DWARFSECREF <0>+102
	rel 109+4 t=R_DWARFSECREF go:info.*[2]uint64<0>+0
	rel 113+4 t=R_DWARFSECREF <0>+153
aux for command-line-arguments.Add64PanicOnOverflowEQ<0> SDWARFLOC size=204
	0x0000 ff ff ff ff ff ff ff ff 00 00 00 00 00 00 00 00  ................
	0x0010 00 00 00 00 00 00 00 00 14 00 00 00 00 00 00 00  ................
	0x0020 01 00 50 00 00 00 00 00 00 00 00 00 00 00 00 00  ..P.............
	0x0030 00 00 00 ff ff ff ff ff ff ff ff 00 00 00 00 00  ................
	0x0040 00 00 00 00 00 00 00 00 00 00 00 31 00 00 00 00  ...........1....
	0x0050 00 00 00 01 00 53 00 00 00 00 00 00 00 00 00 00  .....S..........
	0x0060 00 00 00 00 00 00 ff ff ff ff ff ff ff ff 00 00  ................
	0x0070 00 00 00 00 00 00 14 00 00 00 00 00 00 00 2a 00  ..............*.
	0x0080 00 00 00 00 00 00 01 00 50 00 00 00 00 00 00 00  ........P.......
	0x0090 00 00 00 00 00 00 00 00 00 ff ff ff ff ff ff ff  ................
	0x00a0 ff 00 00 00 00 00 00 00 00 17 00 00 00 00 00 00  ................
	0x00b0 00 36 00 00 00 00 00 00 00 01 00 52 00 00 00 00  .6.........R....
	0x00c0 00 00 00 00 00 00 00 00 00 00 00 00              ............
	rel 8+8 t=R_ADDR command-line-arguments.Add64PanicOnOverflowEQ<1>+0
	rel 59+8 t=R_ADDR command-line-arguments.Add64PanicOnOverflowEQ<1>+0
	rel 110+8 t=R_ADDR command-line-arguments.Add64PanicOnOverflowEQ<1>+0
	rel 161+8 t=R_ADDR command-line-arguments.Add64PanicOnOverflowEQ<1>+0
aux for command-line-arguments.Add64PanicOnOverflowEQ<0> SDWARFLINES size=39
	0x0000 00 09 02 00 00 00 00 00 00 00 00 04 02 03 93 04  ................
	0x0010 14 0a 73 38 06 2d 06 4d 06 37 06 26 49 06 55 06  ..s8.-.M.7.&I.U.
	0x0020 55 47 02 1b 00 01 01                             UG.....
	rel 3+8 t=R_ADDR command-line-arguments.Add64PanicOnOverflowEQ<1>+0
aux for command-line-arguments.Add64PanicOnOverflowEQ<0> SDWARFFCN size=140
	0x0000 03 63 6f 6d 6d 61 6e 64 2d 6c 69 6e 65 2d 61 72  .command-line-ar
	0x0010 67 75 6d 65 6e 74 73 2e 41 64 64 36 34 50 61 6e  guments.Add64Pan
	0x0020 69 63 4f 6e 4f 76 65 72 66 6c 6f 77 45 51 00 00  icOnOverflowEQ..
	0x0030 00 00 00 00 00 00 00 00 00 00 00 00 00 00 00 01  ................
	0x0040 9c 02 00 00 00 99 04 01 12 61 00 00 99 04 00 00  .........a......
	0x0050 00 00 00 00 00 00 12 62 00 00 99 04 00 00 00 00  .......b........
	0x0060 00 00 00 00 11 7e 72 30 00 01 99 04 00 00 00 00  .....~r0........
	0x0070 00 0d 72 00 9a 04 00 00 00 00 00 00 00 00 0d 63  ..r............c
	0x0080 00 9a 04 00 00 00 00 00 00 00 00 00              ............
	rel 0+0 t=R_USETYPE type:uint64<0>+0
	rel 47+8 t=R_ADDR command-line-arguments.Add64PanicOnOverflowEQ<1>+0
	rel 55+8 t=R_ADDR command-line-arguments.Add64PanicOnOverflowEQ<1>+82
	rel 78+4 t=R_DWARFSECREF go:info.uint64<0>+0
	rel 82+4 t=R_DWARFSECREF <0>+0
	rel 92+4 t=R_DWARFSECREF go:info.uint64<0>+0
	rel 96+4 t=R_DWARFSECREF <0>+51
	rel 108+4 t=R_DWARFSECREF go:info.uint64<0>+0
	rel 118+4 t=R_DWARFSECREF go:info.uint64<0>+0
	rel 122+4 t=R_DWARFSECREF <0>+102
	rel 131+4 t=R_DWARFSECREF go:info.uint64<0>+0
	rel 135+4 t=R_DWARFSECREF <0>+153
aux for command-line-arguments.Add64PanicOnOverflowNE<0> SDWARFLOC size=204
	0x0000 ff ff ff ff ff ff ff ff 00 00 00 00 00 00 00 00  ................
	0x0010 00 00 00 00 00 00 00 00 14 00 00 00 00 00 00 00  ................
	0x0020 01 00 50 00 00 00 00 00 00 00 00 00 00 00 00 00  ..P.............
	0x0030 00 00 00 ff ff ff ff ff ff ff ff 00 00 00 00 00  ................
	0x0040 00 00 00 00 00 00 00 00 00 00 00 30 00 00 00 00  ...........0....
	0x0050 00 00 00 01 00 53 00 00 00 00 00 00 00 00 00 00  .....S..........
	0x0060 00 00 00 00 00 00 ff ff ff ff ff ff ff ff 00 00  ................
	0x0070 00 00 00 00 00 00 14 00 00 00 00 00 00 00 29 00  ..............).
	0x0080 00 00 00 00 00 00 01 00 50 00 00 00 00 00 00 00  ........P.......
	0x0090 00 00 00 00 00 00 00 00 00 ff ff ff ff ff ff ff  ................
	0x00a0 ff 00 00 00 00 00 00 00 00 17 00 00 00 00 00 00  ................
	0x00b0 00 35 00 00 00 00 00 00 00 01 00 52 00 00 00 00  .5.........R....
	0x00c0 00 00 00 00 00 00 00 00 00 00 00 00              ............
	rel 8+8 t=R_ADDR command-line-arguments.Add64PanicOnOverflowNE<1>+0
	rel 59+8 t=R_ADDR command-line-arguments.Add64PanicOnOverflowNE<1>+0
	rel 110+8 t=R_ADDR command-line-arguments.Add64PanicOnOverflowNE<1>+0
	rel 161+8 t=R_ADDR command-line-arguments.Add64PanicOnOverflowNE<1>+0
aux for command-line-arguments.Add64PanicOnOverflowNE<0> SDWARFLINES size=39
	0x0000 00 09 02 00 00 00 00 00 00 00 00 04 02 03 9c 04  ................
	0x0010 14 0a 73 38 06 2d 06 4d 06 2d 06 26 49 06 55 06  ..s8.-.M.-.&I.U.
	0x0020 55 47 02 1b 00 01 01                             UG.....
	rel 3+8 t=R_ADDR command-line-arguments.Add64PanicOnOverflowNE<1>+0
aux for command-line-arguments.Add64PanicOnOverflowNE<0> SDWARFFCN size=140
	0x0000 03 63 6f 6d 6d 61 6e 64 2d 6c 69 6e 65 2d 61 72  .command-line-ar
	0x0010 67 75 6d 65 6e 74 73 2e 41 64 64 36 34 50 61 6e  guments.Add64Pan
	0x0020 69 63 4f 6e 4f 76 65 72 66 6c 6f 77 4e 45 00 00  icOnOverflowNE..
	0x0030 00 00 00 00 00 00 00 00 00 00 00 00 00 00 00 01  ................
	0x0040 9c 02 00 00 00 a2 04 01 12 61 00 00 a2 04 00 00  .........a......
	0x0050 00 00 00 00 00 00 12 62 00 00 a2 04 00 00 00 00  .......b........
	0x0060 00 00 00 00 11 7e 72 30 00 01 a2 04 00 00 00 00  .....~r0........
	0x0070 00 0d 72 00 a3 04 00 00 00 00 00 00 00 00 0d 63  ..r............c
	0x0080 00 a3 04 00 00 00 00 00 00 00 00 00              ............
	rel 0+0 t=R_USETYPE type:uint64<0>+0
	rel 47+8 t=R_ADDR command-line-arguments.Add64PanicOnOverflowNE<1>+0
	rel 55+8 t=R_ADDR command-line-arguments.Add64PanicOnOverflowNE<1>+81
	rel 78+4 t=R_DWARFSECREF go:info.uint64<0>+0
	rel 82+4 t=R_DWARFSECREF <0>+0
	rel 92+4 t=R_DWARFSECREF go:info.uint64<0>+0
	rel 96+4 t=R_DWARFSECREF <0>+51
	rel 108+4 t=R_DWARFSECREF go:info.uint64<0>+0
	rel 118+4 t=R_DWARFSECREF go:info.uint64<0>+0
	rel 122+4 t=R_DWARFSECREF <0>+102
	rel 131+4 t=R_DWARFSECREF go:info.uint64<0>+0
	rel 135+4 t=R_DWARFSECREF <0>+153
aux for command-line-arguments.Add64PanicOnOverflowGT<0> SDWARFLOC size=204
	0x0000 ff ff ff ff ff ff ff ff 00 00 00 00 00 00 00 00  ................
	0x0010 00 00 00 00 00 00 00 00 14 00 00 00 00 00 00 00  ................
	0x0020 01 00 50 00 00 00 00 00 00 00 00 00 00 00 00 00  ..P.............
	0x0030 00 00 00 ff ff ff ff ff ff ff ff 00 00 00 00 00  ................
	0x0040 00 00 00 00 00 00 00 00 00 00 00 30 00 00 00 00  ...........0....
	0x0050 00 00 00 01 00 53 00 00 00 00 00 00 00 00 00 00  .....S..........
	0x0060 00 00 00 00 00 00 ff ff ff ff ff ff ff ff 00 00  ................
	0x0070 00 00 00 00 00 00 14 00 00 00 00 00 00 00 29 00  ..............).
	0x0080 00 00 00 00 00 00 01 00 50 00 00 00 00 00 00 00  ........P.......
	0x0090 00 00 00 00 00 00 00 00 00 ff ff ff ff ff ff ff  ................
	0x00a0 ff 00 00 00 00 00 00 00 00 17 00 00 00 00 00 00  ................
	0x00b0 00 35 00 00 00 00 00 00 00 01 00 52 00 00 00 00  .5.........R....
	0x00c0 00 00 00 00 00 00 00 00 00 00 00 00              ............
	rel 8+8 t=R_ADDR command-line-arguments.Add64PanicOnOverflowGT<1>+0
	rel 59+8 t=R_ADDR command-line-arguments.Add64PanicOnOverflowGT<1>+0
	rel 110+8 t=R_ADDR command-line-arguments.Add64PanicOnOverflowGT<1>+0
	rel 161+8 t=R_ADDR command-line-arguments.Add64PanicOnOverflowGT<1>+0
aux for command-line-arguments.Add64PanicOnOverflowGT<0> SDWARFLINES size=39
	0x0000 00 09 02 00 00 00 00 00 00 00 00 04 02 03 a5 04  ................
	0x0010 14 0a 73 38 06 2d 06 4d 06 2d 06 26 49 06 55 06  ..s8.-.M.-.&I.U.
	0x0020 55 47 02 1b 00 01 01                             UG.....
	rel 3+8 t=R_ADDR command-line-arguments.Add64PanicOnOverflowGT<1>+0
aux for command-line-arguments.Add64PanicOnOverflowGT<0> SDWARFFCN size=140
	0x0000 03 63 6f 6d 6d 61 6e 64 2d 6c 69 6e 65 2d 61 72  .command-line-ar
	0x0010 67 75 6d 65 6e 74 73 2e 41 64 64 36 34 50 61 6e  guments.Add64Pan
	0x0020 69 63 4f 6e 4f 76 65 72 66 6c 6f 77 47 54 00 00  icOnOverflowGT..
	0x0030 00 00 00 00 00 00 00 00 00 00 00 00 00 00 00 01  ................
	0x0040 9c 02 00 00 00 ab 04 01 12 61 00 00 ab 04 00 00  .........a......
	0x0050 00 00 00 00 00 00 12 62 00 00 ab 04 00 00 00 00  .......b........
	0x0060 00 00 00 00 11 7e 72 30 00 01 ab 04 00 00 00 00  .....~r0........
	0x0070 00 0d 72 00 ac 04 00 00 00 00 00 00 00 00 0d 63  ..r............c
	0x0080 00 ac 04 00 00 00 00 00 00 00 00 00              ............
	rel 0+0 t=R_USETYPE type:uint64<0>+0
	rel 47+8 t=R_ADDR command-line-arguments.Add64PanicOnOverflowGT<1>+0
	rel 55+8 t=R_ADDR command-line-arguments.Add64PanicOnOverflowGT<1>+81
	rel 78+4 t=R_DWARFSECREF go:info.uint64<0>+0
	rel 82+4 t=R_DWARFSECREF <0>+0
	rel 92+4 t=R_DWARFSECREF go:info.uint64<0>+0
	rel 96+4 t=R_DWARFSECREF <0>+51
	rel 108+4 t=R_DWARFSECREF go:info.uint64<0>+0
	rel 118+4 t=R_DWARFSECREF go:info.uint64<0>+0
	rel 122+4 t=R_DWARFSECREF <0>+102
	rel 131+4 t=R_DWARFSECREF go:info.uint64<0>+0
	rel 135+4 t=R_DWARFSECREF <0>+153
aux for command-line-arguments.Add64MPanicOnOverflowEQ<0> SDWARFLOC size=51
	0x0000 ff ff ff ff ff ff ff ff 00 00 00 00 00 00 00 00  ................
	0x0010 34 00 00 00 00 00 00 00 5d 00 00 00 00 00 00 00  4.......].......
	0x0020 01 00 52 00 00 00 00 00 00 00 00 00 00 00 00 00  ..R.............
	0x0030 00 00 00                                         ...
	rel 8+8 t=R_ADDR command-line-arguments.Add64MPanicOnOverflowEQ<1>+0
aux for command-line-arguments.Add64MPanicOnOverflowEQ<0> SDWARFLINES size=53
	0x0000 00 09 02 00 00 00 00 00 00 00 00 04 02 03 ae 04  ................
	0x0010 14 0a 73 76 06 41 06 42 06 41 40 2e 06 6b 06 37  ..sv.A.B.A@..k.7
	0x0020 06 26 06 41 06 7b 06 55 06 55 06 03 7d 47 06 23  .&.A.{.U.U..}G.#
	0x0030 02 07 00 01 01                                   .....
	rel 3+8 t=R_ADDR command-line-arguments.Add64MPanicOnOverflowEQ<1>+0
aux for command-line-arguments.Add64MPanicOnOverflowEQ<0> SDWARFFCN size=125
	0x0000 03 63 6f 6d 6d 61 6e 64 2d 6c 69 6e 65 2d 61 72  .command-line-ar
	0x0010 67 75 6d 65 6e 74 73 2e 41 64 64 36 34 4d 50 61  guments.Add64MPa
	0x0020 6e 69 63 4f 6e 4f 76 65 72 66 6c 6f 77 45 51 00  nicOnOverflowEQ.
	0x0030 00 00 00 00 00 00 00 00 00 00 00 00 00 00 00 00  ................
	0x0040 01 9c 02 00 00 00 b4 04 01 11 61 00 00 b4 04 00  ..........a.....
	0x0050 00 00 00 01 9c 11 62 00 00 b4 04 00 00 00 00 02  ......b.........
	0x0060 91 10 11 7e 72 30 00 01 b4 04 00 00 00 00 00 0d  ...~r0..........
	0x0070 63 00 b6 04 00 00 00 00 00 00 00 00 00           c............
	rel 0+0 t=R_USETYPE type:[2]uint64<0>+0
	rel 48+8 t=R_ADDR command-line-arguments.Add64MPanicOnOverflowEQ<1>+0
	rel 56+8 t=R_ADDR command-line-arguments.Add64MPanicOnOverflowEQ<1>+103
	rel 79+4 t=R_DWARFSECREF go:info.[2]uint64<0>+0
	rel 91+4 t=R_DWARFSECREF go:info.[2]uint64<0>+0
	rel 106+4 t=R_DWARFSECREF go:info.[2]uint64<0>+0
	rel 116+4 t=R_DWARFSECREF go:info.uint64<0>+0
	rel 120+4 t=R_DWARFSECREF <0>+0
aux for command-line-arguments.Add64MPanicOnOverflowNE<0> SDWARFLOC size=51
	0x0000 ff ff ff ff ff ff ff ff 00 00 00 00 00 00 00 00  ................
	0x0010 34 00 00 00 00 00 00 00 5c 00 00 00 00 00 00 00  4.......\.......
	0x0020 01 00 52 00 00 00 00 00 00 00 00 00 00 00 00 00  ..R.............
	0x0030 00 00 00                                         ...
	rel 8+8 t=R_ADDR command-line-arguments.Add64MPanicOnOverflowNE<1>+0
aux for command-line-arguments.Add64MPanicOnOverflowNE<0> SDWARFLINES size=53
	0x0000 00 09 02 00 00 00 00 00 00 00 00 04 02 03 ba 04  ................
	0x0010 14 0a 73 76 06 41 06 42 06 41 40 2e 06 6b 06 2d  ..sv.A.B.A@..k.-
	0x0020 06 26 06 41 06 7b 06 55 06 55 06 03 7d 47 06 2d  .&.A.{.U.U..}G.-
	0x0030 02 07 00 01 01                                   .....
	rel 3+8 t=R_ADDR command-line-arguments.Add64MPanicOnOverflowNE<1>+0
aux for command-line-arguments.Add64MPanicOnOverflowNE<0> SDWARFFCN size=125
	0x0000 03 63 6f 6d 6d 61 6e 64 2d 6c 69 6e 65 2d 61 72  .command-line-ar
	0x0010 67 75 6d 65 6e 74 73 2e 41 64 64 36 34 4d 50 61  guments.Add64MPa
	0x0020 6e 69 63 4f 6e 4f 76 65 72 66 6c 6f 77 4e 45 00  nicOnOverflowNE.
	0x0030 00 00 00 00 00 00 00 00 00 00 00 00 00 00 00 00  ................
	0x0040 01 9c 02 00 00 00 c0 04 01 11 61 00 00 c0 04 00  ..........a.....
	0x0050 00 00 00 01 9c 11 62 00 00 c0 04 00 00 00 00 02  ......b.........
	0x0060 91 10 11 7e 72 30 00 01 c0 04 00 00 00 00 00 0d  ...~r0..........
	0x0070 63 00 c2 04 00 00 00 00 00 00 00 00 00           c............
	rel 0+0 t=R_USETYPE type:[2]uint64<0>+0
	rel 48+8 t=R_ADDR command-line-arguments.Add64MPanicOnOverflowNE<1>+0
	rel 56+8 t=R_ADDR command-line-arguments.Add64MPanicOnOverflowNE<1>+103
	rel 79+4 t=R_DWARFSECREF go:info.[2]uint64<0>+0
	rel 91+4 t=R_DWARFSECREF go:info.[2]uint64<0>+0
	rel 106+4 t=R_DWARFSECREF go:info.[2]uint64<0>+0
	rel 116+4 t=R_DWARFSECREF go:info.uint64<0>+0
	rel 120+4 t=R_DWARFSECREF <0>+0
aux for command-line-arguments.Add64MPanicOnOverflowGT<0> SDWARFLOC size=51
	0x0000 ff ff ff ff ff ff ff ff 00 00 00 00 00 00 00 00  ................
	0x0010 34 00 00 00 00 00 00 00 5c 00 00 00 00 00 00 00  4.......\.......
	0x0020 01 00 52 00 00 00 00 00 00 00 00 00 00 00 00 00  ..R.............
	0x0030 00 00 00                                         ...
	rel 8+8 t=R_ADDR command-line-arguments.Add64MPanicOnOverflowGT<1>+0
aux for command-line-arguments.Add64MPanicOnOverflowGT<0> SDWARFLINES size=53
	0x0000 00 09 02 00 00 00 00 00 00 00 00 04 02 03 c6 04  ................
	0x0010 14 0a 73 76 06 41 06 42 06 41 40 2e 06 6b 06 2d  ..sv.A.B.A@..k.-
	0x0020 06 26 06 41 06 7b 06 55 06 55 06 03 7d 47 06 2d  .&.A.{.U.U..}G.-
	0x0030 02 07 00 01 01                                   .....
	rel 3+8 t=R_ADDR command-line-arguments.Add64MPanicOnOverflowGT<1>+0
aux for command-line-arguments.Add64MPanicOnOverflowGT<0> SDWARFFCN size=125
	0x0000 03 63 6f 6d 6d 61 6e 64 2d 6c 69 6e 65 2d 61 72  .command-line-ar
	0x0010 67 75 6d 65 6e 74 73 2e 41 64 64 36 34 4d 50 61  guments.Add64MPa
	0x0020 6e 69 63 4f 6e 4f 76 65 72 66 6c 6f 77 47 54 00  nicOnOverflowGT.
	0x0030 00 00 00 00 00 00 00 00 00 00 00 00 00 00 00 00  ................
	0x0040 01 9c 02 00 00 00 cc 04 01 11 61 00 00 cc 04 00  ..........a.....
	0x0050 00 00 00 01 9c 11 62 00 00 cc 04 00 00 00 00 02  ......b.........
	0x0060 91 10 11 7e 72 30 00 01 cc 04 00 00 00 00 00 0d  ...~r0..........
	0x0070 63 00 ce 04 00 00 00 00 00 00 00 00 00           c............
	rel 0+0 t=R_USETYPE type:[2]uint64<0>+0
	rel 48+8 t=R_ADDR command-line-arguments.Add64MPanicOnOverflowGT<1>+0
	rel 56+8 t=R_ADDR command-line-arguments.Add64MPanicOnOverflowGT<1>+103
	rel 79+4 t=R_DWARFSECREF go:info.[2]uint64<0>+0
	rel 91+4 t=R_DWARFSECREF go:info.[2]uint64<0>+0
	rel 106+4 t=R_DWARFSECREF go:info.[2]uint64<0>+0
	rel 116+4 t=R_DWARFSECREF go:info.uint64<0>+0
	rel 120+4 t=R_DWARFSECREF <0>+0
aux for command-line-arguments.Add64MultipleChains<0> SDWARFLOC size=408
	0x0000 ff ff ff ff ff ff ff ff 00 00 00 00 00 00 00 00  ................
	0x0010 24 00 00 00 00 00 00 00 35 00 00 00 00 00 00 00  $.......5.......
	0x0020 01 00 51 00 00 00 00 00 00 00 00 00 00 00 00 00  ..Q.............
	0x0030 00 00 00 ff ff ff ff ff ff ff ff 00 00 00 00 00  ................
	0x0040 00 00 00 27 00 00 00 00 00 00 00 35 00 00 00 00  ...'.......5....
	0x0050 00 00 00 01 00 53 00 00 00 00 00 00 00 00 00 00  .....S..........
	0x0060 00 00 00 00 00 00 ff ff ff ff ff ff ff ff 00 00  ................
	0x0070 00 00 00 00 00 00 05 00 00 00 00 00 00 00 35 00  ..............5.
	0x0080 00 00 00 00 00 00 01 00 50 00 00 00 00 00 00 00  ........P.......
	0x0090 00 00 00 00 00 00 00 00 00 ff ff ff ff ff ff ff  ................
	0x00a0 ff 00 00 00 00 00 00 00 00 0a 00 00 00 00 00 00  ................
	0x00b0 00 35 00 00 00 00 00 00 00 01 00 52 00 00 00 00  .5.........R....
	0x00c0 00 00 00 00 00 00 00 00 00 00 00 00 ff ff ff ff  ................
	0x00d0 ff ff ff ff 00 00 00 00 00 00 00 00 0f 00 00 00  ................
	0x00e0 00 00 00 00 24 00 00 00 00 00 00 00 01 00 51 00  ....$.........Q.
	0x00f0 00 00 00 00 00 00 00 00 00 00 00 00 00 00 00 ff  ................
	0x0100 ff ff ff ff ff ff ff 00 00 00 00 00 00 00 00 14  ................
	0x0110 00 00 00 00 00 00 00 27 00 00 00 00 00 00 00 01  .......'........
	0x0120 00 53 00 00 00 00 00 00 00 00 00 00 00 00 00 00  .S..............
	0x0130 00 00 ff ff ff ff ff ff ff ff 00 00 00 00 00 00  ................
	0x0140 00 00 19 00 00 00 00 00 00 00 35 00 00 00 00 00  ..........5.....
	0x0150 00 00 01 00 54 00 00 00 00 00 00 00 00 00 00 00  ....T...........
	0x0160 00 00 00 00 00 ff ff ff ff ff ff ff ff 00 00 00  ................
	0x0170 00 00 00 00 00 1e 00 00 00 00 00 00 00 34 00 00  .............4..
	0x0180 00 00 00 00 00 01 00 55 00 00 00 00 00 00 00 00  .......U........
	0x0190 00 00 00 00 00 00 00 00                          ........
	rel 8+8 t=R_ADDR command-line-arguments.Add64MultipleChains<1>+0
	rel 59+8 t=R_ADDR command-line-arguments.Add64MultipleChains<1>+0
	rel 110+8 t=R_ADDR command-line-arguments.Add64MultipleChains<1>+0
	rel 161+8 t=R_ADDR command-line-arguments.Add64MultipleChains<1>+0
	rel 212+8 t=R_ADDR command-line-arguments.Add64MultipleChains<1>+0
	rel 263+8 t=R_ADDR command-line-arguments.Add64MultipleChains<1>+0
	rel 314+8 t=R_ADDR command-line-arguments.Add64MultipleChains<1>+0
	rel 365+8 t=R_ADDR command-line-arguments.Add64MultipleChains<1>+0
aux for command-line-arguments.Add64MultipleChains<0> SDWARFLINES size=42
	0x0000 00 09 02 00 00 00 00 00 00 00 00 04 02 03 de 04  ................
	0x0010 14 06 41 06 42 06 41 06 42 06 41 44 2f 30 06 30  ..A.B.A.B.AD/0.0
	0x0020 06 40 06 2f 42 02 01 00 01 01                    .@./B.....
	rel 3+8 t=R_ADDR command-line-arguments.Add64MultipleChains<1>+0
aux for command-line-arguments.Add64MultipleChains<0> SDWARFFCN size=233
	0x0000 03 63 6f 6d 6d 61 6e 64 2d 6c 69 6e 65 2d 61 72  .command-line-ar
	0x0010 67 75 6d 65 6e 74 73 2e 41 64 64 36 34 4d 75 6c  guments.Add64Mul
	0x0020 74 69 70 6c 65 43 68 61 69 6e 73 00 00 00 00 00  tipleChains.....
	0x0030 00 00 00 00 00 00 00 00 00 00 00 00 01 9c 02 00  ................
	0x0040 00 00 e2 04 01 11 61 00 00 e2 04 00 00 00 00 01  ......a.........
	0x0050 9c 11 62 00 00 e2 04 00 00 00 00 02 91 10 11 63  ..b............c
	0x0060 00 00 e2 04 00 00 00 00 02 91 20 11 64 00 00 e2  .......... .d...
	0x0070 04 00 00 00 00 02 91 30 0d 64 31 00 e3 04 00 00  .......0.d1.....
	0x0080 00 00 00 00 00 00 0d 64 32 00 e3 04 00 00 00 00  .......d2.......
	0x0090 00 00 00 00 0d 61 31 00 e4 04 00 00 00 00 00 00  .....a1.........
	0x00a0 00 00 0d 61 32 00 e4 04 00 00 00 00 00 00 00 00  ...a2...........
	0x00b0 0d 62 31 00 e5 04 00 00 00 00 00 00 00 00 0d 62  .b1............b
	0x00c0 32 00 e5 04 00 00 00 00 00 00 00 00 0d 63 31 00  2............c1.
	0x00d0 e6 04 00 00 00 00 00 00 00 00 0d 63 32 00 e6 04  ...........c2...
	0x00e0 00 00 00 00 00 00 00 00 00                       .........
	rel 44+8 t=R_ADDR command-line-arguments.Add64MultipleChains<1>+0
	rel 52+8 t=R_ADDR command-line-arguments.Add64MultipleChains<1>+53
	rel 75+4 t=R_DWARFSECREF go:info.[2]uint64<0>+0
	rel 87+4 t=R_DWARFSECREF go:info.[2]uint64<0>+0
	rel 100+4 t=R_DWARFSECREF go:info.[2]uint64<0>+0
	rel 113+4 t=R_DWARFSECREF go:info.[2]uint64<0>+0
	rel 126+4 t=R_DWARFSECREF go:info.uint64<0>+0
	rel 130+4 t=R_DWARFSECREF <0>+0
	rel 140+4 t=R_DWARFSECREF go:info.uint64<0>+0
	rel 144+4 t=R_DWARFSECREF <0>+51
	rel 154+4 t=R_DWARFSECREF go:info.uint64<0>+0
	rel 158+4 t=R_DWARFSECREF <0>+102
	rel 168+4 t=R_DWARFSECREF go:info.uint64<0>+0
	rel 172+4 t=R_DWARFSECREF <0>+153
	rel 182+4 t=R_DWARFSECREF go:info.uint64<0>+0
	rel 186+4 t=R_DWARFSECREF <0>+204
	rel 196+4 t=R_DWARFSECREF go:info.uint64<0>+0
	rel 200+4 t=R_DWARFSECREF <0>+255
	rel 210+4 t=R_DWARFSECREF go:info.uint64<0>+0
	rel 214+4 t=R_DWARFSECREF <0>+306
	rel 224+4 t=R_DWARFSECREF go:info.uint64<0>+0
	rel 228+4 t=R_DWARFSECREF <0>+357
aux for command-line-arguments.Sub<0> SDWARFLOC size=153
	0x0000 ff ff ff ff ff ff ff ff 00 00 00 00 00 00 00 00  ................
	0x0010 00 00 00 00 00 00 00 00 08 00 00 00 00 00 00 00  ................
	0x0020 01 00 50 00 00 00 00 00 00 00 00 00 00 00 00 00  ..P.............
	0x0030 00 00 00 ff ff ff ff ff ff ff ff 00 00 00 00 00  ................
	0x0040 00 00 00 00 00 00 00 00 00 00 00 08 00 00 00 00  ................
	0x0050 00 00 00 01 00 53 00 00 00 00 00 00 00 00 00 00  .....S..........
	0x0060 00 00 00 00 00 00 ff ff ff ff ff ff ff ff 00 00  ................
	0x0070 00 00 00 00 00 00 00 00 00 00 00 00 00 00 0c 00  ................
	0x0080 00 00 00 00 00 00 01 00 52 00 00 00 00 00 00 00  ........R.......
	0x0090 00 00 00 00 00 00 00 00 00                       .........
	rel 8+8 t=R_ADDR command-line-arguments.Sub<1>+0
	rel 59+8 t=R_ADDR command-line-arguments.Sub<1>+0
	rel 110+8 t=R_ADDR command-line-arguments.Sub<1>+0
aux for command-line-arguments.Sub<0> SDWARFLINES size=24
	0x0000 00 09 02 00 00 00 00 00 00 00 00 04 02 03 fb 04  ................
	0x0010 14 06 23 02 0a 00 01 01                          ..#.....
	rel 3+8 t=R_ADDR command-line-arguments.Sub<1>+0
aux for command-line-arguments.Sub<0> SDWARFFCN size=120
	0x0000 03 63 6f 6d 6d 61 6e 64 2d 6c 69 6e 65 2d 61 72  .command-line-ar
	0x0010 67 75 6d 65 6e 74 73 2e 53 75 62 00 00 00 00 00  guments.Sub.....
	0x0020 00 00 00 00 00 00 00 00 00 00 00 00 01 9c 02 00  ................
	0x0030 00 00 f9 04 01 12 78 00 00 f9 04 00 00 00 00 00  ......x.........
	0x0040 00 00 00 12 79 00 00 f9 04 00 00 00 00 00 00 00  ....y...........
	0x0050 00 12 63 69 00 00 f9 04 00 00 00 00 00 00 00 00  ..ci............
	0x0060 11 72 00 01 f9 04 00 00 00 00 00 11 63 6f 00 01  .r..........co..
	0x0070 f9 04 00 00 00 00 00 00                          ........
	rel 0+0 t=R_USETYPE type:uint<0>+0
	rel 28+8 t=R_ADDR command-line-arguments.Sub<1>+0
	rel 36+8 t=R_ADDR command-line-arguments.Sub<1>+12
	rel 59+4 t=R_DWARFSECREF go:info.uint<0>+0
	rel 63+4 t=R_DWARFSECREF <0>+0
	rel 73+4 t=R_DWARFSECREF go:info.uint<0>+0
	rel 77+4 t=R_DWARFSECREF <0>+51
	rel 88+4 t=R_DWARFSECREF go:info.uint<0>+0
	rel 92+4 t=R_DWARFSECREF <0>+102
	rel 102+4 t=R_DWARFSECREF go:info.uint<0>+0
	rel 114+4 t=R_DWARFSECREF go:info.uint<0>+0
aux for command-line-arguments.SubC<0> SDWARFLOC size=102
	0x0000 ff ff ff ff ff ff ff ff 00 00 00 00 00 00 00 00  ................
	0x0010 00 00 00 00 00 00 00 00 09 00 00 00 00 00 00 00  ................
	0x0020 01 00 50 00 00 00 00 00 00 00 00 00 00 00 00 00  ..P.............
	0x0030 00 00 00 ff ff ff ff ff ff ff ff 00 00 00 00 00  ................
	0x0040 00 00 00 00 00 00 00 00 00 00 00 09 00 00 00 00  ................
	0x0050 00 00 00 01 00 53 00 00 00 00 00 00 00 00 00 00  .....S..........
	0x0060 00 00 00 00 00 00                                ......
	rel 8+8 t=R_ADDR command-line-arguments.SubC<1>+0
	rel 59+8 t=R_ADDR command-line-arguments.SubC<1>+0
aux for command-line-arguments.SubC<0> SDWARFLINES size=24
	0x0000 00 09 02 00 00 00 00 00 00 00 00 04 02 03 86 05  ................
	0x0010 14 06 23 02 0b 00 01 01                          ..#.....
	rel 3+8 t=R_ADDR command-line-arguments.SubC<1>+0
aux for command-line-arguments.SubC<0> SDWARFFCN size=107
	0x0000 03 63 6f 6d 6d 61 6e 64 2d 6c 69 6e 65 2d 61 72  .command-line-ar
	0x0010 67 75 6d 65 6e 74 73 2e 53 75 62 43 00 00 00 00  guments.SubC....
	0x0020 00 00 00 00 00 00 00 00 00 00 00 00 00 01 9c 02  ................
	0x0030 00 00 00 84 05 01 12 78 00 00 84 05 00 00 00 00  .......x........
	0x0040 00 00 00 00 12 63 69 00 00 84 05 00 00 00 00 00  .....ci.........
	0x0050 00 00 00 11 72 00 01 84 05 00 00 00 00 00 11 63  ....r..........c
	0x0060 6f 00 01 84 05 00 00 00 00 00 00                 o..........
	rel 0+0 t=R_USETYPE type:uint<0>+0
	rel 29+8 t=R_ADDR command-line-arguments.SubC<1>+0
	rel 37+8 t=R_ADDR command-line-arguments.SubC<1>+13
	rel 60+4 t=R_DWARFSECREF go:info.uint<0>+0
	rel 64+4 t=R_DWARFSECREF <0>+0
	rel 75+4 t=R_DWARFSECREF go:info.uint<0>+0
	rel 79+4 t=R_DWARFSECREF <0>+51
	rel 89+4 t=R_DWARFSECREF go:info.uint<0>+0
	rel 101+4 t=R_DWARFSECREF go:info.uint<0>+0
aux for command-line-arguments.SubZ<0> SDWARFLOC size=102
	0x0000 ff ff ff ff ff ff ff ff 00 00 00 00 00 00 00 00  ................
	0x0010 00 00 00 00 00 00 00 00 06 00 00 00 00 00 00 00  ................
	0x0020 01 00 50 00 00 00 00 00 00 00 00 00 00 00 00 00  ..P.............
	0x0030 00 00 00 ff ff ff ff ff ff ff ff 00 00 00 00 00  ................
	0x0040 00 00 00 00 00 00 00 00 00 00 00 06 00 00 00 00  ................
	0x0050 00 00 00 01 00 53 00 00 00 00 00 00 00 00 00 00  .....S..........
	0x0060 00 00 00 00 00 00                                ......
	rel 8+8 t=R_ADDR command-line-arguments.SubZ<1>+0
	rel 59+8 t=R_ADDR command-line-arguments.SubZ<1>+0
aux for command-line-arguments.SubZ<0> SDWARFLINES size=24
	0x0000 00 09 02 00 00 00 00 00 00 00 00 04 02 03 91 05  ................
	0x0010 14 06 2d 02 07 00 01 01                          ..-.....
	rel 3+8 t=R_ADDR command-line-arguments.SubZ<1>+0
aux for command-line-arguments.SubZ<0> SDWARFFCN size=106
	0x0000 03 63 6f 6d 6d 61 6e 64 2d 6c 69 6e 65 2d 61 72  .command-line-ar
	0x0010 67 75 6d 65 6e 74 73 2e 53 75 62 5a 00 00 00 00  guments.SubZ....
	0x0020 00 00 00 00 00 00 00 00 00 00 00 00 00 01 9c 02  ................
	0x0030 00 00 00 8f 05 01 12 78 00 00 8f 05 00 00 00 00  .......x........
	0x0040 00 00 00 00 12 79 00 00 8f 05 00 00 00 00 00 00  .....y..........
	0x0050 00 00 11 72 00 01 8f 05 00 00 00 00 00 11 63 6f  ...r..........co
	0x0060 00 01 8f 05 00 00 00 00 00 00                    ..........
	rel 0+0 t=R_USETYPE type:uint<0>+0
	rel 29+8 t=R_ADDR command-line-arguments.SubZ<1>+0
	rel 37+8 t=R_ADDR command-line-arguments.SubZ<1>+10
	rel 60+4 t=R_DWARFSECREF go:info.uint<0>+0
	rel 64+4 t=R_DWARFSECREF <0>+0
	rel 74+4 t=R_DWARFSECREF go:info.uint<0>+0
	rel 78+4 t=R_DWARFSECREF <0>+51
	rel 88+4 t=R_DWARFSECREF go:info.uint<0>+0
	rel 100+4 t=R_DWARFSECREF go:info.uint<0>+0
aux for command-line-arguments.SubR<0> SDWARFLOC size=204
	0x0000 ff ff ff ff ff ff ff ff 00 00 00 00 00 00 00 00  ................
	0x0010 00 00 00 00 00 00 00 00 05 00 00 00 00 00 00 00  ................
	0x0020 01 00 50 00 00 00 00 00 00 00 00 00 00 00 00 00  ..P.............
	0x0030 00 00 00 ff ff ff ff ff ff ff ff 00 00 00 00 00  ................
	0x0040 00 00 00 00 00 00 00 00 00 00 00 06 00 00 00 00  ................
	0x0050 00 00 00 01 00 53 00 00 00 00 00 00 00 00 00 00  .....S..........
	0x0060 00 00 00 00 00 00 ff ff ff ff ff ff ff ff 00 00  ................
	0x0070 00 00 00 00 00 00 00 00 00 00 00 00 00 00 06 00  ................
	0x0080 00 00 00 00 00 00 01 00 52 00 00 00 00 00 00 00  ........R.......
	0x0090 00 00 00 00 00 00 00 00 00 ff ff ff ff ff ff ff  ................
	0x00a0 ff 00 00 00 00 00 00 00 00 05 00 00 00 00 00 00  ................
	0x00b0 00 06 00 00 00 00 00 00 00 01 00 50 00 00 00 00  ...........P....
	0x00c0 00 00 00 00 00 00 00 00 00 00 00 00              ............
	rel 8+8 t=R_ADDR command-line-arguments.SubR<1>+0
	rel 59+8 t=R_ADDR command-line-arguments.SubR<1>+0
	rel 110+8 t=R_ADDR command-line-arguments.SubR<1>+0
	rel 161+8 t=R_ADDR command-line-arguments.SubR<1>+0
aux for command-line-arguments.SubR<0> SDWARFLINES size=26
	0x0000 00 09 02 00 00 00 00 00 00 00 00 04 02 03 9b 05  ................
	0x0010 14 06 23 06 2e 02 01 00 01 01                    ..#.......
	rel 3+8 t=R_ADDR command-line-arguments.SubR<1>+0
aux for command-line-arguments.SubR<0> SDWARFFCN size=124
	0x0000 03 63 6f 6d 6d 61 6e 64 2d 6c 69 6e 65 2d 61 72  .command-line-ar
	0x0010 67 75 6d 65 6e 74 73 2e 53 75 62 52 00 00 00 00  guments.SubR....
	0x0020 00 00 00 00 00 00 00 00 00 00 00 00 00 01 9c 02  ................
	0x0030 00 00 00 9a 05 01 12 78 00 00 9a 05 00 00 00 00  .......x........
	0x0040 00 00 00 00 12 79 00 00 9a 05 00 00 00 00 00 00  .....y..........
	0x0050 00 00 12 63 69 00 00 9a 05 00 00 00 00 00 00 00  ...ci...........
	0x0060 00 11 7e 72 30 00 01 9a 05 00 00 00 00 00 0d 72  ..~r0..........r
	0x0070 00 a1 05 00 00 00 00 00 00 00 00 00              ............
	rel 0+0 t=R_USETYPE type:uint<0>+0
	rel 29+8 t=R_ADDR command-line-arguments.SubR<1>+0
	rel 37+8 t=R_ADDR command-line-arguments.SubR<1>+6
	rel 60+4 t=R_DWARFSECREF go:info.uint<0>+0
	rel 64+4 t=R_DWARFSECREF <0>+0
	rel 74+4 t=R_DWARFSECREF go:info.uint<0>+0
	rel 78+4 t=R_DWARFSECREF <0>+51
	rel 89+4 t=R_DWARFSECREF go:info.uint<0>+0
	rel 93+4 t=R_DWARFSECREF <0>+102
	rel 105+4 t=R_DWARFSECREF go:info.uint<0>+0
	rel 115+4 t=R_DWARFSECREF go:info.uint<0>+0
	rel 119+4 t=R_DWARFSECREF <0>+153
aux for command-line-arguments.SubM<0> SDWARFLOC size=153
	0x0000 ff ff ff ff ff ff ff ff 00 00 00 00 00 00 00 00  ................
	0x0010 00 00 00 00 00 00 00 00 1f 00 00 00 00 00 00 00  ................
	0x0020 01 00 50 00 00 00 00 00 00 00 00 00 00 00 00 00  ..P.............
	0x0030 00 00 00 ff ff ff ff ff ff ff ff 00 00 00 00 00  ................
	0x0040 00 00 00 00 00 00 00 00 00 00 00 2b 00 00 00 00  ...........+....
	0x0050 00 00 00 01 00 53 00 00 00 00 00 00 00 00 00 00  .....S..........
	0x0060 00 00 00 00 00 00 ff ff ff ff ff ff ff ff 00 00  ................
	0x0070 00 00 00 00 00 00 00 00 00 00 00 00 00 00 2b 00  ..............+.
	0x0080 00 00 00 00 00 00 01 00 52 00 00 00 00 00 00 00  ........R.......
	0x0090 00 00 00 00 00 00 00 00 00                       .........
	rel 8+8 t=R_ADDR command-line-arguments.SubM<1>+0
	rel 59+8 t=R_ADDR command-line-arguments.SubM<1>+0
	rel 110+8 t=R_ADDR command-line-arguments.SubM<1>+0
aux for command-line-arguments.SubM<0> SDWARFLINES size=34
	0x0000 00 09 02 00 00 00 00 00 00 00 00 04 02 03 a0 05  ................
	0x0010 14 06 2d 06 6e 06 37 06 7e 06 37 06 7e 02 01 00  ..-.n.7.~.7.~...
	0x0020 01 01                                            ..
	rel 3+8 t=R_ADDR command-line-arguments.SubM<1>+0
aux for command-line-arguments.SubM<0> SDWARFFCN size=97
	0x0000 03 63 6f 6d 6d 61 6e 64 2d 6c 69 6e 65 2d 61 72  .command-line-ar
	0x0010 67 75 6d 65 6e 74 73 2e 53 75 62 4d 00 00 00 00  guments.SubM....
	0x0020 00 00 00 00 00 00 00 00 00 00 00 00 00 01 9c 02  ................
	0x0030 00 00 00 a4 05 01 12 70 00 00 a4 05 00 00 00 00  .......p........
	0x0040 00 00 00 00 12 71 00 00 a4 05 00 00 00 00 00 00  .....q..........
	0x0050 00 00 12 72 00 00 a4 05 00 00 00 00 00 00 00 00  ...r............
	0x0060 00                                               .
	rel 29+8 t=R_ADDR command-line-arguments.SubM<1>+0
	rel 37+8 t=R_ADDR command-line-arguments.SubM<1>+43
	rel 60+4 t=R_DWARFSECREF go:info.*[3]uint<0>+0
	rel 64+4 t=R_DWARFSECREF <0>+0
	rel 74+4 t=R_DWARFSECREF go:info.*[3]uint<0>+0
	rel 78+4 t=R_DWARFSECREF <0>+51
	rel 88+4 t=R_DWARFSECREF go:info.*[3]uint<0>+0
	rel 92+4 t=R_DWARFSECREF <0>+102
aux for command-line-arguments.Sub64<0> SDWARFLOC size=153
	0x0000 ff ff ff ff ff ff ff ff 00 00 00 00 00 00 00 00  ................
	0x0010 00 00 00 00 00 00 00 00 08 00 00 00 00 00 00 00  ................
	0x0020 01 00 50 00 00 00 00 00 00 00 00 00 00 00 00 00  ..P.............
	0x0030 00 00 00 ff ff ff ff ff ff ff ff 00 00 00 00 00  ................
	0x0040 00 00 00 00 00 00 00 00 00 00 00 08 00 00 00 00  ................
	0x0050 00 00 00 01 00 53 00 00 00 00 00 00 00 00 00 00  .....S..........
	0x0060 00 00 00 00 00 00 ff ff ff ff ff ff ff ff 00 00  ................
	0x0070 00 00 00 00 00 00 00 00 00 00 00 00 00 00 0c 00  ................
	0x0080 00 00 00 00 00 00 01 00 52 00 00 00 00 00 00 00  ........R.......
	0x0090 00 00 00 00 00 00 00 00 00                       .........
	rel 8+8 t=R_ADDR command-line-arguments.Sub64<1>+0
	rel 59+8 t=R_ADDR command-line-arguments.Sub64<1>+0
	rel 110+8 t=R_ADDR command-line-arguments.Sub64<1>+0
aux for command-line-arguments.Sub64<0> SDWARFLINES size=24
	0x0000 00 09 02 00 00 00 00 00 00 00 00 04 02 03 b1 05  ................
	0x0010 14 06 23 02 0a 00 01 01                          ..#.....
	rel 3+8 t=R_ADDR command-line-arguments.Sub64<1>+0
aux for command-line-arguments.Sub64<0> SDWARFFCN size=122
	0x0000 03 63 6f 6d 6d 61 6e 64 2d 6c 69 6e 65 2d 61 72  .command-line-ar
	0x0010 67 75 6d 65 6e 74 73 2e 53 75 62 36 34 00 00 00  guments.Sub64...
	0x0020 00 00 00 00 00 00 00 00 00 00 00 00 00 00 01 9c  ................
	0x0030 02 00 00 00 af 05 01 12 78 00 00 af 05 00 00 00  ........x.......
	0x0040 00 00 00 00 00 12 79 00 00 af 05 00 00 00 00 00  ......y.........
	0x0050 00 00 00 12 63 69 00 00 af 05 00 00 00 00 00 00  ....ci..........
	0x0060 00 00 11 72 00 01 af 05 00 00 00 00 00 11 63 6f  ...r..........co
	0x0070 00 01 af 05 00 00 00 00 00 00                    ..........
	rel 0+0 t=R_USETYPE type:uint64<0>+0
	rel 30+8 t=R_ADDR command-line-arguments.Sub64<1>+0
	rel 38+8 t=R_ADDR command-line-arguments.Sub64<1>+12
	rel 61+4 t=R_DWARFSECREF go:info.uint64<0>+0
	rel 65+4 t=R_DWARFSECREF <0>+0
	rel 75+4 t=R_DWARFSECREF go:info.uint64<0>+0
	rel 79+4 t=R_DWARFSECREF <0>+51
	rel 90+4 t=R_DWARFSECREF go:info.uint64<0>+0
	rel 94+4 t=R_DWARFSECREF <0>+102
	rel 104+4 t=R_DWARFSECREF go:info.uint64<0>+0
	rel 116+4 t=R_DWARFSECREF go:info.uint64<0>+0
aux for command-line-arguments.Sub64C<0> SDWARFLOC size=102
	0x0000 ff ff ff ff ff ff ff ff 00 00 00 00 00 00 00 00  ................
	0x0010 00 00 00 00 00 00 00 00 09 00 00 00 00 00 00 00  ................
	0x0020 01 00 50 00 00 00 00 00 00 00 00 00 00 00 00 00  ..P.............
	0x0030 00 00 00 ff ff ff ff ff ff ff ff 00 00 00 00 00  ................
	0x0040 00 00 00 00 00 00 00 00 00 00 00 09 00 00 00 00  ................
	0x0050 00 00 00 01 00 53 00 00 00 00 00 00 00 00 00 00  .....S..........
	0x0060 00 00 00 00 00 00                                ......
	rel 8+8 t=R_ADDR command-line-arguments.Sub64C<1>+0
	rel 59+8 t=R_ADDR command-line-arguments.Sub64C<1>+0
aux for command-line-arguments.Sub64C<0> SDWARFLINES size=24
	0x0000 00 09 02 00 00 00 00 00 00 00 00 04 02 03 bc 05  ................
	0x0010 14 06 23 02 0b 00 01 01                          ..#.....
	rel 3+8 t=R_ADDR command-line-arguments.Sub64C<1>+0
aux for command-line-arguments.Sub64C<0> SDWARFFCN size=109
	0x0000 03 63 6f 6d 6d 61 6e 64 2d 6c 69 6e 65 2d 61 72  .command-line-ar
	0x0010 67 75 6d 65 6e 74 73 2e 53 75 62 36 34 43 00 00  guments.Sub64C..
	0x0020 00 00 00 00 00 00 00 00 00 00 00 00 00 00 00 01  ................
	0x0030 9c 02 00 00 00 ba 05 01 12 78 00 00 ba 05 00 00  .........x......
	0x0040 00 00 00 00 00 00 12 63 69 00 00 ba 05 00 00 00  .......ci.......
	0x0050 00 00 00 00 00 11 72 00 01 ba 05 00 00 00 00 00  ......r.........
	0x0060 11 63 6f 00 01 ba 05 00 00 00 00 00 00           .co..........
	rel 0+0 t=R_USETYPE type:uint64<0>+0
	rel 31+8 t=R_ADDR command-line-arguments.Sub64C<1>+0
	rel 39+8 t=R_ADDR command-line-arguments.Sub64C<1>+13
	rel 62+4 t=R_DWARFSECREF go:info.uint64<0>+0
	rel 66+4 t=R_DWARFSECREF <0>+0
	rel 77+4 t=R_DWARFSECREF go:info.uint64<0>+0
	rel 81+4 t=R_DWARFSECREF <0>+51
	rel 91+4 t=R_DWARFSECREF go:info.uint64<0>+0
	rel 103+4 t=R_DWARFSECREF go:info.uint64<0>+0
aux for command-line-arguments.Sub64Z<0> SDWARFLOC size=102
	0x0000 ff ff ff ff ff ff ff ff 00 00 00 00 00 00 00 00  ................
	0x0010 00 00 00 00 00 00 00 00 06 00 00 00 00 00 00 00  ................
	0x0020 01 00 50 00 00 00 00 00 00 00 00 00 00 00 00 00  ..P.............
	0x0030 00 00 00 ff ff ff ff ff ff ff ff 00 00 00 00 00  ................
	0x0040 00 00 00 00 00 00 00 00 00 00 00 06 00 00 00 00  ................
	0x0050 00 00 00 01 00 53 00 00 00 00 00 00 00 00 00 00  .....S..........
	0x0060 00 00 00 00 00 00                                ......
	rel 8+8 t=R_ADDR command-line-arguments.Sub64Z<1>+0
	rel 59+8 t=R_ADDR command-line-arguments.Sub64Z<1>+0
aux for command-line-arguments.Sub64Z<0> SDWARFLINES size=24
	0x0000 00 09 02 00 00 00 00 00 00 00 00 04 02 03 c7 05  ................
	0x0010 14 06 2d 02 07 00 01 01                          ..-.....
	rel 3+8 t=R_ADDR command-line-arguments.Sub64Z<1>+0
aux for command-line-arguments.Sub64Z<0> SDWARFFCN size=108
	0x0000 03 63 6f 6d 6d 61 6e 64 2d 6c 69 6e 65 2d 61 72  .command-line-ar
	0x0010 67 75 6d 65 6e 74 73 2e 53 75 62 36 34 5a 00 00  guments.Sub64Z..
	0x0020 00 00 00 00 00 00 00 00 00 00 00 00 00 00 00 01  ................
	0x0030 9c 02 00 00 00 c5 05 01 12 78 00 00 c5 05 00 00  .........x......
	0x0040 00 00 00 00 00 00 12 79 00 00 c5 05 00 00 00 00  .......y........
	0x0050 00 00 00 00 11 72 00 01 c5 05 00 00 00 00 00 11  .....r..........
	0x0060 63 6f 00 01 c5 05 00 00 00 00 00 00              co..........
	rel 0+0 t=R_USETYPE type:uint64<0>+0
	rel 31+8 t=R_ADDR command-line-arguments.Sub64Z<1>+0
	rel 39+8 t=R_ADDR command-line-arguments.Sub64Z<1>+10
	rel 62+4 t=R_DWARFSECREF go:info.uint64<0>+0
	rel 66+4 t=R_DWARFSECREF <0>+0
	rel 76+4 t=R_DWARFSECREF go:info.uint64<0>+0
	rel 80+4 t=R_DWARFSECREF <0>+51
	rel 90+4 t=R_DWARFSECREF go:info.uint64<0>+0
	rel 102+4 t=R_DWARFSECREF go:info.uint64<0>+0
aux for command-line-arguments.Sub64R<0> SDWARFLOC size=204
	0x0000 ff ff ff ff ff ff ff ff 00 00 00 00 00 00 00 00  ................
	0x0010 00 00 00 00 00 00 00 00 05 00 00 00 00 00 00 00  ................
	0x0020 01 00 50 00 00 00 00 00 00 00 00 00 00 00 00 00  ..P.............
	0x0030 00 00 00 ff ff ff ff ff ff ff ff 00 00 00 00 00  ................
	0x0040 00 00 00 00 00 00 00 00 00 00 00 06 00 00 00 00  ................
	0x0050 00 00 00 01 00 53 00 00 00 00 00 00 00 00 00 00  .....S..........
	0x0060 00 00 00 00 00 00 ff ff ff ff ff ff ff ff 00 00  ................
	0x0070 00 00 00 00 00 00 00 00 00 00 00 00 00 00 06 00  ................
	0x0080 00 00 00 00 00 00 01 00 52 00 00 00 00 00 00 00  ........R.......
	0x0090 00 00 00 00 00 00 00 00 00 ff ff ff ff ff ff ff  ................
	0x00a0 ff 00 00 00 00 00 00 00 00 05 00 00 00 00 00 00  ................
	0x00b0 00 06 00 00 00 00 00 00 00 01 00 50 00 00 00 00  ...........P....
	0x00c0 00 00 00 00 00 00 00 00 00 00 00 00              ............
	rel 8+8 t=R_ADDR command-line-arguments.Sub64R<1>+0
	rel 59+8 t=R_ADDR command-line-arguments.Sub64R<1>+0
	rel 110+8 t=R_ADDR command-line-arguments.Sub64R<1>+0
	rel 161+8 t=R_ADDR command-line-arguments.Sub64R<1>+0
aux for command-line-arguments.Sub64R<0> SDWARFLINES size=26
	0x0000 00 09 02 00 00 00 00 00 00 00 00 04 02 03 d1 05  ................
	0x0010 14 06 23 06 2e 02 01 00 01 01                    ..#.......
	rel 3+8 t=R_ADDR command-line-arguments.Sub64R<1>+0
aux for command-line-arguments.Sub64R<0> SDWARFFCN size=126
	0x0000 03 63 6f 6d 6d 61 6e 64 2d 6c 69 6e 65 2d 61 72  .command-line-ar
	0x0010 67 75 6d 65 6e 74 73 2e 53 75 62 36 34 52 00 00  guments.Sub64R..
	0x0020 00 00 00 00 00 00 00 00 00 00 00 00 00 00 00 01  ................
	0x0030 9c 02 00 00 00 d0 05 01 12 78 00 00 d0 05 00 00  .........x......
	0x0040 00 00 00 00 00 00 12 79 00 00 d0 05 00 00 00 00  .......y........
	0x0050 00 00 00 00 12 63 69 00 00 d0 05 00 00 00 00 00  .....ci.........
	0x0060 00 00 00 11 7e 72 30 00 01 d0 05 00 00 00 00 00  ....~r0.........
	0x0070 0d 72 00 d7 05 00 00 00 00 00 00 00 00 00        .r............
	rel 0+0 t=R_USETYPE type:uint64<0>+0
	rel 31+8 t=R_ADDR command-line-arguments.Sub64R<1>+0
	rel 39+8 t=R_ADDR command-line-arguments.Sub64R<1>+6
	rel 62+4 t=R_DWARFSECREF go:info.uint64<0>+0
	rel 66+4 t=R_DWARFSECREF <0>+0
	rel 76+4 t=R_DWARFSECREF go:info.uint64<0>+0
	rel 80+4 t=R_DWARFSECREF <0>+51
	rel 91+4 t=R_DWARFSECREF go:info.uint64<0>+0
	rel 95+4 t=R_DWARFSECREF <0>+102
	rel 107+4 t=R_DWARFSECREF go:info.uint64<0>+0
	rel 117+4 t=R_DWARFSECREF go:info.uint64<0>+0
	rel 121+4 t=R_DWARFSECREF <0>+153
aux for command-line-arguments.Sub64M<0> SDWARFLOC size=153
	0x0000 ff ff ff ff ff ff ff ff 00 00 00 00 00 00 00 00  ................
	0x0010 00 00 00 00 00 00 00 00 1f 00 00 00 00 00 00 00  ................
	0x0020 01 00 50 00 00 00 00 00 00 00 00 00 00 00 00 00  ..P.............
	0x0030 00 00 00 ff ff ff ff ff ff ff ff 00 00 00 00 00  ................
	0x0040 00 00 00 00 00 00 00 00 00 00 00 2b 00 00 00 00  ...........+....
	0x0050 00 00 00 01 00 53 00 00 00 00 00 00 00 00 00 00  .....S..........
	0x0060 00 00 00 00 00 00 ff ff ff ff ff ff ff ff 00 00  ................
	0x0070 00 00 00 00 00 00 00 00 00 00 00 00 00 00 2b 00  ..............+.
	0x0080 00 00 00 00 00 00 01 00 52 00 00 00 00 00 00 00  ........R.......
	0x0090 00 00 00 00 00 00 00 00 00                       .........
	rel 8+8 t=R_ADDR command-line-arguments.Sub64M<1>+0
	rel 59+8 t=R_ADDR command-line-arguments.Sub64M<1>+0
	rel 110+8 t=R_ADDR command-line-arguments.Sub64M<1>+0
aux for command-line-arguments.Sub64M<0> SDWARFLINES size=34
	0x0000 00 09 02 00 00 00 00 00 00 00 00 04 02 03 d6 05  ................
	0x0010 14 06 2d 06 6d 06 37 06 7e 06 37 06 7e 02 01 00  ..-.m.7.~.7.~...
	0x0020 01 01                                            ..
	rel 3+8 t=R_ADDR command-line-arguments.Sub64M<1>+0
aux for command-line-arguments.Sub64M<0> SDWARFFCN size=99
	0x0000 03 63 6f 6d 6d 61 6e 64 2d 6c 69 6e 65 2d 61 72  .command-line-ar
	0x0010 67 75 6d 65 6e 74 73 2e 53 75 62 36 34 4d 00 00  guments.Sub64M..
	0x0020 00 00 00 00 00 00 00 00 00 00 00 00 00 00 00 01  ................
	0x0030 9c 02 00 00 00 da 05 01 12 70 00 00 da 05 00 00  .........p......
	0x0040 00 00 00 00 00 00 12 71 00 00 da 05 00 00 00 00  .......q........
	0x0050 00 00 00 00 12 72 00 00 da 05 00 00 00 00 00 00  .....r..........
	0x0060 00 00 00                                         ...
	rel 31+8 t=R_ADDR command-line-arguments.Sub64M<1>+0
	rel 39+8 t=R_ADDR command-line-arguments.Sub64M<1>+43
	rel 62+4 t=R_DWARFSECREF go:info.*[3]uint64<0>+0
	rel 66+4 t=R_DWARFSECREF <0>+0
	rel 76+4 t=R_DWARFSECREF go:info.*[3]uint64<0>+0
	rel 80+4 t=R_DWARFSECREF <0>+51
	rel 90+4 t=R_DWARFSECREF go:info.*[3]uint64<0>+0
	rel 94+4 t=R_DWARFSECREF <0>+102
aux for command-line-arguments.Sub64MSaveC<0> SDWARFLOC size=204
	0x0000 ff ff ff ff ff ff ff ff 00 00 00 00 00 00 00 00  ................
	0x0010 00 00 00 00 00 00 00 00 1c 00 00 00 00 00 00 00  ................
	0x0020 01 00 50 00 00 00 00 00 00 00 00 00 00 00 00 00  ..P.............
	0x0030 00 00 00 ff ff ff ff ff ff ff ff 00 00 00 00 00  ................
	0x0040 00 00 00 00 00 00 00 00 00 00 00 35 00 00 00 00  ...........5....
	0x0050 00 00 00 01 00 53 00 00 00 00 00 00 00 00 00 00  .....S..........
	0x0060 00 00 00 00 00 00 ff ff ff ff ff ff ff ff 00 00  ................
	0x0070 00 00 00 00 00 00 00 00 00 00 00 00 00 00 35 00  ..............5.
	0x0080 00 00 00 00 00 00 01 00 52 00 00 00 00 00 00 00  ........R.......
	0x0090 00 00 00 00 00 00 00 00 00 ff ff ff ff ff ff ff  ................
	0x00a0 ff 00 00 00 00 00 00 00 00 00 00 00 00 00 00 00  ................
	0x00b0 00 35 00 00 00 00 00 00 00 01 00 55 00 00 00 00  .5.........U....
	0x00c0 00 00 00 00 00 00 00 00 00 00 00 00              ............
	rel 8+8 t=R_ADDR command-line-arguments.Sub64MSaveC<1>+0
	rel 59+8 t=R_ADDR command-line-arguments.Sub64MSaveC<1>+0
	rel 110+8 t=R_ADDR command-line-arguments.Sub64MSaveC<1>+0
	rel 161+8 t=R_ADDR command-line-arguments.Sub64MSaveC<1>+0
aux for command-line-arguments.Sub64MSaveC<0> SDWARFLINES size=32
	0x0000 00 09 02 00 00 00 00 00 00 00 00 04 02 03 e0 05  ................
	0x0010 14 06 2d 06 e3 06 37 35 2f 06 ba 02 01 00 01 01  ..-...75/.......
	rel 3+8 t=R_ADDR command-line-arguments.Sub64MSaveC<1>+0
aux for command-line-arguments.Sub64MSaveC<0> SDWARFFCN size=118
	0x0000 03 63 6f 6d 6d 61 6e 64 2d 6c 69 6e 65 2d 61 72  .command-line-ar
	0x0010 67 75 6d 65 6e 74 73 2e 53 75 62 36 34 4d 53 61  guments.Sub64MSa
	0x0020 76 65 43 00 00 00 00 00 00 00 00 00 00 00 00 00  veC.............
	0x0030 00 00 00 00 01 9c 02 00 00 00 e4 05 01 12 70 00  ..............p.
	0x0040 00 e4 05 00 00 00 00 00 00 00 00 12 71 00 00 e4  ............q...
	0x0050 05 00 00 00 00 00 00 00 00 12 72 00 00 e4 05 00  ..........r.....
	0x0060 00 00 00 00 00 00 00 12 63 00 00 e4 05 00 00 00  ........c.......
	0x0070 00 00 00 00 00 00                                ......
	rel 36+8 t=R_ADDR command-line-arguments.Sub64MSaveC<1>+0
	rel 44+8 t=R_ADDR command-line-arguments.Sub64MSaveC<1>+53
	rel 67+4 t=R_DWARFSECREF go:info.*[2]uint64<0>+0
	rel 71+4 t=R_DWARFSECREF <0>+0
	rel 81+4 t=R_DWARFSECREF go:info.*[2]uint64<0>+0
	rel 85+4 t=R_DWARFSECREF <0>+51
	rel 95+4 t=R_DWARFSECREF go:info.*[2]uint64<0>+0
	rel 99+4 t=R_DWARFSECREF <0>+102
	rel 109+4 t=R_DWARFSECREF go:info.*[2]uint64<0>+0
	rel 113+4 t=R_DWARFSECREF <0>+153
aux for command-line-arguments.Sub64PanicOnOverflowEQ<0> SDWARFLOC size=172
	0x0000 ff ff ff ff ff ff ff ff 00 00 00 00 00 00 00 00  ................
	0x0010 00 00 00 00 00 00 00 00 14 00 00 00 00 00 00 00  ................
	0x0020 01 00 50 00 00 00 00 00 00 00 00 00 00 00 00 00  ..P.............
	0x0030 00 00 00 ff ff ff ff ff ff ff ff 00 00 00 00 00  ................
	0x0040 00 00 00 00 00 00 00 00 00 00 00 31 00 00 00 00  ...........1....
	0x0050 00 00 00 01 00 53 31 00 00 00 00 00 00 00 36 00  .....S1.......6.
	0x0060 00 00 00 00 00 00 01 00 52 00 00 00 00 00 00 00  ........R.......
	0x0070 00 00 00 00 00 00 00 00 00 ff ff ff ff ff ff ff  ................
	0x0080 ff 00 00 00 00 00 00 00 00 14 00 00 00 00 00 00  ................
	0x0090 00 2a 00 00 00 00 00 00 00 01 00 50 00 00 00 00  .*.........P....
	0x00a0 00 00 00 00 00 00 00 00 00 00 00 00              ............
	rel 8+8 t=R_ADDR command-line-arguments.Sub64PanicOnOverflowEQ<1>+0
	rel 59+8 t=R_ADDR command-line-arguments.Sub64PanicOnOverflowEQ<1>+0
	rel 129+8 t=R_ADDR command-line-arguments.Sub64PanicOnOverflowEQ<1>+0
aux for command-line-arguments.Sub64PanicOnOverflowEQ<0> SDWARFLINES size=39
	0x0000 00 09 02 00 00 00 00 00 00 00 00 04 02 03 e5 05  ................
	0x0010 14 0a 73 38 06 2d 06 4d 06 37 06 26 49 06 55 06  ..s8.-.M.7.&I.U.
	0x0020 55 47 02 1b 00 01 01                             UG.....
	rel 3+8 t=R_ADDR command-line-arguments.Sub64PanicOnOverflowEQ<1>+0
aux for command-line-arguments.Sub64PanicOnOverflowEQ<0> SDWARFFCN size=127
	0x0000 03 63 6f 6d 6d 61 6e 64 2d 6c 69 6e 65 2d 61 72  .command-line-ar
	0x0010 67 75 6d 65 6e 74 73 2e 53 75 62 36 34 50 61 6e  guments.Sub64Pan
	0x0020 69 63 4f 6e 4f 76 65 72 66 6c 6f 77 45 51 00 00  icOnOverflowEQ..
	0x0030 00 00 00 00 00 00 00 00 00 00 00 00 00 00 00 01  ................
	0x0040 9c 02 00 00 00 eb 05 01 12 61 00 00 eb 05 00 00  .........a......
	0x0050 00 00 00 00 00 00 12 62 00 00 eb 05 00 00 00 00  .......b........
	0x0060 00 00 00 00 11 7e 72 30 00 01 eb 05 00 00 00 00  .....~r0........
	0x0070 00 0d 72 00 ec 05 00 00 00 00 00 00 00 00 00     ..r............
	rel 0+0 t=R_USETYPE type:uint64<0>+0
	rel 47+8 t=R_ADDR command-line-arguments.Sub64PanicOnOverflowEQ<1>+0
	rel 55+8 t=R_ADDR command-line-arguments.Sub64PanicOnOverflowEQ<1>+82
	rel 78+4 t=R_DWARFSECREF go:info.uint64<0>+0
	rel 82+4 t=R_DWARFSECREF <0>+0
	rel 92+4 t=R_DWARFSECREF go:info.uint64<0>+0
	rel 96+4 t=R_DWARFSECREF <0>+51
	rel 108+4 t=R_DWARFSECREF go:info.uint64<0>+0
	rel 118+4 t=R_DWARFSECREF go:info.uint64<0>+0
	rel 122+4 t=R_DWARFSECREF <0>+121
aux for command-line-arguments.Sub64PanicOnOverflowNE<0> SDWARFLOC size=172
	0x0000 ff ff ff ff ff ff ff ff 00 00 00 00 00 00 00 00  ................
	0x0010 00 00 00 00 00 00 00 00 14 00 00 00 00 00 00 00  ................
	0x0020 01 00 50 00 00 00 00 00 00 00 00 00 00 00 00 00  ..P.............
	0x0030 00 00 00 ff ff ff ff ff ff ff ff 00 00 00 00 00  ................
	0x0040 00 00 00 00 00 00 00 00 00 00 00 30 00 00 00 00  ...........0....
	0x0050 00 00 00 01 00 53 30 00 00 00 00 00 00 00 35 00  .....S0.......5.
	0x0060 00 00 00 00 00 00 01 00 52 00 00 00 00 00 00 00  ........R.......
	0x0070 00 00 00 00 00 00 00 00 00 ff ff ff ff ff ff ff  ................
	0x0080 ff 00 00 00 00 00 00 00 00 14 00 00 00 00 00 00  ................
	0x0090 00 29 00 00 00 00 00 00 00 01 00 50 00 00 00 00  .).........P....
	0x00a0 00 00 00 00 00 00 00 00 00 00 00 00              ............
	rel 8+8 t=R_ADDR command-line-arguments.Sub64PanicOnOverflowNE<1>+0
	rel 59+8 t=R_ADDR command-line-arguments.Sub64PanicOnOverflowNE<1>+0
	rel 129+8 t=R_ADDR command-line-arguments.Sub64PanicOnOverflowNE<1>+0
aux for command-line-arguments.Sub64PanicOnOverflowNE<0> SDWARFLINES size=39
	0x0000 00 09 02 00 00 00 00 00 00 00 00 04 02 03 ee 05  ................
	0x0010 14 0a 73 38 06 2d 06 4d 06 2d 06 26 49 06 55 06  ..s8.-.M.-.&I.U.
	0x0020 55 47 02 1b 00 01 01                             UG.....
	rel 3+8 t=R_ADDR command-line-arguments.Sub64PanicOnOverflowNE<1>+0
aux for command-line-arguments.Sub64PanicOnOverflowNE<0> SDWARFFCN size=127
	0x0000 03 63 6f 6d 6d 61 6e 64 2d 6c 69 6e 65 2d 61 72  .command-line-ar
	0x0010 67 75 6d 65 6e 74 73 2e 53 75 62 36 34 50 61 6e  guments.Sub64Pan
	0x0020 69 63 4f 6e 4f 76 65 72 66 6c 6f 77 4e 45 00 00  icOnOverflowNE..
	0x0030 00 00 00 00 00 00 00 00 00 00 00 00 00 00 00 01  ................
	0x0040 9c 02 00 00 00 f4 05 01 12 61 00 00 f4 05 00 00  .........a......
	0x0050 00 00 00 00 00 00 12 62 00 00 f4 05 00 00 00 00  .......b........
	0x0060 00 00 00 00 11 7e 72 30 00 01 f4 05 00 00 00 00  .....~r0........
	0x0070 00 0d 72 00 f5 05 00 00 00 00 00 00 00 00 00     ..r............
	rel 0+0 t=R_USETYPE type:uint64<0>+0
	rel 47+8 t=R_ADDR command-line-arguments.Sub64PanicOnOverflowNE<1>+0
	rel 55+8 t=R_ADDR command-line-arguments.Sub64PanicOnOverflowNE<1>+81
	rel 78+4 t=R_DWARFSECREF go:info.uint64<0>+0
	rel 82+4 t=R_DWARFSECREF <0>+0
	rel 92+4 t=R_DWARFSECREF go:info.uint64<0>+0
	rel 96+4 t=R_DWARFSECREF <0>+51
	rel 108+4 t=R_DWARFSECREF go:info.uint64<0>+0
	rel 118+4 t=R_DWARFSECREF go:info.uint64<0>+0
	rel 122+4 t=R_DWARFSECREF <0>+121
aux for command-line-arguments.Sub64PanicOnOverflowGT<0> SDWARFLOC size=172
	0x0000 ff ff ff ff ff ff ff ff 00 00 00 00 00 00 00 00  ................
	0x0010 00 00 00 00 00 00 00 00 14 00 00 00 00 00 00 00  ................
	0x0020 01 00 50 00 00 00 00 00 00 00 00 00 00 00 00 00  ..P.............
	0x0030 00 00 00 ff ff ff ff ff ff ff ff 00 00 00 00 00  ................
	0x0040 00 00 00 00 00 00 00 00 00 00 00 30 00 00 00 00  ...........0....
	0x0050 00 00 00 01 00 53 30 00 00 00 00 00 00 00 35 00  .....S0.......5.
	0x0060 00 00 00 00 00 00 01 00 52 00 00 00 00 00 00 00  ........R.......
	0x0070 00 00 00 00 00 00 00 00 00 ff ff ff ff ff ff ff  ................
	0x0080 ff 00 00 00 00 00 00 00 00 14 00 00 00 00 00 00  ................
	0x0090 00 29 00 00 00 00 00 00 00 01 00 50 00 00 00 00  .).........P....
	0x00a0 00 00 00 00 00 00 00 00 00 00 00 00              ............
	rel 8+8 t=R_ADDR command-line-arguments.Sub64PanicOnOverflowGT<1>+0
	rel 59+8 t=R_ADDR command-line-arguments.Sub64PanicOnOverflowGT<1>+0
	rel 129+8 t=R_ADDR command-line-arguments.Sub64PanicOnOverflowGT<1>+0
aux for command-line-arguments.Sub64PanicOnOverflowGT<0> SDWARFLINES size=39
	0x0000 00 09 02 00 00 00 00 00 00 00 00 04 02 03 f7 05  ................
	0x0010 14 0a 73 38 06 2d 06 4d 06 2d 06 26 49 06 55 06  ..s8.-.M.-.&I.U.
	0x0020 55 47 02 1b 00 01 01                             UG.....
	rel 3+8 t=R_ADDR command-line-arguments.Sub64PanicOnOverflowGT<1>+0
aux for command-line-arguments.Sub64PanicOnOverflowGT<0> SDWARFFCN size=127
	0x0000 03 63 6f 6d 6d 61 6e 64 2d 6c 69 6e 65 2d 61 72  .command-line-ar
	0x0010 67 75 6d 65 6e 74 73 2e 53 75 62 36 34 50 61 6e  guments.Sub64Pan
	0x0020 69 63 4f 6e 4f 76 65 72 66 6c 6f 77 47 54 00 00  icOnOverflowGT..
	0x0030 00 00 00 00 00 00 00 00 00 00 00 00 00 00 00 01  ................
	0x0040 9c 02 00 00 00 fd 05 01 12 61 00 00 fd 05 00 00  .........a......
	0x0050 00 00 00 00 00 00 12 62 00 00 fd 05 00 00 00 00  .......b........
	0x0060 00 00 00 00 11 7e 72 30 00 01 fd 05 00 00 00 00  .....~r0........
	0x0070 00 0d 72 00 fe 05 00 00 00 00 00 00 00 00 00     ..r............
	rel 0+0 t=R_USETYPE type:uint64<0>+0
	rel 47+8 t=R_ADDR command-line-arguments.Sub64PanicOnOverflowGT<1>+0
	rel 55+8 t=R_ADDR command-line-arguments.Sub64PanicOnOverflowGT<1>+81
	rel 78+4 t=R_DWARFSECREF go:info.uint64<0>+0
	rel 82+4 t=R_DWARFSECREF <0>+0
	rel 92+4 t=R_DWARFSECREF go:info.uint64<0>+0
	rel 96+4 t=R_DWARFSECREF <0>+51
	rel 108+4 t=R_DWARFSECREF go:info.uint64<0>+0
	rel 118+4 t=R_DWARFSECREF go:info.uint64<0>+0
	rel 122+4 t=R_DWARFSECREF <0>+121
aux for command-line-arguments.Sub64MPanicOnOverflowEQ<0> SDWARFLOC size=51
	0x0000 ff ff ff ff ff ff ff ff 00 00 00 00 00 00 00 00  ................
	0x0010 34 00 00 00 00 00 00 00 5d 00 00 00 00 00 00 00  4.......].......
	0x0020 01 00 51 00 00 00 00 00 00 00 00 00 00 00 00 00  ..Q.............
	0x0030 00 00 00                                         ...
	rel 8+8 t=R_ADDR command-line-arguments.Sub64MPanicOnOverflowEQ<1>+0
aux for command-line-arguments.Sub64MPanicOnOverflowEQ<0> SDWARFLINES size=53
	0x0000 00 09 02 00 00 00 00 00 00 00 00 04 02 03 80 06  ................
	0x0010 14 0a 73 76 06 41 06 42 06 41 40 2e 06 6b 06 37  ..sv.A.B.A@..k.7
	0x0020 06 26 06 41 06 7b 06 55 06 55 06 03 7d 47 06 23  .&.A.{.U.U..}G.#
	0x0030 02 07 00 01 01                                   .....
	rel 3+8 t=R_ADDR command-line-arguments.Sub64MPanicOnOverflowEQ<1>+0
aux for command-line-arguments.Sub64MPanicOnOverflowEQ<0> SDWARFFCN size=125
	0x0000 03 63 6f 6d 6d 61 6e 64 2d 6c 69 6e 65 2d 61 72  .command-line-ar
	0x0010 67 75 6d 65 6e 74 73 2e 53 75 62 36 34 4d 50 61  guments.Sub64MPa
	0x0020 6e 69 63 4f 6e 4f 76 65 72 66 6c 6f 77 45 51 00  nicOnOverflowEQ.
	0x0030 00 00 00 00 00 00 00 00 00 00 00 00 00 00 00 00  ................
	0x0040 01 9c 02 00 00 00 86 06 01 11 61 00 00 86 06 00  ..........a.....
	0x0050 00 00 00 01 9c 11 62 00 00 86 06 00 00 00 00 02  ......b.........
	0x0060 91 10 11 7e 72 30 00 01 86 06 00 00 00 00 00 0d  ...~r0..........
	0x0070 63 00 88 06 00 00 00 00 00 00 00 00 00           c............
	rel 0+0 t=R_USETYPE type:[2]uint64<0>+0
	rel 48+8 t=R_ADDR command-line-arguments.Sub64MPanicOnOverflowEQ<1>+0
	rel 56+8 t=R_ADDR command-line-arguments.Sub64MPanicOnOverflowEQ<1>+103
	rel 79+4 t=R_DWARFSECREF go:info.[2]uint64<0>+0
	rel 91+4 t=R_DWARFSECREF go:info.[2]uint64<0>+0
	rel 106+4 t=R_DWARFSECREF go:info.[2]uint64<0>+0
	rel 116+4 t=R_DWARFSECREF go:info.uint64<0>+0
	rel 120+4 t=R_DWARFSECREF <0>+0
aux for command-line-arguments.Sub64MPanicOnOverflowNE<0> SDWARFLOC size=51
	0x0000 ff ff ff ff ff ff ff ff 00 00 00 00 00 00 00 00  ................
	0x0010 34 00 00 00 00 00 00 00 5c 00 00 00 00 00 00 00  4.......\.......
	0x0020 01 00 51 00 00 00 00 00 00 00 00 00 00 00 00 00  ..Q.............
	0x0030 00 00 00                                         ...
	rel 8+8 t=R_ADDR command-line-arguments.Sub64MPanicOnOverflowNE<1>+0
aux for command-line-arguments.Sub64MPanicOnOverflowNE<0> SDWARFLINES size=53
	0x0000 00 09 02 00 00 00 00 00 00 00 00 04 02 03 8c 06  ................
	0x0010 14 0a 73 76 06 41 06 42 06 41 40 2e 06 6b 06 2d  ..sv.A.B.A@..k.-
	0x0020 06 26 06 41 06 7b 06 55 06 55 06 03 7d 47 06 2d  .&.A.{.U.U..}G.-
	0x0030 02 07 00 01 01                                   .....
	rel 3+8 t=R_ADDR command-line-arguments.Sub64MPanicOnOverflowNE<1>+0
aux for command-line-arguments.Sub64MPanicOnOverflowNE<0> SDWARFFCN size=125
	0x0000 03 63 6f 6d 6d 61 6e 64 2d 6c 69 6e 65 2d 61 72  .command-line-ar
	0x0010 67 75 6d 65 6e 74 73 2e 53 75 62 36 34 4d 50 61  guments.Sub64MPa
	0x0020 6e 69 63 4f 6e 4f 76 65 72 66 6c 6f 77 4e 45 00  nicOnOverflowNE.
	0x0030 00 00 00 00 00 00 00 00 00 00 00 00 00 00 00 00  ................
	0x0040 01 9c 02 00 00 00 92 06 01 11 61 00 00 92 06 00  ..........a.....
	0x0050 00 00 00 01 9c 11 62 00 00 92 06 00 00 00 00 02  ......b.........
	0x0060 91 10 11 7e 72 30 00 01 92 06 00 00 00 00 00 0d  ...~r0..........
	0x0070 63 00 94 06 00 00 00 00 00 00 00 00 00           c............
	rel 0+0 t=R_USETYPE type:[2]uint64<0>+0
	rel 48+8 t=R_ADDR command-line-arguments.Sub64MPanicOnOverflowNE<1>+0
	rel 56+8 t=R_ADDR command-line-arguments.Sub64MPanicOnOverflowNE<1>+103
	rel 79+4 t=R_DWARFSECREF go:info.[2]uint64<0>+0
	rel 91+4 t=R_DWARFSECREF go:info.[2]uint64<0>+0
	rel 106+4 t=R_DWARFSECREF go:info.[2]uint64<0>+0
	rel 116+4 t=R_DWARFSECREF go:info.uint64<0>+0
	rel 120+4 t=R_DWARFSECREF <0>+0
aux for command-line-arguments.Sub64MPanicOnOverflowGT<0> SDWARFLOC size=51
	0x0000 ff ff ff ff ff ff ff ff 00 00 00 00 00 00 00 00  ................
	0x0010 34 00 00 00 00 00 00 00 5c 00 00 00 00 00 00 00  4.......\.......
	0x0020 01 00 51 00 00 00 00 00 00 00 00 00 00 00 00 00  ..Q.............
	0x0030 00 00 00                                         ...
	rel 8+8 t=R_ADDR command-line-arguments.Sub64MPanicOnOverflowGT<1>+0
aux for command-line-arguments.Sub64MPanicOnOverflowGT<0> SDWARFLINES size=53
	0x0000 00 09 02 00 00 00 00 00 00 00 00 04 02 03 98 06  ................
	0x0010 14 0a 73 76 06 41 06 42 06 41 40 2e 06 6b 06 2d  ..sv.A.B.A@..k.-
	0x0020 06 26 06 41 06 7b 06 55 06 55 06 03 7d 47 06 2d  .&.A.{.U.U..}G.-
	0x0030 02 07 00 01 01                                   .....
	rel 3+8 t=R_ADDR command-line-arguments.Sub64MPanicOnOverflowGT<1>+0
aux for command-line-arguments.Sub64MPanicOnOverflowGT<0> SDWARFFCN size=125
	0x0000 03 63 6f 6d 6d 61 6e 64 2d 6c 69 6e 65 2d 61 72  .command-line-ar
	0x0010 67 75 6d 65 6e 74 73 2e 53 75 62 36 34 4d 50 61  guments.Sub64MPa
	0x0020 6e 69 63 4f 6e 4f 76 65 72 66 6c 6f 77 47 54 00  nicOnOverflowGT.
	0x0030 00 00 00 00 00 00 00 00 00 00 00 00 00 00 00 00  ................
	0x0040 01 9c 02 00 00 00 9e 06 01 11 61 00 00 9e 06 00  ..........a.....
	0x0050 00 00 00 01 9c 11 62 00 00 9e 06 00 00 00 00 02  ......b.........
	0x0060 91 10 11 7e 72 30 00 01 9e 06 00 00 00 00 00 0d  ...~r0..........
	0x0070 63 00 a0 06 00 00 00 00 00 00 00 00 00           c............
	rel 0+0 t=R_USETYPE type:[2]uint64<0>+0
	rel 48+8 t=R_ADDR command-line-arguments.Sub64MPanicOnOverflowGT<1>+0
	rel 56+8 t=R_ADDR command-line-arguments.Sub64MPanicOnOverflowGT<1>+103
	rel 79+4 t=R_DWARFSECREF go:info.[2]uint64<0>+0
	rel 91+4 t=R_DWARFSECREF go:info.[2]uint64<0>+0
	rel 106+4 t=R_DWARFSECREF go:info.[2]uint64<0>+0
	rel 116+4 t=R_DWARFSECREF go:info.uint64<0>+0
	rel 120+4 t=R_DWARFSECREF <0>+0
aux for command-line-arguments.Mul<0> SDWARFLOC size=102
	0x0000 ff ff ff ff ff ff ff ff 00 00 00 00 00 00 00 00  ................
	0x0010 00 00 00 00 00 00 00 00 06 00 00 00 00 00 00 00  ................
	0x0020 01 00 50 00 00 00 00 00 00 00 00 00 00 00 00 00  ..P.............
	0x0030 00 00 00 ff ff ff ff ff ff ff ff 00 00 00 00 00  ................
	0x0040 00 00 00 00 00 00 00 00 00 00 00 06 00 00 00 00  ................
	0x0050 00 00 00 01 00 53 00 00 00 00 00 00 00 00 00 00  .....S..........
	0x0060 00 00 00 00 00 00                                ......
	rel 8+8 t=R_ADDR command-line-arguments.Mul<1>+0
	rel 59+8 t=R_ADDR command-line-arguments.Mul<1>+0
aux for command-line-arguments.Mul<0> SDWARFLINES size=24
	0x0000 00 09 02 00 00 00 00 00 00 00 00 04 02 03 ae 06  ................
	0x0010 14 06 2d 02 07 00 01 01                          ..-.....
	rel 3+8 t=R_ADDR command-line-arguments.Mul<1>+0
aux for command-line-arguments.Mul<0> SDWARFFCN size=106
	0x0000 03 63 6f 6d 6d 61 6e 64 2d 6c 69 6e 65 2d 61 72  .command-line-ar
	0x0010 67 75 6d 65 6e 74 73 2e 4d 75 6c 00 00 00 00 00  guments.Mul.....
	0x0020 00 00 00 00 00 00 00 00 00 00 00 00 01 9c 02 00  ................
	0x0030 00 00 ae 06 01 12 78 00 00 ae 06 00 00 00 00 00  ......x.........
	0x0040 00 00 00 12 79 00 00 ae 06 00 00 00 00 00 00 00  ....y...........
	0x0050 00 11 68 69 00 01 ae 06 00 00 00 00 00 11 6c 6f  ..hi..........lo
	0x0060 00 01 ae 06 00 00 00 00 00 00                    ..........
	rel 0+0 t=R_USETYPE type:uint<0>+0
	rel 28+8 t=R_ADDR command-line-arguments.Mul<1>+0
	rel 36+8 t=R_ADDR command-line-arguments.Mul<1>+10
	rel 59+4 t=R_DWARFSECREF go:info.uint<0>+0
	rel 63+4 t=R_DWARFSECREF <0>+0
	rel 73+4 t=R_DWARFSECREF go:info.uint<0>+0
	rel 77+4 t=R_DWARFSECREF <0>+51
	rel 88+4 t=R_DWARFSECREF go:info.uint<0>+0
	rel 100+4 t=R_DWARFSECREF go:info.uint<0>+0
aux for command-line-arguments.Mul64<0> SDWARFLOC size=102
	0x0000 ff ff ff ff ff ff ff ff 00 00 00 00 00 00 00 00  ................
	0x0010 00 00 00 00 00 00 00 00 06 00 00 00 00 00 00 00  ................
	0x0020 01 00 50 00 00 00 00 00 00 00 00 00 00 00 00 00  ..P.............
	0x0030 00 00 00 ff ff ff ff ff ff ff ff 00 00 00 00 00  ................
	0x0040 00 00 00 00 00 00 00 00 00 00 00 06 00 00 00 00  ................
	0x0050 00 00 00 01 00 53 00 00 00 00 00 00 00 00 00 00  .....S..........
	0x0060 00 00 00 00 00 00                                ......
	rel 8+8 t=R_ADDR command-line-arguments.Mul64<1>+0
	rel 59+8 t=R_ADDR command-line-arguments.Mul64<1>+0
aux for command-line-arguments.Mul64<0> SDWARFLINES size=24
	0x0000 00 09 02 00 00 00 00 00 00 00 00 04 02 03 b8 06  ................
	0x0010 14 06 2d 02 07 00 01 01                          ..-.....
	rel 3+8 t=R_ADDR command-line-arguments.Mul64<1>+0
aux for command-line-arguments.Mul64<0> SDWARFFCN size=108
	0x0000 03 63 6f 6d 6d 61 6e 64 2d 6c 69 6e 65 2d 61 72  .command-line-ar
	0x0010 67 75 6d 65 6e 74 73 2e 4d 75 6c 36 34 00 00 00  guments.Mul64...
	0x0020 00 00 00 00 00 00 00 00 00 00 00 00 00 00 01 9c  ................
	0x0030 02 00 00 00 b7 06 01 12 78 00 00 b7 06 00 00 00  ........x.......
	0x0040 00 00 00 00 00 12 79 00 00 b7 06 00 00 00 00 00  ......y.........
	0x0050 00 00 00 11 68 69 00 01 b7 06 00 00 00 00 00 11  ....hi..........
	0x0060 6c 6f 00 01 b7 06 00 00 00 00 00 00              lo..........
	rel 0+0 t=R_USETYPE type:uint64<0>+0
	rel 30+8 t=R_ADDR command-line-arguments.Mul64<1>+0
	rel 38+8 t=R_ADDR command-line-arguments.Mul64<1>+10
	rel 61+4 t=R_DWARFSECREF go:info.uint64<0>+0
	rel 65+4 t=R_DWARFSECREF <0>+0
	rel 75+4 t=R_DWARFSECREF go:info.uint64<0>+0
	rel 79+4 t=R_DWARFSECREF <0>+51
	rel 90+4 t=R_DWARFSECREF go:info.uint64<0>+0
	rel 102+4 t=R_DWARFSECREF go:info.uint64<0>+0
aux for command-line-arguments.Mul64HiOnly<0> SDWARFLOC size=153
	0x0000 ff ff ff ff ff ff ff ff 00 00 00 00 00 00 00 00  ................
	0x0010 00 00 00 00 00 00 00 00 06 00 00 00 00 00 00 00  ................
	0x0020 01 00 50 00 00 00 00 00 00 00 00 00 00 00 00 00  ..P.............
	0x0030 00 00 00 ff ff ff ff ff ff ff ff 00 00 00 00 00  ................
	0x0040 00 00 00 00 00 00 00 00 00 00 00 07 00 00 00 00  ................
	0x0050 00 00 00 01 00 53 00 00 00 00 00 00 00 00 00 00  .....S..........
	0x0060 00 00 00 00 00 00 ff ff ff ff ff ff ff ff 00 00  ................
	0x0070 00 00 00 00 00 00 06 00 00 00 00 00 00 00 07 00  ................
	0x0080 00 00 00 00 00 00 01 00 51 00 00 00 00 00 00 00  ........Q.......
	0x0090 00 00 00 00 00 00 00 00 00                       .........
	rel 8+8 t=R_ADDR command-line-arguments.Mul64HiOnly<1>+0
	rel 59+8 t=R_ADDR command-line-arguments.Mul64HiOnly<1>+0
	rel 110+8 t=R_ADDR command-line-arguments.Mul64HiOnly<1>+0
aux for command-line-arguments.Mul64HiOnly<0> SDWARFLINES size=25
	0x0000 00 09 02 00 00 00 00 00 00 00 00 04 02 03 be 06  ................
	0x0010 14 2e 06 2d 02 01 00 01 01                       ...-.....
	rel 3+8 t=R_ADDR command-line-arguments.Mul64HiOnly<1>+0
aux for command-line-arguments.Mul64HiOnly<0> SDWARFFCN size=117
	0x0000 03 63 6f 6d 6d 61 6e 64 2d 6c 69 6e 65 2d 61 72  .command-line-ar
	0x0010 67 75 6d 65 6e 74 73 2e 4d 75 6c 36 34 48 69 4f  guments.Mul64HiO
	0x0020 6e 6c 79 00 00 00 00 00 00 00 00 00 00 00 00 00  nly.............
	0x0030 00 00 00 00 01 9c 02 00 00 00 c1 06 01 12 78 00  ..............x.
	0x0040 00 c1 06 00 00 00 00 00 00 00 00 12 79 00 00 c1  ............y...
	0x0050 06 00 00 00 00 00 00 00 00 11 7e 72 30 00 01 c1  ..........~r0...
	0x0060 06 00 00 00 00 00 0d 68 69 00 c4 06 00 00 00 00  .......hi.......
	0x0070 00 00 00 00 00                                   .....
	rel 0+0 t=R_USETYPE type:uint64<0>+0
	rel 36+8 t=R_ADDR command-line-arguments.Mul64HiOnly<1>+0
	rel 44+8 t=R_ADDR command-line-arguments.Mul64HiOnly<1>+7
	rel 67+4 t=R_DWARFSECREF go:info.uint64<0>+0
	rel 71+4 t=R_DWARFSECREF <0>+0
	rel 81+4 t=R_DWARFSECREF go:info.uint64<0>+0
	rel 85+4 t=R_DWARFSECREF <0>+51
	rel 97+4 t=R_DWARFSECREF go:info.uint64<0>+0
	rel 108+4 t=R_DWARFSECREF go:info.uint64<0>+0
	rel 112+4 t=R_DWARFSECREF <0>+102
aux for command-line-arguments.Mul64LoOnly<0> SDWARFLOC size=153
	0x0000 ff ff ff ff ff ff ff ff 00 00 00 00 00 00 00 00  ................
	0x0010 00 00 00 00 00 00 00 00 03 00 00 00 00 00 00 00  ................
	0x0020 01 00 50 00 00 00 00 00 00 00 00 00 00 00 00 00  ..P.............
	0x0030 00 00 00 ff ff ff ff ff ff ff ff 00 00 00 00 00  ................
	0x0040 00 00 00 00 00 00 00 00 00 00 00 04 00 00 00 00  ................
	0x0050 00 00 00 01 00 53 00 00 00 00 00 00 00 00 00 00  .....S..........
	0x0060 00 00 00 00 00 00 ff ff ff ff ff ff ff ff 00 00  ................
	0x0070 00 00 00 00 00 00 03 00 00 00 00 00 00 00 04 00  ................
	0x0080 00 00 00 00 00 00 01 00 50 00 00 00 00 00 00 00  ........P.......
	0x0090 00 00 00 00 00 00 00 00 00                       .........
	rel 8+8 t=R_ADDR command-line-arguments.Mul64LoOnly<1>+0
	rel 59+8 t=R_ADDR command-line-arguments.Mul64LoOnly<1>+0
	rel 110+8 t=R_ADDR command-line-arguments.Mul64LoOnly<1>+0
aux for command-line-arguments.Mul64LoOnly<0> SDWARFLINES size=23
	0x0000 00 09 02 00 00 00 00 00 00 00 00 04 02 03 c5 06  ................
	0x0010 14 2e 02 01 00 01 01                             .......
	rel 3+8 t=R_ADDR command-line-arguments.Mul64LoOnly<1>+0
aux for command-line-arguments.Mul64LoOnly<0> SDWARFFCN size=117
	0x0000 03 63 6f 6d 6d 61 6e 64 2d 6c 69 6e 65 2d 61 72  .command-line-ar
	0x0010 67 75 6d 65 6e 74 73 2e 4d 75 6c 36 34 4c 6f 4f  guments.Mul64LoO
	0x0020 6e 6c 79 00 00 00 00 00 00 00 00 00 00 00 00 00  nly.............
	0x0030 00 00 00 00 01 9c 02 00 00 00 c8 06 01 12 78 00  ..............x.
	0x0040 00 c8 06 00 00 00 00 00 00 00 00 12 79 00 00 c8  ............y...
	0x0050 06 00 00 00 00 00 00 00 00 11 7e 72 30 00 01 c8  ..........~r0...
	0x0060 06 00 00 00 00 00 0d 6c 6f 00 cb 06 00 00 00 00  .......lo.......
	0x0070 00 00 00 00 00                                   .....
	rel 0+0 t=R_USETYPE type:uint64<0>+0
	rel 36+8 t=R_ADDR command-line-arguments.Mul64LoOnly<1>+0
	rel 44+8 t=R_ADDR command-line-arguments.Mul64LoOnly<1>+4
	rel 67+4 t=R_DWARFSECREF go:info.uint64<0>+0
	rel 71+4 t=R_DWARFSECREF <0>+0
	rel 81+4 t=R_DWARFSECREF go:info.uint64<0>+0
	rel 85+4 t=R_DWARFSECREF <0>+51
	rel 97+4 t=R_DWARFSECREF go:info.uint64<0>+0
	rel 108+4 t=R_DWARFSECREF go:info.uint64<0>+0
	rel 112+4 t=R_DWARFSECREF <0>+102
aux for command-line-arguments.Div<0> SDWARFLOC size=153
	0x0000 ff ff ff ff ff ff ff ff 00 00 00 00 00 00 00 00  ................
	0x0010 00 00 00 00 00 00 00 00 1a 00 00 00 00 00 00 00  ................
	0x0020 01 00 50 00 00 00 00 00 00 00 00 00 00 00 00 00  ..P.............
	0x0030 00 00 00 ff ff ff ff ff ff ff ff 00 00 00 00 00  ................
	0x0040 00 00 00 00 00 00 00 00 00 00 00 20 00 00 00 00  ........... ....
	0x0050 00 00 00 01 00 53 00 00 00 00 00 00 00 00 00 00  .....S..........
	0x0060 00 00 00 00 00 00 ff ff ff ff ff ff ff ff 00 00  ................
	0x0070 00 00 00 00 00 00 00 00 00 00 00 00 00 00 27 00  ..............'.
	0x0080 00 00 00 00 00 00 01 00 52 00 00 00 00 00 00 00  ........R.......
	0x0090 00 00 00 00 00 00 00 00 00                       .........
	rel 8+8 t=R_ADDR command-line-arguments.Div<1>+0
	rel 59+8 t=R_ADDR command-line-arguments.Div<1>+0
	rel 110+8 t=R_ADDR command-line-arguments.Div<1>+0
aux for command-line-arguments.Div<0> SDWARFLINES size=38
	0x0000 00 09 02 00 00 00 00 00 00 00 00 04 02 03 cd 06  ................
	0x0010 14 0a 55 2f 06 2d 06 55 06 2d 06 e1 17 06 a5 06  ..U/.-.U.-......
	0x0020 37 02 16 00 01 01                                7.....
	rel 3+8 t=R_ADDR command-line-arguments.Div<1>+0
aux for command-line-arguments.Div<0> SDWARFFCN size=120
	0x0000 03 63 6f 6d 6d 61 6e 64 2d 6c 69 6e 65 2d 61 72  .command-line-ar
	0x0010 67 75 6d 65 6e 74 73 2e 44 69 76 00 00 00 00 00  guments.Div.....
	0x0020 00 00 00 00 00 00 00 00 00 00 00 00 01 9c 02 00  ................
	0x0030 00 00 d3 06 01 12 68 69 00 00 d3 06 00 00 00 00  ......hi........
	0x0040 00 00 00 00 12 6c 6f 00 00 d3 06 00 00 00 00 00  .....lo.........
	0x0050 00 00 00 12 78 00 00 d3 06 00 00 00 00 00 00 00  ....x...........
	0x0060 00 11 71 00 01 d3 06 00 00 00 00 00 11 72 00 01  ..q..........r..
	0x0070 d3 06 00 00 00 00 00 00                          ........
	rel 0+0 t=R_USETYPE type:uint<0>+0
	rel 28+8 t=R_ADDR command-line-arguments.Div<1>+0
	rel 36+8 t=R_ADDR command-line-arguments.Div<1>+86
	rel 60+4 t=R_DWARFSECREF go:info.uint<0>+0
	rel 64+4 t=R_DWARFSECREF <0>+0
	rel 75+4 t=R_DWARFSECREF go:info.uint<0>+0
	rel 79+4 t=R_DWARFSECREF <0>+51
	rel 89+4 t=R_DWARFSECREF go:info.uint<0>+0
	rel 93+4 t=R_DWARFSECREF <0>+102
	rel 103+4 t=R_DWARFSECREF go:info.uint<0>+0
	rel 114+4 t=R_DWARFSECREF go:info.uint<0>+0
aux for command-line-arguments.Div32<0> SDWARFRANGE size=64
	0x0000 ff ff ff ff ff ff ff ff 00 00 00 00 00 00 00 00  ................
	0x0010 0e 00 00 00 00 00 00 00 2d 00 00 00 00 00 00 00  ........-.......
	0x0020 36 00 00 00 00 00 00 00 5b 00 00 00 00 00 00 00  6.......[.......
	0x0030 00 00 00 00 00 00 00 00 00 00 00 00 00 00 00 00  ................
	rel 8+8 t=R_ADDR command-line-arguments.Div32<1>+0
aux for command-line-arguments.Div32<0> SDWARFLOC size=357
	0x0000 ff ff ff ff ff ff ff ff 00 00 00 00 00 00 00 00  ................
	0x0010 00 00 00 00 00 00 00 00 18 00 00 00 00 00 00 00  ................
	0x0020 01 00 50 00 00 00 00 00 00 00 00 00 00 00 00 00  ..P.............
	0x0030 00 00 00 ff ff ff ff ff ff ff ff 00 00 00 00 00  ................
	0x0040 00 00 00 00 00 00 00 00 00 00 00 30 00 00 00 00  ...........0....
	0x0050 00 00 00 01 00 53 00 00 00 00 00 00 00 00 00 00  .....S..........
	0x0060 00 00 00 00 00 00 ff ff ff ff ff ff ff ff 00 00  ................
	0x0070 00 00 00 00 00 00 00 00 00 00 00 00 00 00 20 00  .............. .
	0x0080 00 00 00 00 00 00 01 00 52 00 00 00 00 00 00 00  ........R.......
	0x0090 00 00 00 00 00 00 00 00 00 ff ff ff ff ff ff ff  ................
	0x00a0 ff 00 00 00 00 00 00 00 00 00 00 00 00 00 00 00  ................
	0x00b0 00 18 00 00 00 00 00 00 00 01 00 50 00 00 00 00  ...........P....
	0x00c0 00 00 00 00 00 00 00 00 00 00 00 00 ff ff ff ff  ................
	0x00d0 ff ff ff ff 00 00 00 00 00 00 00 00 00 00 00 00  ................
	0x00e0 00 00 00 00 30 00 00 00 00 00 00 00 01 00 53 00  ....0.........S.
	0x00f0 00 00 00 00 00 00 00 00 00 00 00 00 00 00 00 ff  ................
	0x0100 ff ff ff ff ff ff ff 00 00 00 00 00 00 00 00 00  ................
	0x0110 00 00 00 00 00 00 00 20 00 00 00 00 00 00 00 01  ....... ........
	0x0120 00 52 00 00 00 00 00 00 00 00 00 00 00 00 00 00  .R..............
	0x0130 00 00 ff ff ff ff ff ff ff ff 00 00 00 00 00 00  ................
	0x0140 00 00 23 00 00 00 00 00 00 00 30 00 00 00 00 00  ..#.......0.....
	0x0150 00 00 01 00 50 00 00 00 00 00 00 00 00 00 00 00  ....P...........
	0x0160 00 00 00 00 00                                   .....
	rel 8+8 t=R_ADDR command-line-arguments.Div32<1>+0
	rel 59+8 t=R_ADDR command-line-arguments.Div32<1>+0
	rel 110+8 t=R_ADDR command-line-arguments.Div32<1>+0
	rel 161+8 t=R_ADDR command-line-arguments.Div32<1>+0
	rel 212+8 t=R_ADDR command-line-arguments.Div32<1>+0
	rel 263+8 t=R_ADDR command-line-arguments.Div32<1>+0
	rel 314+8 t=R_ADDR command-line-arguments.Div32<1>+0
aux for command-line-arguments.Div32<0> SDWARFLINES size=72
	0x0000 00 09 02 00 00 00 00 00 00 00 00 04 02 03 d2 06  ................
	0x0010 14 0a 73 04 03 03 a6 7d 33 06 23 06 4e 06 23 06  ..s....}3.#.N.#.
	0x0020 4c 06 22 2e 04 02 06 03 d7 02 78 06 2d 04 03 03  L.".......x.-...
	0x0030 a8 7d 47 06 3e 06 55 06 69 06 55 06 5f 04 02 03  .}G.>.U.i.U._...
	0x0040 d8 02 1e 02 1f 00 01 01                          ........
	rel 3+8 t=R_ADDR command-line-arguments.Div32<1>+0
aux for command-line-arguments.Div32<0> SDWARFFCN size=174
	0x0000 03 63 6f 6d 6d 61 6e 64 2d 6c 69 6e 65 2d 61 72  .command-line-ar
	0x0010 67 75 6d 65 6e 74 73 2e 44 69 76 33 32 00 00 00  guments.Div32...
	0x0020 00 00 00 00 00 00 00 00 00 00 00 00 00 00 01 9c  ................
	0x0030 02 00 00 00 d8 06 01 12 68 69 00 00 d8 06 00 00  ........hi......
	0x0040 00 00 00 00 00 00 12 6c 6f 00 00 d8 06 00 00 00  .......lo.......
	0x0050 00 00 00 00 00 12 78 00 00 d8 06 00 00 00 00 00  ......x.........
	0x0060 00 00 00 11 71 00 01 d8 06 00 00 00 00 00 11 72  ....q..........r
	0x0070 00 01 d8 06 00 00 00 00 00 09 00 00 00 00 00 00  ................
	0x0080 00 00 02 00 00 00 da 06 15 00 00 00 00 00 00 00  ................
	0x0090 00 15 00 00 00 00 00 00 00 00 15 00 00 00 00 00  ................
	0x00a0 00 00 00 10 00 00 00 00 00 00 00 00 00 00        ..............
	rel 0+0 t=R_USETYPE type:uint32<0>+0
	rel 30+8 t=R_ADDR command-line-arguments.Div32<1>+0
	rel 38+8 t=R_ADDR command-line-arguments.Div32<1>+122
	rel 62+4 t=R_DWARFSECREF go:info.uint32<0>+0
	rel 66+4 t=R_DWARFSECREF <0>+0
	rel 77+4 t=R_DWARFSECREF go:info.uint32<0>+0
	rel 81+4 t=R_DWARFSECREF <0>+51
	rel 91+4 t=R_DWARFSECREF go:info.uint32<0>+0
	rel 95+4 t=R_DWARFSECREF <0>+102
	rel 105+4 t=R_DWARFSECREF go:info.uint32<0>+0
	rel 116+4 t=R_DWARFSECREF go:info.uint32<0>+0
	rel 122+4 t=R_DWARFSECREF go:info.math/bits.Div32$abstract<0>+0
	rel 126+4 t=R_DWARFSECREF <0>+0
	rel 137+4 t=R_DWARFSECREF go:info.math/bits.Div32$abstract<0>+21
	rel 141+4 t=R_DWARFSECREF <0>+153
	rel 146+4 t=R_DWARFSECREF go:info.math/bits.Div32$abstract<0>+30
	rel 150+4 t=R_DWARFSECREF <0>+204
	rel 155+4 t=R_DWARFSECREF go:info.math/bits.Div32$abstract<0>+39
	rel 159+4 t=R_DWARFSECREF <0>+255
	rel 164+4 t=R_DWARFSECREF go:info.math/bits.Div32$abstract<0>+67
	rel 168+4 t=R_DWARFSECREF <0>+306
aux for command-line-arguments.Div64<0> SDWARFLOC size=153
	0x0000 ff ff ff ff ff ff ff ff 00 00 00 00 00 00 00 00  ................
	0x0010 00 00 00 00 00 00 00 00 1a 00 00 00 00 00 00 00  ................
	0x0020 01 00 50 00 00 00 00 00 00 00 00 00 00 00 00 00  ..P.............
	0x0030 00 00 00 ff ff ff ff ff ff ff ff 00 00 00 00 00  ................
	0x0040 00 00 00 00 00 00 00 00 00 00 00 20 00 00 00 00  ........... ....
	0x0050 00 00 00 01 00 53 00 00 00 00 00 00 00 00 00 00  .....S..........
	0x0060 00 00 00 00 00 00 ff ff ff ff ff ff ff ff 00 00  ................
	0x0070 00 00 00 00 00 00 00 00 00 00 00 00 00 00 27 00  ..............'.
	0x0080 00 00 00 00 00 00 01 00 52 00 00 00 00 00 00 00  ........R.......
	0x0090 00 00 00 00 00 00 00 00 00                       .........
	rel 8+8 t=R_ADDR command-line-arguments.Div64<1>+0
	rel 59+8 t=R_ADDR command-line-arguments.Div64<1>+0
	rel 110+8 t=R_ADDR command-line-arguments.Div64<1>+0
aux for command-line-arguments.Div64<0> SDWARFLINES size=38
	0x0000 00 09 02 00 00 00 00 00 00 00 00 04 02 03 d7 06  ................
	0x0010 14 0a 55 2f 06 2d 06 55 06 2d 06 e1 17 06 a5 06  ..U/.-.U.-......
	0x0020 37 02 16 00 01 01                                7.....
	rel 3+8 t=R_ADDR command-line-arguments.Div64<1>+0
aux for command-line-arguments.Div64<0> SDWARFFCN size=122
	0x0000 03 63 6f 6d 6d 61 6e 64 2d 6c 69 6e 65 2d 61 72  .command-line-ar
	0x0010 67 75 6d 65 6e 74 73 2e 44 69 76 36 34 00 00 00  guments.Div64...
	0x0020 00 00 00 00 00 00 00 00 00 00 00 00 00 00 01 9c  ................
	0x0030 02 00 00 00 dd 06 01 12 68 69 00 00 dd 06 00 00  ........hi......
	0x0040 00 00 00 00 00 00 12 6c 6f 00 00 dd 06 00 00 00  .......lo.......
	0x0050 00 00 00 00 00 12 78 00 00 dd 06 00 00 00 00 00  ......x.........
	0x0060 00 00 00 11 71 00 01 dd 06 00 00 00 00 00 11 72  ....q..........r
	0x0070 00 01 dd 06 00 00 00 00 00 00                    ..........
	rel 0+0 t=R_USETYPE type:uint64<0>+0
	rel 30+8 t=R_ADDR command-line-arguments.Div64<1>+0
	rel 38+8 t=R_ADDR command-line-arguments.Div64<1>+86
	rel 62+4 t=R_DWARFSECREF go:info.uint64<0>+0
	rel 66+4 t=R_DWARFSECREF <0>+0
	rel 77+4 t=R_DWARFSECREF go:info.uint64<0>+0
	rel 81+4 t=R_DWARFSECREF <0>+51
	rel 91+4 t=R_DWARFSECREF go:info.uint64<0>+0
	rel 95+4 t=R_DWARFSECREF <0>+102
	rel 105+4 t=R_DWARFSECREF go:info.uint64<0>+0
	rel 116+4 t=R_DWARFSECREF go:info.uint64<0>+0
aux for command-line-arguments.Div64degenerate<0> SDWARFLOC size=51
	0x0000 ff ff ff ff ff ff ff ff 00 00 00 00 00 00 00 00  ................
	0x0010 00 00 00 00 00 00 00 00 0d 00 00 00 00 00 00 00  ................
	0x0020 01 00 50 00 00 00 00 00 00 00 00 00 00 00 00 00  ..P.............
	0x0030 00 00 00                                         ...
	rel 8+8 t=R_ADDR command-line-arguments.Div64degenerate<1>+0
aux for command-line-arguments.Div64degenerate<0> SDWARFLINES size=24
	0x0000 00 09 02 00 00 00 00 00 00 00 00 04 02 03 de 06  ................
	0x0010 14 06 2d 02 1f 00 01 01                          ..-.....
	rel 3+8 t=R_ADDR command-line-arguments.Div64degenerate<1>+0
aux for command-line-arguments.Div64degenerate<0> SDWARFFCN size=102
	0x0000 03 63 6f 6d 6d 61 6e 64 2d 6c 69 6e 65 2d 61 72  .command-line-ar
	0x0010 67 75 6d 65 6e 74 73 2e 44 69 76 36 34 64 65 67  guments.Div64deg
	0x0020 65 6e 65 72 61 74 65 00 00 00 00 00 00 00 00 00  enerate.........
	0x0030 00 00 00 00 00 00 00 00 01 9c 02 00 00 00 e2 06  ................
	0x0040 01 12 78 00 00 e2 06 00 00 00 00 00 00 00 00 11  ..x.............
	0x0050 71 00 01 e2 06 00 00 00 00 00 11 72 00 01 e2 06  q..........r....
	0x0060 00 00 00 00 00 00                                ......
	rel 0+0 t=R_USETYPE type:uint64<0>+0
	rel 40+8 t=R_ADDR command-line-arguments.Div64degenerate<1>+0
	rel 48+8 t=R_ADDR command-line-arguments.Div64degenerate<1>+34
	rel 71+4 t=R_DWARFSECREF go:info.uint64<0>+0
	rel 75+4 t=R_DWARFSECREF <0>+0
	rel 85+4 t=R_DWARFSECREF go:info.uint64<0>+0
	rel 96+4 t=R_DWARFSECREF go:info.uint64<0>+0
