# command-line-arguments
command-line-arguments.mapCompoundAssignmentInt8<1> STEXT size=398 args=0x0 locals=0x78 funcid=0x0 align=0x0
	0x0000 00000 (/home/xzl/work/golang-1.22/golang-1.22/test/codegen/mapaccess.go:12)	TEXT	command-line-arguments.mapCompoundAssignmentInt8(SB), ABIInternal, $120-0
	0x0000 00000 (/home/xzl/work/golang-1.22/golang-1.22/test/codegen/mapaccess.go:12)	CMPQ	SP, 16(R14)
	0x0004 00004 (/home/xzl/work/golang-1.22/golang-1.22/test/codegen/mapaccess.go:12)	PCDATA	$0, $-2
	0x0004 00004 (/home/xzl/work/golang-1.22/golang-1.22/test/codegen/mapaccess.go:12)	JLS	388
	0x000a 00010 (/home/xzl/work/golang-1.22/golang-1.22/test/codegen/mapaccess.go:12)	PCDATA	$0, $-1
	0x000a 00010 (/home/xzl/work/golang-1.22/golang-1.22/test/codegen/mapaccess.go:12)	PUSHQ	BP
	0x000b 00011 (/home/xzl/work/golang-1.22/golang-1.22/test/codegen/mapaccess.go:12)	MOVQ	SP, BP
	0x000e 00014 (/home/xzl/work/golang-1.22/golang-1.22/test/codegen/mapaccess.go:12)	SUBQ	$112, SP
	0x0012 00018 (/home/xzl/work/golang-1.22/golang-1.22/test/codegen/mapaccess.go:12)	FUNCDATA	$0, gclocals·J5F+7Qw7O7ve2QcWC7DpeQ==(SB)
	0x0012 00018 (/home/xzl/work/golang-1.22/golang-1.22/test/codegen/mapaccess.go:12)	FUNCDATA	$1, gclocals·Gi+ewyUrOze142o4ULSYMg==(SB)
	0x0012 00018 (/home/xzl/work/golang-1.22/golang-1.22/test/codegen/mapaccess.go:12)	FUNCDATA	$2, command-line-arguments.mapCompoundAssignmentInt8.stkobj(SB)
	0x0012 00018 (/home/xzl/work/golang-1.22/golang-1.22/test/codegen/mapaccess.go:13)	MOVUPS	X15, command-line-arguments..autotmp_3+64(SP)
	0x0018 00024 (/home/xzl/work/golang-1.22/golang-1.22/test/codegen/mapaccess.go:13)	MOVUPS	X15, command-line-arguments..autotmp_3+80(SP)
	0x001e 00030 (/home/xzl/work/golang-1.22/golang-1.22/test/codegen/mapaccess.go:13)	MOVUPS	X15, command-line-arguments..autotmp_3+96(SP)
	0x0024 00036 (/home/xzl/work/golang-1.22/golang-1.22/test/codegen/mapaccess.go:13)	MOVUPS	X15, command-line-arguments..autotmp_4+32(SP)
	0x002a 00042 (/home/xzl/work/golang-1.22/golang-1.22/test/codegen/mapaccess.go:13)	MOVUPS	X15, command-line-arguments..autotmp_4+48(SP)
	0x0030 00048 (/home/xzl/work/golang-1.22/golang-1.22/test/codegen/mapaccess.go:13)	LEAQ	command-line-arguments..autotmp_4+32(SP), AX
	0x0035 00053 (/home/xzl/work/golang-1.22/golang-1.22/test/codegen/mapaccess.go:13)	MOVQ	AX, command-line-arguments..autotmp_3+80(SP)
	0x003a 00058 (/home/xzl/work/golang-1.22/golang-1.22/test/codegen/mapaccess.go:13)	PCDATA	$1, $1
	0x003a 00058 (/home/xzl/work/golang-1.22/golang-1.22/test/codegen/mapaccess.go:13)	CALL	runtime.rand32(SB)
	0x003f 00063 (/home/xzl/work/golang-1.22/golang-1.22/test/codegen/mapaccess.go:13)	MOVL	AX, command-line-arguments..autotmp_3+76(SP)
	0x0043 00067 (/home/xzl/work/golang-1.22/golang-1.22/test/codegen/mapaccess.go:20)	MOVB	$0, command-line-arguments..autotmp_2+31(SP)
	0x0048 00072 (/home/xzl/work/golang-1.22/golang-1.22/test/codegen/mapaccess.go:20)	LEAQ	type:map[int8]int8(SB), AX
	0x004f 00079 (/home/xzl/work/golang-1.22/golang-1.22/test/codegen/mapaccess.go:20)	LEAQ	command-line-arguments..autotmp_3+64(SP), BX
	0x0054 00084 (/home/xzl/work/golang-1.22/golang-1.22/test/codegen/mapaccess.go:20)	LEAQ	command-line-arguments..autotmp_2+31(SP), CX
	0x0059 00089 (/home/xzl/work/golang-1.22/golang-1.22/test/codegen/mapaccess.go:20)	CALL	runtime.mapassign(SB)
	0x005e 00094 (/home/xzl/work/golang-1.22/golang-1.22/test/codegen/mapaccess.go:20)	MOVBLZX	(AX), CX
	0x0061 00097 (/home/xzl/work/golang-1.22/golang-1.22/test/codegen/mapaccess.go:20)	ADDL	$67, CX
	0x0064 00100 (/home/xzl/work/golang-1.22/golang-1.22/test/codegen/mapaccess.go:20)	MOVB	CL, (AX)
	0x0066 00102 (/home/xzl/work/golang-1.22/golang-1.22/test/codegen/mapaccess.go:26)	MOVB	$0, command-line-arguments..autotmp_2+31(SP)
	0x006b 00107 (/home/xzl/work/golang-1.22/golang-1.22/test/codegen/mapaccess.go:26)	LEAQ	type:map[int8]int8(SB), AX
	0x0072 00114 (/home/xzl/work/golang-1.22/golang-1.22/test/codegen/mapaccess.go:26)	LEAQ	command-line-arguments..autotmp_3+64(SP), BX
	0x0077 00119 (/home/xzl/work/golang-1.22/golang-1.22/test/codegen/mapaccess.go:26)	LEAQ	command-line-arguments..autotmp_2+31(SP), CX
	0x007c 00124 (/home/xzl/work/golang-1.22/golang-1.22/test/codegen/mapaccess.go:26)	NOP
	0x0080 00128 (/home/xzl/work/golang-1.22/golang-1.22/test/codegen/mapaccess.go:26)	CALL	runtime.mapassign(SB)
	0x0085 00133 (/home/xzl/work/golang-1.22/golang-1.22/test/codegen/mapaccess.go:26)	MOVBLZX	(AX), CX
	0x0088 00136 (/home/xzl/work/golang-1.22/golang-1.22/test/codegen/mapaccess.go:26)	ADDL	$-123, CX
	0x008b 00139 (/home/xzl/work/golang-1.22/golang-1.22/test/codegen/mapaccess.go:26)	MOVB	CL, (AX)
	0x008d 00141 (/home/xzl/work/golang-1.22/golang-1.22/test/codegen/mapaccess.go:32)	MOVB	$0, command-line-arguments..autotmp_2+31(SP)
	0x0092 00146 (/home/xzl/work/golang-1.22/golang-1.22/test/codegen/mapaccess.go:32)	LEAQ	type:map[int8]int8(SB), AX
	0x0099 00153 (/home/xzl/work/golang-1.22/golang-1.22/test/codegen/mapaccess.go:32)	LEAQ	command-line-arguments..autotmp_3+64(SP), BX
	0x009e 00158 (/home/xzl/work/golang-1.22/golang-1.22/test/codegen/mapaccess.go:32)	LEAQ	command-line-arguments..autotmp_2+31(SP), CX
	0x00a3 00163 (/home/xzl/work/golang-1.22/golang-1.22/test/codegen/mapaccess.go:32)	CALL	runtime.mapassign(SB)
	0x00a8 00168 (/home/xzl/work/golang-1.22/golang-1.22/test/codegen/mapaccess.go:32)	MOVBLZX	(AX), CX
	0x00ab 00171 (/home/xzl/work/golang-1.22/golang-1.22/test/codegen/mapaccess.go:32)	LEAL	(CX)(CX*4), CX
	0x00ae 00174 (/home/xzl/work/golang-1.22/golang-1.22/test/codegen/mapaccess.go:32)	LEAL	(CX)(CX*8), CX
	0x00b1 00177 (/home/xzl/work/golang-1.22/golang-1.22/test/codegen/mapaccess.go:32)	MOVB	CL, (AX)
	0x00b3 00179 (/home/xzl/work/golang-1.22/golang-1.22/test/codegen/mapaccess.go:38)	MOVB	$0, command-line-arguments..autotmp_2+31(SP)
	0x00b8 00184 (/home/xzl/work/golang-1.22/golang-1.22/test/codegen/mapaccess.go:38)	LEAQ	type:map[int8]int8(SB), AX
	0x00bf 00191 (/home/xzl/work/golang-1.22/golang-1.22/test/codegen/mapaccess.go:38)	LEAQ	command-line-arguments..autotmp_3+64(SP), BX
	0x00c4 00196 (/home/xzl/work/golang-1.22/golang-1.22/test/codegen/mapaccess.go:38)	LEAQ	command-line-arguments..autotmp_2+31(SP), CX
	0x00c9 00201 (/home/xzl/work/golang-1.22/golang-1.22/test/codegen/mapaccess.go:38)	CALL	runtime.mapassign(SB)
	0x00ce 00206 (/home/xzl/work/golang-1.22/golang-1.22/test/codegen/mapaccess.go:38)	MOVBLZX	(AX), CX
	0x00d1 00209 (/home/xzl/work/golang-1.22/golang-1.22/test/codegen/mapaccess.go:38)	ORL	$78, CX
	0x00d4 00212 (/home/xzl/work/golang-1.22/golang-1.22/test/codegen/mapaccess.go:38)	MOVB	CL, (AX)
	0x00d6 00214 (/home/xzl/work/golang-1.22/golang-1.22/test/codegen/mapaccess.go:44)	MOVB	$0, command-line-arguments..autotmp_2+31(SP)
	0x00db 00219 (/home/xzl/work/golang-1.22/golang-1.22/test/codegen/mapaccess.go:44)	LEAQ	type:map[int8]int8(SB), AX
	0x00e2 00226 (/home/xzl/work/golang-1.22/golang-1.22/test/codegen/mapaccess.go:44)	LEAQ	command-line-arguments..autotmp_3+64(SP), BX
	0x00e7 00231 (/home/xzl/work/golang-1.22/golang-1.22/test/codegen/mapaccess.go:44)	LEAQ	command-line-arguments..autotmp_2+31(SP), CX
	0x00ec 00236 (/home/xzl/work/golang-1.22/golang-1.22/test/codegen/mapaccess.go:44)	CALL	runtime.mapassign(SB)
	0x00f1 00241 (/home/xzl/work/golang-1.22/golang-1.22/test/codegen/mapaccess.go:44)	MOVBLZX	(AX), CX
	0x00f4 00244 (/home/xzl/work/golang-1.22/golang-1.22/test/codegen/mapaccess.go:44)	XORL	$89, CX
	0x00f7 00247 (/home/xzl/work/golang-1.22/golang-1.22/test/codegen/mapaccess.go:44)	MOVB	CL, (AX)
	0x00f9 00249 (/home/xzl/work/golang-1.22/golang-1.22/test/codegen/mapaccess.go:50)	MOVB	$0, command-line-arguments..autotmp_2+31(SP)
	0x00fe 00254 (/home/xzl/work/golang-1.22/golang-1.22/test/codegen/mapaccess.go:50)	LEAQ	type:map[int8]int8(SB), AX
	0x0105 00261 (/home/xzl/work/golang-1.22/golang-1.22/test/codegen/mapaccess.go:50)	LEAQ	command-line-arguments..autotmp_3+64(SP), BX
	0x010a 00266 (/home/xzl/work/golang-1.22/golang-1.22/test/codegen/mapaccess.go:50)	LEAQ	command-line-arguments..autotmp_2+31(SP), CX
	0x010f 00271 (/home/xzl/work/golang-1.22/golang-1.22/test/codegen/mapaccess.go:50)	CALL	runtime.mapassign(SB)
	0x0114 00276 (/home/xzl/work/golang-1.22/golang-1.22/test/codegen/mapaccess.go:50)	MOVB	$0, (AX)
	0x0117 00279 (/home/xzl/work/golang-1.22/golang-1.22/test/codegen/mapaccess.go:56)	MOVB	$0, command-line-arguments..autotmp_2+31(SP)
	0x011c 00284 (/home/xzl/work/golang-1.22/golang-1.22/test/codegen/mapaccess.go:56)	LEAQ	type:map[int8]int8(SB), AX
	0x0123 00291 (/home/xzl/work/golang-1.22/golang-1.22/test/codegen/mapaccess.go:56)	LEAQ	command-line-arguments..autotmp_3+64(SP), BX
	0x0128 00296 (/home/xzl/work/golang-1.22/golang-1.22/test/codegen/mapaccess.go:56)	LEAQ	command-line-arguments..autotmp_2+31(SP), CX
	0x012d 00301 (/home/xzl/work/golang-1.22/golang-1.22/test/codegen/mapaccess.go:56)	CALL	runtime.mapassign(SB)
	0x0132 00306 (/home/xzl/work/golang-1.22/golang-1.22/test/codegen/mapaccess.go:56)	MOVBLZX	(AX), CX
	0x0135 00309 (/home/xzl/work/golang-1.22/golang-1.22/test/codegen/mapaccess.go:56)	SARB	$7, CL
	0x0138 00312 (/home/xzl/work/golang-1.22/golang-1.22/test/codegen/mapaccess.go:56)	MOVB	CL, (AX)
	0x013a 00314 (/home/xzl/work/golang-1.22/golang-1.22/test/codegen/mapaccess.go:62)	MOVB	$0, command-line-arguments..autotmp_2+31(SP)
	0x013f 00319 (/home/xzl/work/golang-1.22/golang-1.22/test/codegen/mapaccess.go:62)	LEAQ	type:map[int8]int8(SB), AX
	0x0146 00326 (/home/xzl/work/golang-1.22/golang-1.22/test/codegen/mapaccess.go:62)	LEAQ	command-line-arguments..autotmp_3+64(SP), BX
	0x014b 00331 (/home/xzl/work/golang-1.22/golang-1.22/test/codegen/mapaccess.go:62)	LEAQ	command-line-arguments..autotmp_2+31(SP), CX
	0x0150 00336 (/home/xzl/work/golang-1.22/golang-1.22/test/codegen/mapaccess.go:62)	CALL	runtime.mapassign(SB)
	0x0155 00341 (/home/xzl/work/golang-1.22/golang-1.22/test/codegen/mapaccess.go:62)	MOVBLZX	(AX), CX
	0x0158 00344 (/home/xzl/work/golang-1.22/golang-1.22/test/codegen/mapaccess.go:62)	INCL	CX
	0x015a 00346 (/home/xzl/work/golang-1.22/golang-1.22/test/codegen/mapaccess.go:62)	MOVB	CL, (AX)
	0x015c 00348 (/home/xzl/work/golang-1.22/golang-1.22/test/codegen/mapaccess.go:68)	MOVB	$0, command-line-arguments..autotmp_2+31(SP)
	0x0161 00353 (/home/xzl/work/golang-1.22/golang-1.22/test/codegen/mapaccess.go:68)	LEAQ	type:map[int8]int8(SB), AX
	0x0168 00360 (/home/xzl/work/golang-1.22/golang-1.22/test/codegen/mapaccess.go:68)	LEAQ	command-line-arguments..autotmp_3+64(SP), BX
	0x016d 00365 (/home/xzl/work/golang-1.22/golang-1.22/test/codegen/mapaccess.go:68)	LEAQ	command-line-arguments..autotmp_2+31(SP), CX
	0x0172 00370 (/home/xzl/work/golang-1.22/golang-1.22/test/codegen/mapaccess.go:68)	PCDATA	$1, $0
	0x0172 00370 (/home/xzl/work/golang-1.22/golang-1.22/test/codegen/mapaccess.go:68)	CALL	runtime.mapassign(SB)
	0x0177 00375 (/home/xzl/work/golang-1.22/golang-1.22/test/codegen/mapaccess.go:68)	MOVBLZX	(AX), CX
	0x017a 00378 (/home/xzl/work/golang-1.22/golang-1.22/test/codegen/mapaccess.go:68)	DECL	CX
	0x017c 00380 (/home/xzl/work/golang-1.22/golang-1.22/test/codegen/mapaccess.go:68)	MOVB	CL, (AX)
	0x017e 00382 (/home/xzl/work/golang-1.22/golang-1.22/test/codegen/mapaccess.go:69)	ADDQ	$112, SP
	0x0182 00386 (/home/xzl/work/golang-1.22/golang-1.22/test/codegen/mapaccess.go:69)	POPQ	BP
	0x0183 00387 (/home/xzl/work/golang-1.22/golang-1.22/test/codegen/mapaccess.go:69)	RET
	0x0184 00388 (/home/xzl/work/golang-1.22/golang-1.22/test/codegen/mapaccess.go:69)	NOP
	0x0184 00388 (/home/xzl/work/golang-1.22/golang-1.22/test/codegen/mapaccess.go:12)	PCDATA	$1, $-1
	0x0184 00388 (/home/xzl/work/golang-1.22/golang-1.22/test/codegen/mapaccess.go:12)	PCDATA	$0, $-2
	0x0184 00388 (/home/xzl/work/golang-1.22/golang-1.22/test/codegen/mapaccess.go:12)	CALL	runtime.morestack_noctxt(SB)
	0x0189 00393 (/home/xzl/work/golang-1.22/golang-1.22/test/codegen/mapaccess.go:12)	PCDATA	$0, $-1
	0x0189 00393 (/home/xzl/work/golang-1.22/golang-1.22/test/codegen/mapaccess.go:12)	JMP	0
	0x0000 49 3b 66 10 0f 86 7a 01 00 00 55 48 89 e5 48 83  I;f...z...UH..H.
	0x0010 ec 70 44 0f 11 7c 24 40 44 0f 11 7c 24 50 44 0f  .pD..|$@D..|$PD.
	0x0020 11 7c 24 60 44 0f 11 7c 24 20 44 0f 11 7c 24 30  .|$`D..|$ D..|$0
	0x0030 48 8d 44 24 20 48 89 44 24 50 e8 00 00 00 00 89  H.D$ H.D$P......
	0x0040 44 24 4c c6 44 24 1f 00 48 8d 05 00 00 00 00 48  D$L.D$..H......H
	0x0050 8d 5c 24 40 48 8d 4c 24 1f e8 00 00 00 00 0f b6  .\$@H.L$........
	0x0060 08 83 c1 43 88 08 c6 44 24 1f 00 48 8d 05 00 00  ...C...D$..H....
	0x0070 00 00 48 8d 5c 24 40 48 8d 4c 24 1f 0f 1f 40 00  ..H.\$@H.L$...@.
	0x0080 e8 00 00 00 00 0f b6 08 83 c1 85 88 08 c6 44 24  ..............D$
	0x0090 1f 00 48 8d 05 00 00 00 00 48 8d 5c 24 40 48 8d  ..H......H.\$@H.
	0x00a0 4c 24 1f e8 00 00 00 00 0f b6 08 8d 0c 89 8d 0c  L$..............
	0x00b0 c9 88 08 c6 44 24 1f 00 48 8d 05 00 00 00 00 48  ....D$..H......H
	0x00c0 8d 5c 24 40 48 8d 4c 24 1f e8 00 00 00 00 0f b6  .\$@H.L$........
	0x00d0 08 83 c9 4e 88 08 c6 44 24 1f 00 48 8d 05 00 00  ...N...D$..H....
	0x00e0 00 00 48 8d 5c 24 40 48 8d 4c 24 1f e8 00 00 00  ..H.\$@H.L$.....
	0x00f0 00 0f b6 08 83 f1 59 88 08 c6 44 24 1f 00 48 8d  ......Y...D$..H.
	0x0100 05 00 00 00 00 48 8d 5c 24 40 48 8d 4c 24 1f e8  .....H.\$@H.L$..
	0x0110 00 00 00 00 c6 00 00 c6 44 24 1f 00 48 8d 05 00  ........D$..H...
	0x0120 00 00 00 48 8d 5c 24 40 48 8d 4c 24 1f e8 00 00  ...H.\$@H.L$....
	0x0130 00 00 0f b6 08 c0 f9 07 88 08 c6 44 24 1f 00 48  ...........D$..H
	0x0140 8d 05 00 00 00 00 48 8d 5c 24 40 48 8d 4c 24 1f  ......H.\$@H.L$.
	0x0150 e8 00 00 00 00 0f b6 08 ff c1 88 08 c6 44 24 1f  .............D$.
	0x0160 00 48 8d 05 00 00 00 00 48 8d 5c 24 40 48 8d 4c  .H......H.\$@H.L
	0x0170 24 1f e8 00 00 00 00 0f b6 08 ff c9 88 08 48 83  $.............H.
	0x0180 c4 70 5d c3 e8 00 00 00 00 e9 72 fe ff ff        .p].......r...
	rel 59+4 t=R_CALL runtime.rand32<1>+0
	rel 75+4 t=R_PCREL type:map[int8]int8<0>+0
	rel 90+4 t=R_CALL runtime.mapassign<1>+0
	rel 110+4 t=R_PCREL type:map[int8]int8<0>+0
	rel 129+4 t=R_CALL runtime.mapassign<1>+0
	rel 149+4 t=R_PCREL type:map[int8]int8<0>+0
	rel 164+4 t=R_CALL runtime.mapassign<1>+0
	rel 187+4 t=R_PCREL type:map[int8]int8<0>+0
	rel 202+4 t=R_CALL runtime.mapassign<1>+0
	rel 222+4 t=R_PCREL type:map[int8]int8<0>+0
	rel 237+4 t=R_CALL runtime.mapassign<1>+0
	rel 257+4 t=R_PCREL type:map[int8]int8<0>+0
	rel 272+4 t=R_CALL runtime.mapassign<1>+0
	rel 287+4 t=R_PCREL type:map[int8]int8<0>+0
	rel 302+4 t=R_CALL runtime.mapassign<1>+0
	rel 322+4 t=R_PCREL type:map[int8]int8<0>+0
	rel 337+4 t=R_CALL runtime.mapassign<1>+0
	rel 356+4 t=R_PCREL type:map[int8]int8<0>+0
	rel 371+4 t=R_CALL runtime.mapassign<1>+0
	rel 389+4 t=R_CALL runtime.morestack_noctxt<0>+0
command-line-arguments.mapCompoundAssignmentInt32<1> STEXT size=346 args=0x0 locals=0xa0 funcid=0x0 align=0x0
	0x0000 00000 (/home/xzl/work/golang-1.22/golang-1.22/test/codegen/mapaccess.go:71)	TEXT	command-line-arguments.mapCompoundAssignmentInt32(SB), ABIInternal, $160-0
	0x0000 00000 (/home/xzl/work/golang-1.22/golang-1.22/test/codegen/mapaccess.go:71)	LEAQ	-32(SP), R12
	0x0005 00005 (/home/xzl/work/golang-1.22/golang-1.22/test/codegen/mapaccess.go:71)	CMPQ	R12, 16(R14)
	0x0009 00009 (/home/xzl/work/golang-1.22/golang-1.22/test/codegen/mapaccess.go:71)	PCDATA	$0, $-2
	0x0009 00009 (/home/xzl/work/golang-1.22/golang-1.22/test/codegen/mapaccess.go:71)	JLS	336
	0x000f 00015 (/home/xzl/work/golang-1.22/golang-1.22/test/codegen/mapaccess.go:71)	PCDATA	$0, $-1
	0x000f 00015 (/home/xzl/work/golang-1.22/golang-1.22/test/codegen/mapaccess.go:71)	PUSHQ	BP
	0x0010 00016 (/home/xzl/work/golang-1.22/golang-1.22/test/codegen/mapaccess.go:71)	MOVQ	SP, BP
	0x0013 00019 (/home/xzl/work/golang-1.22/golang-1.22/test/codegen/mapaccess.go:71)	SUBQ	$152, SP
	0x001a 00026 (/home/xzl/work/golang-1.22/golang-1.22/test/codegen/mapaccess.go:71)	FUNCDATA	$0, gclocals·J5F+7Qw7O7ve2QcWC7DpeQ==(SB)
	0x001a 00026 (/home/xzl/work/golang-1.22/golang-1.22/test/codegen/mapaccess.go:71)	FUNCDATA	$1, gclocals·Gi+ewyUrOze142o4ULSYMg==(SB)
	0x001a 00026 (/home/xzl/work/golang-1.22/golang-1.22/test/codegen/mapaccess.go:71)	FUNCDATA	$2, command-line-arguments.mapCompoundAssignmentInt32.stkobj(SB)
	0x001a 00026 (/home/xzl/work/golang-1.22/golang-1.22/test/codegen/mapaccess.go:72)	MOVUPS	X15, command-line-arguments..autotmp_2+104(SP)
	0x0020 00032 (/home/xzl/work/golang-1.22/golang-1.22/test/codegen/mapaccess.go:72)	MOVUPS	X15, command-line-arguments..autotmp_2+120(SP)
	0x0026 00038 (/home/xzl/work/golang-1.22/golang-1.22/test/codegen/mapaccess.go:72)	MOVUPS	X15, command-line-arguments..autotmp_2+136(SP)
	0x002f 00047 (/home/xzl/work/golang-1.22/golang-1.22/test/codegen/mapaccess.go:72)	LEAQ	command-line-arguments..autotmp_3+24(SP), DI
	0x0034 00052 (/home/xzl/work/golang-1.22/golang-1.22/test/codegen/mapaccess.go:72)	PCDATA	$0, $-2
	0x0034 00052 (/home/xzl/work/golang-1.22/golang-1.22/test/codegen/mapaccess.go:72)	LEAQ	-48(DI), DI
	0x0038 00056 (/home/xzl/work/golang-1.22/golang-1.22/test/codegen/mapaccess.go:72)	NOP
	0x0040 00064 (/home/xzl/work/golang-1.22/golang-1.22/test/codegen/mapaccess.go:72)	DUFFZERO	$336
	0x0053 00083 (/home/xzl/work/golang-1.22/golang-1.22/test/codegen/mapaccess.go:72)	PCDATA	$0, $-1
	0x0053 00083 (/home/xzl/work/golang-1.22/golang-1.22/test/codegen/mapaccess.go:72)	LEAQ	command-line-arguments..autotmp_3+24(SP), AX
	0x0058 00088 (/home/xzl/work/golang-1.22/golang-1.22/test/codegen/mapaccess.go:72)	MOVQ	AX, command-line-arguments..autotmp_2+120(SP)
	0x005d 00093 (/home/xzl/work/golang-1.22/golang-1.22/test/codegen/mapaccess.go:72)	PCDATA	$1, $1
	0x005d 00093 (/home/xzl/work/golang-1.22/golang-1.22/test/codegen/mapaccess.go:72)	NOP
	0x0060 00096 (/home/xzl/work/golang-1.22/golang-1.22/test/codegen/mapaccess.go:72)	CALL	runtime.rand32(SB)
	0x0065 00101 (/home/xzl/work/golang-1.22/golang-1.22/test/codegen/mapaccess.go:72)	MOVL	AX, command-line-arguments..autotmp_2+116(SP)
	0x0069 00105 (/home/xzl/work/golang-1.22/golang-1.22/test/codegen/mapaccess.go:79)	LEAQ	type:map[int32]int32(SB), AX
	0x0070 00112 (/home/xzl/work/golang-1.22/golang-1.22/test/codegen/mapaccess.go:79)	LEAQ	command-line-arguments..autotmp_2+104(SP), BX
	0x0075 00117 (/home/xzl/work/golang-1.22/golang-1.22/test/codegen/mapaccess.go:79)	XORL	CX, CX
	0x0077 00119 (/home/xzl/work/golang-1.22/golang-1.22/test/codegen/mapaccess.go:79)	CALL	runtime.mapassign_fast32(SB)
	0x007c 00124 (/home/xzl/work/golang-1.22/golang-1.22/test/codegen/mapaccess.go:79)	ADDL	$67890, (AX)
	0x0082 00130 (/home/xzl/work/golang-1.22/golang-1.22/test/codegen/mapaccess.go:85)	LEAQ	type:map[int32]int32(SB), AX
	0x0089 00137 (/home/xzl/work/golang-1.22/golang-1.22/test/codegen/mapaccess.go:85)	LEAQ	command-line-arguments..autotmp_2+104(SP), BX
	0x008e 00142 (/home/xzl/work/golang-1.22/golang-1.22/test/codegen/mapaccess.go:85)	XORL	CX, CX
	0x0090 00144 (/home/xzl/work/golang-1.22/golang-1.22/test/codegen/mapaccess.go:85)	CALL	runtime.mapassign_fast32(SB)
	0x0095 00149 (/home/xzl/work/golang-1.22/golang-1.22/test/codegen/mapaccess.go:85)	ADDL	$-123, (AX)
	0x0098 00152 (/home/xzl/work/golang-1.22/golang-1.22/test/codegen/mapaccess.go:91)	LEAQ	type:map[int32]int32(SB), AX
	0x009f 00159 (/home/xzl/work/golang-1.22/golang-1.22/test/codegen/mapaccess.go:91)	LEAQ	command-line-arguments..autotmp_2+104(SP), BX
	0x00a4 00164 (/home/xzl/work/golang-1.22/golang-1.22/test/codegen/mapaccess.go:91)	XORL	CX, CX
	0x00a6 00166 (/home/xzl/work/golang-1.22/golang-1.22/test/codegen/mapaccess.go:91)	CALL	runtime.mapassign_fast32(SB)
	0x00ab 00171 (/home/xzl/work/golang-1.22/golang-1.22/test/codegen/mapaccess.go:91)	MOVL	(AX), CX
	0x00ad 00173 (/home/xzl/work/golang-1.22/golang-1.22/test/codegen/mapaccess.go:91)	IMUL3L	$456, CX, CX
	0x00b3 00179 (/home/xzl/work/golang-1.22/golang-1.22/test/codegen/mapaccess.go:91)	MOVL	CX, (AX)
	0x00b5 00181 (/home/xzl/work/golang-1.22/golang-1.22/test/codegen/mapaccess.go:97)	LEAQ	type:map[int32]int32(SB), AX
	0x00bc 00188 (/home/xzl/work/golang-1.22/golang-1.22/test/codegen/mapaccess.go:97)	LEAQ	command-line-arguments..autotmp_2+104(SP), BX
	0x00c1 00193 (/home/xzl/work/golang-1.22/golang-1.22/test/codegen/mapaccess.go:97)	XORL	CX, CX
	0x00c3 00195 (/home/xzl/work/golang-1.22/golang-1.22/test/codegen/mapaccess.go:97)	CALL	runtime.mapassign_fast32(SB)
	0x00c8 00200 (/home/xzl/work/golang-1.22/golang-1.22/test/codegen/mapaccess.go:97)	ORL	$78, (AX)
	0x00cb 00203 (/home/xzl/work/golang-1.22/golang-1.22/test/codegen/mapaccess.go:103)	LEAQ	type:map[int32]int32(SB), AX
	0x00d2 00210 (/home/xzl/work/golang-1.22/golang-1.22/test/codegen/mapaccess.go:103)	LEAQ	command-line-arguments..autotmp_2+104(SP), BX
	0x00d7 00215 (/home/xzl/work/golang-1.22/golang-1.22/test/codegen/mapaccess.go:103)	XORL	CX, CX
	0x00d9 00217 (/home/xzl/work/golang-1.22/golang-1.22/test/codegen/mapaccess.go:103)	CALL	runtime.mapassign_fast32(SB)
	0x00de 00222 (/home/xzl/work/golang-1.22/golang-1.22/test/codegen/mapaccess.go:103)	XORL	$89, (AX)
	0x00e1 00225 (/home/xzl/work/golang-1.22/golang-1.22/test/codegen/mapaccess.go:109)	LEAQ	type:map[int32]int32(SB), AX
	0x00e8 00232 (/home/xzl/work/golang-1.22/golang-1.22/test/codegen/mapaccess.go:109)	LEAQ	command-line-arguments..autotmp_2+104(SP), BX
	0x00ed 00237 (/home/xzl/work/golang-1.22/golang-1.22/test/codegen/mapaccess.go:109)	XORL	CX, CX
	0x00ef 00239 (/home/xzl/work/golang-1.22/golang-1.22/test/codegen/mapaccess.go:109)	CALL	runtime.mapassign_fast32(SB)
	0x00f4 00244 (/home/xzl/work/golang-1.22/golang-1.22/test/codegen/mapaccess.go:109)	MOVL	(AX), CX
	0x00f6 00246 (/home/xzl/work/golang-1.22/golang-1.22/test/codegen/mapaccess.go:109)	SHLL	$9, CX
	0x00f9 00249 (/home/xzl/work/golang-1.22/golang-1.22/test/codegen/mapaccess.go:109)	MOVL	CX, (AX)
	0x00fb 00251 (/home/xzl/work/golang-1.22/golang-1.22/test/codegen/mapaccess.go:115)	LEAQ	type:map[int32]int32(SB), AX
	0x0102 00258 (/home/xzl/work/golang-1.22/golang-1.22/test/codegen/mapaccess.go:115)	LEAQ	command-line-arguments..autotmp_2+104(SP), BX
	0x0107 00263 (/home/xzl/work/golang-1.22/golang-1.22/test/codegen/mapaccess.go:115)	XORL	CX, CX
	0x0109 00265 (/home/xzl/work/golang-1.22/golang-1.22/test/codegen/mapaccess.go:115)	CALL	runtime.mapassign_fast32(SB)
	0x010e 00270 (/home/xzl/work/golang-1.22/golang-1.22/test/codegen/mapaccess.go:115)	MOVL	$10, CX
	0x0113 00275 (/home/xzl/work/golang-1.22/golang-1.22/test/codegen/mapaccess.go:115)	SARXL	CX, (AX), CX
	0x0118 00280 (/home/xzl/work/golang-1.22/golang-1.22/test/codegen/mapaccess.go:115)	MOVL	CX, (AX)
	0x011a 00282 (/home/xzl/work/golang-1.22/golang-1.22/test/codegen/mapaccess.go:121)	LEAQ	type:map[int32]int32(SB), AX
	0x0121 00289 (/home/xzl/work/golang-1.22/golang-1.22/test/codegen/mapaccess.go:121)	LEAQ	command-line-arguments..autotmp_2+104(SP), BX
	0x0126 00294 (/home/xzl/work/golang-1.22/golang-1.22/test/codegen/mapaccess.go:121)	XORL	CX, CX
	0x0128 00296 (/home/xzl/work/golang-1.22/golang-1.22/test/codegen/mapaccess.go:121)	CALL	runtime.mapassign_fast32(SB)
	0x012d 00301 (/home/xzl/work/golang-1.22/golang-1.22/test/codegen/mapaccess.go:121)	INCL	(AX)
	0x012f 00303 (/home/xzl/work/golang-1.22/golang-1.22/test/codegen/mapaccess.go:127)	LEAQ	type:map[int32]int32(SB), AX
	0x0136 00310 (/home/xzl/work/golang-1.22/golang-1.22/test/codegen/mapaccess.go:127)	LEAQ	command-line-arguments..autotmp_2+104(SP), BX
	0x013b 00315 (/home/xzl/work/golang-1.22/golang-1.22/test/codegen/mapaccess.go:127)	XORL	CX, CX
	0x013d 00317 (/home/xzl/work/golang-1.22/golang-1.22/test/codegen/mapaccess.go:127)	PCDATA	$1, $0
	0x013d 00317 (/home/xzl/work/golang-1.22/golang-1.22/test/codegen/mapaccess.go:127)	NOP
	0x0140 00320 (/home/xzl/work/golang-1.22/golang-1.22/test/codegen/mapaccess.go:127)	CALL	runtime.mapassign_fast32(SB)
	0x0145 00325 (/home/xzl/work/golang-1.22/golang-1.22/test/codegen/mapaccess.go:127)	DECL	(AX)
	0x0147 00327 (/home/xzl/work/golang-1.22/golang-1.22/test/codegen/mapaccess.go:128)	ADDQ	$152, SP
	0x014e 00334 (/home/xzl/work/golang-1.22/golang-1.22/test/codegen/mapaccess.go:128)	POPQ	BP
	0x014f 00335 (/home/xzl/work/golang-1.22/golang-1.22/test/codegen/mapaccess.go:128)	RET
	0x0150 00336 (/home/xzl/work/golang-1.22/golang-1.22/test/codegen/mapaccess.go:128)	NOP
	0x0150 00336 (/home/xzl/work/golang-1.22/golang-1.22/test/codegen/mapaccess.go:71)	PCDATA	$1, $-1
	0x0150 00336 (/home/xzl/work/golang-1.22/golang-1.22/test/codegen/mapaccess.go:71)	PCDATA	$0, $-2
	0x0150 00336 (/home/xzl/work/golang-1.22/golang-1.22/test/codegen/mapaccess.go:71)	CALL	runtime.morestack_noctxt(SB)
	0x0155 00341 (/home/xzl/work/golang-1.22/golang-1.22/test/codegen/mapaccess.go:71)	PCDATA	$0, $-1
	0x0155 00341 (/home/xzl/work/golang-1.22/golang-1.22/test/codegen/mapaccess.go:71)	JMP	0
	0x0000 4c 8d 64 24 e0 4d 3b 66 10 0f 86 41 01 00 00 55  L.d$.M;f...A...U
	0x0010 48 89 e5 48 81 ec 98 00 00 00 44 0f 11 7c 24 68  H..H......D..|$h
	0x0020 44 0f 11 7c 24 78 44 0f 11 bc 24 88 00 00 00 48  D..|$xD...$....H
	0x0030 8d 7c 24 18 48 8d 7f d0 0f 1f 84 00 00 00 00 00  .|$.H...........
	0x0040 48 89 6c 24 f0 48 8d 6c 24 f0 e8 00 00 00 00 48  H.l$.H.l$......H
	0x0050 8b 6d 00 48 8d 44 24 18 48 89 44 24 78 0f 1f 00  .m.H.D$.H.D$x...
	0x0060 e8 00 00 00 00 89 44 24 74 48 8d 05 00 00 00 00  ......D$tH......
	0x0070 48 8d 5c 24 68 31 c9 e8 00 00 00 00 81 00 32 09  H.\$h1........2.
	0x0080 01 00 48 8d 05 00 00 00 00 48 8d 5c 24 68 31 c9  ..H......H.\$h1.
	0x0090 e8 00 00 00 00 83 00 85 48 8d 05 00 00 00 00 48  ........H......H
	0x00a0 8d 5c 24 68 31 c9 e8 00 00 00 00 8b 08 69 c9 c8  .\$h1........i..
	0x00b0 01 00 00 89 08 48 8d 05 00 00 00 00 48 8d 5c 24  .....H......H.\$
	0x00c0 68 31 c9 e8 00 00 00 00 83 08 4e 48 8d 05 00 00  h1........NH....
	0x00d0 00 00 48 8d 5c 24 68 31 c9 e8 00 00 00 00 83 30  ..H.\$h1.......0
	0x00e0 59 48 8d 05 00 00 00 00 48 8d 5c 24 68 31 c9 e8  YH......H.\$h1..
	0x00f0 00 00 00 00 8b 08 c1 e1 09 89 08 48 8d 05 00 00  ...........H....
	0x0100 00 00 48 8d 5c 24 68 31 c9 e8 00 00 00 00 b9 0a  ..H.\$h1........
	0x0110 00 00 00 c4 e2 72 f7 08 89 08 48 8d 05 00 00 00  .....r....H.....
	0x0120 00 48 8d 5c 24 68 31 c9 e8 00 00 00 00 ff 00 48  .H.\$h1........H
	0x0130 8d 05 00 00 00 00 48 8d 5c 24 68 31 c9 0f 1f 00  ......H.\$h1....
	0x0140 e8 00 00 00 00 ff 08 48 81 c4 98 00 00 00 5d c3  .......H......].
	0x0150 e8 00 00 00 00 e9 a6 fe ff ff                    ..........
	rel 75+4 t=R_CALL runtime.duffzero<1>+336
	rel 97+4 t=R_CALL runtime.rand32<1>+0
	rel 108+4 t=R_PCREL type:map[int32]int32<0>+0
	rel 120+4 t=R_CALL runtime.mapassign_fast32<1>+0
	rel 133+4 t=R_PCREL type:map[int32]int32<0>+0
	rel 145+4 t=R_CALL runtime.mapassign_fast32<1>+0
	rel 155+4 t=R_PCREL type:map[int32]int32<0>+0
	rel 167+4 t=R_CALL runtime.mapassign_fast32<1>+0
	rel 184+4 t=R_PCREL type:map[int32]int32<0>+0
	rel 196+4 t=R_CALL runtime.mapassign_fast32<1>+0
	rel 206+4 t=R_PCREL type:map[int32]int32<0>+0
	rel 218+4 t=R_CALL runtime.mapassign_fast32<1>+0
	rel 228+4 t=R_PCREL type:map[int32]int32<0>+0
	rel 240+4 t=R_CALL runtime.mapassign_fast32<1>+0
	rel 254+4 t=R_PCREL type:map[int32]int32<0>+0
	rel 266+4 t=R_CALL runtime.mapassign_fast32<1>+0
	rel 285+4 t=R_PCREL type:map[int32]int32<0>+0
	rel 297+4 t=R_CALL runtime.mapassign_fast32<1>+0
	rel 306+4 t=R_PCREL type:map[int32]int32<0>+0
	rel 321+4 t=R_CALL runtime.mapassign_fast32<1>+0
	rel 337+4 t=R_CALL runtime.morestack_noctxt<0>+0
command-line-arguments.mapCompoundAssignmentInt64<1> STEXT size=394 args=0x0 locals=0xe0 funcid=0x0 align=0x0
	0x0000 00000 (/home/xzl/work/golang-1.22/golang-1.22/test/codegen/mapaccess.go:130)	TEXT	command-line-arguments.mapCompoundAssignmentInt64(SB), ABIInternal, $224-0
	0x0000 00000 (/home/xzl/work/golang-1.22/golang-1.22/test/codegen/mapaccess.go:130)	LEAQ	-96(SP), R12
	0x0005 00005 (/home/xzl/work/golang-1.22/golang-1.22/test/codegen/mapaccess.go:130)	CMPQ	R12, 16(R14)
	0x0009 00009 (/home/xzl/work/golang-1.22/golang-1.22/test/codegen/mapaccess.go:130)	PCDATA	$0, $-2
	0x0009 00009 (/home/xzl/work/golang-1.22/golang-1.22/test/codegen/mapaccess.go:130)	JLS	382
	0x000f 00015 (/home/xzl/work/golang-1.22/golang-1.22/test/codegen/mapaccess.go:130)	PCDATA	$0, $-1
	0x000f 00015 (/home/xzl/work/golang-1.22/golang-1.22/test/codegen/mapaccess.go:130)	PUSHQ	BP
	0x0010 00016 (/home/xzl/work/golang-1.22/golang-1.22/test/codegen/mapaccess.go:130)	MOVQ	SP, BP
	0x0013 00019 (/home/xzl/work/golang-1.22/golang-1.22/test/codegen/mapaccess.go:130)	SUBQ	$216, SP
	0x001a 00026 (/home/xzl/work/golang-1.22/golang-1.22/test/codegen/mapaccess.go:130)	FUNCDATA	$0, gclocals·J5F+7Qw7O7ve2QcWC7DpeQ==(SB)
	0x001a 00026 (/home/xzl/work/golang-1.22/golang-1.22/test/codegen/mapaccess.go:130)	FUNCDATA	$1, gclocals·Gi+ewyUrOze142o4ULSYMg==(SB)
	0x001a 00026 (/home/xzl/work/golang-1.22/golang-1.22/test/codegen/mapaccess.go:130)	FUNCDATA	$2, command-line-arguments.mapCompoundAssignmentInt64.stkobj(SB)
	0x001a 00026 (/home/xzl/work/golang-1.22/golang-1.22/test/codegen/mapaccess.go:131)	MOVUPS	X15, command-line-arguments..autotmp_2+168(SP)
	0x0023 00035 (/home/xzl/work/golang-1.22/golang-1.22/test/codegen/mapaccess.go:131)	MOVUPS	X15, command-line-arguments..autotmp_2+184(SP)
	0x002c 00044 (/home/xzl/work/golang-1.22/golang-1.22/test/codegen/mapaccess.go:131)	MOVUPS	X15, command-line-arguments..autotmp_2+200(SP)
	0x0035 00053 (/home/xzl/work/golang-1.22/golang-1.22/test/codegen/mapaccess.go:131)	LEAQ	command-line-arguments..autotmp_3+24(SP), DI
	0x003a 00058 (/home/xzl/work/golang-1.22/golang-1.22/test/codegen/mapaccess.go:131)	PCDATA	$0, $-2
	0x003a 00058 (/home/xzl/work/golang-1.22/golang-1.22/test/codegen/mapaccess.go:131)	LEAQ	-48(DI), DI
	0x003e 00062 (/home/xzl/work/golang-1.22/golang-1.22/test/codegen/mapaccess.go:131)	NOP
	0x0040 00064 (/home/xzl/work/golang-1.22/golang-1.22/test/codegen/mapaccess.go:131)	DUFFZERO	$313
	0x0053 00083 (/home/xzl/work/golang-1.22/golang-1.22/test/codegen/mapaccess.go:131)	PCDATA	$0, $-1
	0x0053 00083 (/home/xzl/work/golang-1.22/golang-1.22/test/codegen/mapaccess.go:131)	LEAQ	command-line-arguments..autotmp_3+24(SP), AX
	0x0058 00088 (/home/xzl/work/golang-1.22/golang-1.22/test/codegen/mapaccess.go:131)	MOVQ	AX, command-line-arguments..autotmp_2+184(SP)
	0x0060 00096 (/home/xzl/work/golang-1.22/golang-1.22/test/codegen/mapaccess.go:131)	PCDATA	$1, $1
	0x0060 00096 (/home/xzl/work/golang-1.22/golang-1.22/test/codegen/mapaccess.go:131)	CALL	runtime.rand32(SB)
	0x0065 00101 (/home/xzl/work/golang-1.22/golang-1.22/test/codegen/mapaccess.go:131)	MOVL	AX, command-line-arguments..autotmp_2+180(SP)
	0x006c 00108 (/home/xzl/work/golang-1.22/golang-1.22/test/codegen/mapaccess.go:138)	LEAQ	type:map[int64]int64(SB), AX
	0x0073 00115 (/home/xzl/work/golang-1.22/golang-1.22/test/codegen/mapaccess.go:138)	LEAQ	command-line-arguments..autotmp_2+168(SP), BX
	0x007b 00123 (/home/xzl/work/golang-1.22/golang-1.22/test/codegen/mapaccess.go:138)	XORL	CX, CX
	0x007d 00125 (/home/xzl/work/golang-1.22/golang-1.22/test/codegen/mapaccess.go:138)	NOP
	0x0080 00128 (/home/xzl/work/golang-1.22/golang-1.22/test/codegen/mapaccess.go:138)	CALL	runtime.mapassign_fast64(SB)
	0x0085 00133 (/home/xzl/work/golang-1.22/golang-1.22/test/codegen/mapaccess.go:138)	ADDQ	$67890, (AX)
	0x008c 00140 (/home/xzl/work/golang-1.22/golang-1.22/test/codegen/mapaccess.go:144)	LEAQ	type:map[int64]int64(SB), AX
	0x0093 00147 (/home/xzl/work/golang-1.22/golang-1.22/test/codegen/mapaccess.go:144)	LEAQ	command-line-arguments..autotmp_2+168(SP), BX
	0x009b 00155 (/home/xzl/work/golang-1.22/golang-1.22/test/codegen/mapaccess.go:144)	XORL	CX, CX
	0x009d 00157 (/home/xzl/work/golang-1.22/golang-1.22/test/codegen/mapaccess.go:144)	NOP
	0x00a0 00160 (/home/xzl/work/golang-1.22/golang-1.22/test/codegen/mapaccess.go:144)	CALL	runtime.mapassign_fast64(SB)
	0x00a5 00165 (/home/xzl/work/golang-1.22/golang-1.22/test/codegen/mapaccess.go:144)	ADDQ	$-123, (AX)
	0x00a9 00169 (/home/xzl/work/golang-1.22/golang-1.22/test/codegen/mapaccess.go:150)	LEAQ	type:map[int64]int64(SB), AX
	0x00b0 00176 (/home/xzl/work/golang-1.22/golang-1.22/test/codegen/mapaccess.go:150)	LEAQ	command-line-arguments..autotmp_2+168(SP), BX
	0x00b8 00184 (/home/xzl/work/golang-1.22/golang-1.22/test/codegen/mapaccess.go:150)	XORL	CX, CX
	0x00ba 00186 (/home/xzl/work/golang-1.22/golang-1.22/test/codegen/mapaccess.go:150)	CALL	runtime.mapassign_fast64(SB)
	0x00bf 00191 (/home/xzl/work/golang-1.22/golang-1.22/test/codegen/mapaccess.go:150)	MOVQ	(AX), CX
	0x00c2 00194 (/home/xzl/work/golang-1.22/golang-1.22/test/codegen/mapaccess.go:150)	IMUL3Q	$456, CX, CX
	0x00c9 00201 (/home/xzl/work/golang-1.22/golang-1.22/test/codegen/mapaccess.go:150)	MOVQ	CX, (AX)
	0x00cc 00204 (/home/xzl/work/golang-1.22/golang-1.22/test/codegen/mapaccess.go:156)	LEAQ	type:map[int64]int64(SB), AX
	0x00d3 00211 (/home/xzl/work/golang-1.22/golang-1.22/test/codegen/mapaccess.go:156)	LEAQ	command-line-arguments..autotmp_2+168(SP), BX
	0x00db 00219 (/home/xzl/work/golang-1.22/golang-1.22/test/codegen/mapaccess.go:156)	XORL	CX, CX
	0x00dd 00221 (/home/xzl/work/golang-1.22/golang-1.22/test/codegen/mapaccess.go:156)	NOP
	0x00e0 00224 (/home/xzl/work/golang-1.22/golang-1.22/test/codegen/mapaccess.go:156)	CALL	runtime.mapassign_fast64(SB)
	0x00e5 00229 (/home/xzl/work/golang-1.22/golang-1.22/test/codegen/mapaccess.go:156)	ORQ	$78, (AX)
	0x00e9 00233 (/home/xzl/work/golang-1.22/golang-1.22/test/codegen/mapaccess.go:162)	LEAQ	type:map[int64]int64(SB), AX
	0x00f0 00240 (/home/xzl/work/golang-1.22/golang-1.22/test/codegen/mapaccess.go:162)	LEAQ	command-line-arguments..autotmp_2+168(SP), BX
	0x00f8 00248 (/home/xzl/work/golang-1.22/golang-1.22/test/codegen/mapaccess.go:162)	XORL	CX, CX
	0x00fa 00250 (/home/xzl/work/golang-1.22/golang-1.22/test/codegen/mapaccess.go:162)	CALL	runtime.mapassign_fast64(SB)
	0x00ff 00255 (/home/xzl/work/golang-1.22/golang-1.22/test/codegen/mapaccess.go:162)	XORQ	$89, (AX)
	0x0103 00259 (/home/xzl/work/golang-1.22/golang-1.22/test/codegen/mapaccess.go:168)	LEAQ	type:map[int64]int64(SB), AX
	0x010a 00266 (/home/xzl/work/golang-1.22/golang-1.22/test/codegen/mapaccess.go:168)	LEAQ	command-line-arguments..autotmp_2+168(SP), BX
	0x0112 00274 (/home/xzl/work/golang-1.22/golang-1.22/test/codegen/mapaccess.go:168)	XORL	CX, CX
	0x0114 00276 (/home/xzl/work/golang-1.22/golang-1.22/test/codegen/mapaccess.go:168)	CALL	runtime.mapassign_fast64(SB)
	0x0119 00281 (/home/xzl/work/golang-1.22/golang-1.22/test/codegen/mapaccess.go:168)	MOVQ	(AX), CX
	0x011c 00284 (/home/xzl/work/golang-1.22/golang-1.22/test/codegen/mapaccess.go:168)	SHLQ	$9, CX
	0x0120 00288 (/home/xzl/work/golang-1.22/golang-1.22/test/codegen/mapaccess.go:168)	MOVQ	CX, (AX)
	0x0123 00291 (/home/xzl/work/golang-1.22/golang-1.22/test/codegen/mapaccess.go:174)	LEAQ	type:map[int64]int64(SB), AX
	0x012a 00298 (/home/xzl/work/golang-1.22/golang-1.22/test/codegen/mapaccess.go:174)	LEAQ	command-line-arguments..autotmp_2+168(SP), BX
	0x0132 00306 (/home/xzl/work/golang-1.22/golang-1.22/test/codegen/mapaccess.go:174)	XORL	CX, CX
	0x0134 00308 (/home/xzl/work/golang-1.22/golang-1.22/test/codegen/mapaccess.go:174)	CALL	runtime.mapassign_fast64(SB)
	0x0139 00313 (/home/xzl/work/golang-1.22/golang-1.22/test/codegen/mapaccess.go:174)	MOVQ	(AX), CX
	0x013c 00316 (/home/xzl/work/golang-1.22/golang-1.22/test/codegen/mapaccess.go:174)	SARQ	$10, CX
	0x0140 00320 (/home/xzl/work/golang-1.22/golang-1.22/test/codegen/mapaccess.go:174)	MOVQ	CX, (AX)
	0x0143 00323 (/home/xzl/work/golang-1.22/golang-1.22/test/codegen/mapaccess.go:180)	LEAQ	type:map[int64]int64(SB), AX
	0x014a 00330 (/home/xzl/work/golang-1.22/golang-1.22/test/codegen/mapaccess.go:180)	LEAQ	command-line-arguments..autotmp_2+168(SP), BX
	0x0152 00338 (/home/xzl/work/golang-1.22/golang-1.22/test/codegen/mapaccess.go:180)	XORL	CX, CX
	0x0154 00340 (/home/xzl/work/golang-1.22/golang-1.22/test/codegen/mapaccess.go:180)	CALL	runtime.mapassign_fast64(SB)
	0x0159 00345 (/home/xzl/work/golang-1.22/golang-1.22/test/codegen/mapaccess.go:180)	INCQ	(AX)
	0x015c 00348 (/home/xzl/work/golang-1.22/golang-1.22/test/codegen/mapaccess.go:186)	LEAQ	type:map[int64]int64(SB), AX
	0x0163 00355 (/home/xzl/work/golang-1.22/golang-1.22/test/codegen/mapaccess.go:186)	LEAQ	command-line-arguments..autotmp_2+168(SP), BX
	0x016b 00363 (/home/xzl/work/golang-1.22/golang-1.22/test/codegen/mapaccess.go:186)	XORL	CX, CX
	0x016d 00365 (/home/xzl/work/golang-1.22/golang-1.22/test/codegen/mapaccess.go:186)	PCDATA	$1, $0
	0x016d 00365 (/home/xzl/work/golang-1.22/golang-1.22/test/codegen/mapaccess.go:186)	CALL	runtime.mapassign_fast64(SB)
	0x0172 00370 (/home/xzl/work/golang-1.22/golang-1.22/test/codegen/mapaccess.go:186)	DECQ	(AX)
	0x0175 00373 (/home/xzl/work/golang-1.22/golang-1.22/test/codegen/mapaccess.go:187)	ADDQ	$216, SP
	0x017c 00380 (/home/xzl/work/golang-1.22/golang-1.22/test/codegen/mapaccess.go:187)	POPQ	BP
	0x017d 00381 (/home/xzl/work/golang-1.22/golang-1.22/test/codegen/mapaccess.go:187)	RET
	0x017e 00382 (/home/xzl/work/golang-1.22/golang-1.22/test/codegen/mapaccess.go:187)	NOP
	0x017e 00382 (/home/xzl/work/golang-1.22/golang-1.22/test/codegen/mapaccess.go:130)	PCDATA	$1, $-1
	0x017e 00382 (/home/xzl/work/golang-1.22/golang-1.22/test/codegen/mapaccess.go:130)	PCDATA	$0, $-2
	0x017e 00382 (/home/xzl/work/golang-1.22/golang-1.22/test/codegen/mapaccess.go:130)	NOP
	0x0180 00384 (/home/xzl/work/golang-1.22/golang-1.22/test/codegen/mapaccess.go:130)	CALL	runtime.morestack_noctxt(SB)
	0x0185 00389 (/home/xzl/work/golang-1.22/golang-1.22/test/codegen/mapaccess.go:130)	PCDATA	$0, $-1
	0x0185 00389 (/home/xzl/work/golang-1.22/golang-1.22/test/codegen/mapaccess.go:130)	JMP	0
	0x0000 4c 8d 64 24 a0 4d 3b 66 10 0f 86 6f 01 00 00 55  L.d$.M;f...o...U
	0x0010 48 89 e5 48 81 ec d8 00 00 00 44 0f 11 bc 24 a8  H..H......D...$.
	0x0020 00 00 00 44 0f 11 bc 24 b8 00 00 00 44 0f 11 bc  ...D...$....D...
	0x0030 24 c8 00 00 00 48 8d 7c 24 18 48 8d 7f d0 66 90  $....H.|$.H...f.
	0x0040 48 89 6c 24 f0 48 8d 6c 24 f0 e8 00 00 00 00 48  H.l$.H.l$......H
	0x0050 8b 6d 00 48 8d 44 24 18 48 89 84 24 b8 00 00 00  .m.H.D$.H..$....
	0x0060 e8 00 00 00 00 89 84 24 b4 00 00 00 48 8d 05 00  .......$....H...
	0x0070 00 00 00 48 8d 9c 24 a8 00 00 00 31 c9 0f 1f 00  ...H..$....1....
	0x0080 e8 00 00 00 00 48 81 00 32 09 01 00 48 8d 05 00  .....H..2...H...
	0x0090 00 00 00 48 8d 9c 24 a8 00 00 00 31 c9 0f 1f 00  ...H..$....1....
	0x00a0 e8 00 00 00 00 48 83 00 85 48 8d 05 00 00 00 00  .....H...H......
	0x00b0 48 8d 9c 24 a8 00 00 00 31 c9 e8 00 00 00 00 48  H..$....1......H
	0x00c0 8b 08 48 69 c9 c8 01 00 00 48 89 08 48 8d 05 00  ..Hi.....H..H...
	0x00d0 00 00 00 48 8d 9c 24 a8 00 00 00 31 c9 0f 1f 00  ...H..$....1....
	0x00e0 e8 00 00 00 00 48 83 08 4e 48 8d 05 00 00 00 00  .....H..NH......
	0x00f0 48 8d 9c 24 a8 00 00 00 31 c9 e8 00 00 00 00 48  H..$....1......H
	0x0100 83 30 59 48 8d 05 00 00 00 00 48 8d 9c 24 a8 00  .0YH......H..$..
	0x0110 00 00 31 c9 e8 00 00 00 00 48 8b 08 48 c1 e1 09  ..1......H..H...
	0x0120 48 89 08 48 8d 05 00 00 00 00 48 8d 9c 24 a8 00  H..H......H..$..
	0x0130 00 00 31 c9 e8 00 00 00 00 48 8b 08 48 c1 f9 0a  ..1......H..H...
	0x0140 48 89 08 48 8d 05 00 00 00 00 48 8d 9c 24 a8 00  H..H......H..$..
	0x0150 00 00 31 c9 e8 00 00 00 00 48 ff 00 48 8d 05 00  ..1......H..H...
	0x0160 00 00 00 48 8d 9c 24 a8 00 00 00 31 c9 e8 00 00  ...H..$....1....
	0x0170 00 00 48 ff 08 48 81 c4 d8 00 00 00 5d c3 66 90  ..H..H......].f.
	0x0180 e8 00 00 00 00 e9 76 fe ff ff                    ......v...
	rel 75+4 t=R_CALL runtime.duffzero<1>+313
	rel 97+4 t=R_CALL runtime.rand32<1>+0
	rel 111+4 t=R_PCREL type:map[int64]int64<0>+0
	rel 129+4 t=R_CALL runtime.mapassign_fast64<1>+0
	rel 143+4 t=R_PCREL type:map[int64]int64<0>+0
	rel 161+4 t=R_CALL runtime.mapassign_fast64<1>+0
	rel 172+4 t=R_PCREL type:map[int64]int64<0>+0
	rel 187+4 t=R_CALL runtime.mapassign_fast64<1>+0
	rel 207+4 t=R_PCREL type:map[int64]int64<0>+0
	rel 225+4 t=R_CALL runtime.mapassign_fast64<1>+0
	rel 236+4 t=R_PCREL type:map[int64]int64<0>+0
	rel 251+4 t=R_CALL runtime.mapassign_fast64<1>+0
	rel 262+4 t=R_PCREL type:map[int64]int64<0>+0
	rel 277+4 t=R_CALL runtime.mapassign_fast64<1>+0
	rel 294+4 t=R_PCREL type:map[int64]int64<0>+0
	rel 309+4 t=R_CALL runtime.mapassign_fast64<1>+0
	rel 326+4 t=R_PCREL type:map[int64]int64<0>+0
	rel 341+4 t=R_CALL runtime.mapassign_fast64<1>+0
	rel 351+4 t=R_PCREL type:map[int64]int64<0>+0
	rel 366+4 t=R_CALL runtime.mapassign_fast64<1>+0
	rel 385+4 t=R_CALL runtime.morestack_noctxt<0>+0
command-line-arguments.mapCompoundAssignmentComplex128<1> STEXT size=574 args=0x0 locals=0x170 funcid=0x0 align=0x0
	0x0000 00000 (/home/xzl/work/golang-1.22/golang-1.22/test/codegen/mapaccess.go:189)	TEXT	command-line-arguments.mapCompoundAssignmentComplex128(SB), ABIInternal, $368-0
	0x0000 00000 (/home/xzl/work/golang-1.22/golang-1.22/test/codegen/mapaccess.go:189)	LEAQ	-240(SP), R12
	0x0008 00008 (/home/xzl/work/golang-1.22/golang-1.22/test/codegen/mapaccess.go:189)	CMPQ	R12, 16(R14)
	0x000c 00012 (/home/xzl/work/golang-1.22/golang-1.22/test/codegen/mapaccess.go:189)	PCDATA	$0, $-2
	0x000c 00012 (/home/xzl/work/golang-1.22/golang-1.22/test/codegen/mapaccess.go:189)	JLS	564
	0x0012 00018 (/home/xzl/work/golang-1.22/golang-1.22/test/codegen/mapaccess.go:189)	PCDATA	$0, $-1
	0x0012 00018 (/home/xzl/work/golang-1.22/golang-1.22/test/codegen/mapaccess.go:189)	PUSHQ	BP
	0x0013 00019 (/home/xzl/work/golang-1.22/golang-1.22/test/codegen/mapaccess.go:189)	MOVQ	SP, BP
	0x0016 00022 (/home/xzl/work/golang-1.22/golang-1.22/test/codegen/mapaccess.go:189)	SUBQ	$360, SP
	0x001d 00029 (/home/xzl/work/golang-1.22/golang-1.22/test/codegen/mapaccess.go:189)	FUNCDATA	$0, gclocals·J5F+7Qw7O7ve2QcWC7DpeQ==(SB)
	0x001d 00029 (/home/xzl/work/golang-1.22/golang-1.22/test/codegen/mapaccess.go:189)	FUNCDATA	$1, gclocals·Gi+ewyUrOze142o4ULSYMg==(SB)
	0x001d 00029 (/home/xzl/work/golang-1.22/golang-1.22/test/codegen/mapaccess.go:189)	FUNCDATA	$2, command-line-arguments.mapCompoundAssignmentComplex128.stkobj(SB)
	0x001d 00029 (/home/xzl/work/golang-1.22/golang-1.22/test/codegen/mapaccess.go:190)	MOVUPS	X15, command-line-arguments..autotmp_3+312(SP)
	0x0026 00038 (/home/xzl/work/golang-1.22/golang-1.22/test/codegen/mapaccess.go:190)	MOVUPS	X15, command-line-arguments..autotmp_3+328(SP)
	0x002f 00047 (/home/xzl/work/golang-1.22/golang-1.22/test/codegen/mapaccess.go:190)	MOVUPS	X15, command-line-arguments..autotmp_3+344(SP)
	0x0038 00056 (/home/xzl/work/golang-1.22/golang-1.22/test/codegen/mapaccess.go:190)	LEAQ	command-line-arguments..autotmp_4+24(SP), DI
	0x003d 00061 (/home/xzl/work/golang-1.22/golang-1.22/test/codegen/mapaccess.go:190)	PCDATA	$0, $-2
	0x003d 00061 (/home/xzl/work/golang-1.22/golang-1.22/test/codegen/mapaccess.go:190)	LEAQ	-48(DI), DI
	0x0041 00065 (/home/xzl/work/golang-1.22/golang-1.22/test/codegen/mapaccess.go:190)	DUFFZERO	$267
	0x0054 00084 (/home/xzl/work/golang-1.22/golang-1.22/test/codegen/mapaccess.go:190)	PCDATA	$0, $-1
	0x0054 00084 (/home/xzl/work/golang-1.22/golang-1.22/test/codegen/mapaccess.go:190)	LEAQ	command-line-arguments..autotmp_4+24(SP), AX
	0x0059 00089 (/home/xzl/work/golang-1.22/golang-1.22/test/codegen/mapaccess.go:190)	MOVQ	AX, command-line-arguments..autotmp_3+328(SP)
	0x0061 00097 (/home/xzl/work/golang-1.22/golang-1.22/test/codegen/mapaccess.go:190)	PCDATA	$1, $1
	0x0061 00097 (/home/xzl/work/golang-1.22/golang-1.22/test/codegen/mapaccess.go:190)	CALL	runtime.rand32(SB)
	0x0066 00102 (/home/xzl/work/golang-1.22/golang-1.22/test/codegen/mapaccess.go:190)	MOVL	AX, command-line-arguments..autotmp_3+324(SP)
	0x006d 00109 (/home/xzl/work/golang-1.22/golang-1.22/test/codegen/mapaccess.go:197)	XORPS	X0, X0
	0x0070 00112 (/home/xzl/work/golang-1.22/golang-1.22/test/codegen/mapaccess.go:197)	MOVSD	X0, command-line-arguments..autotmp_2+296(SP)
	0x0079 00121 (/home/xzl/work/golang-1.22/golang-1.22/test/codegen/mapaccess.go:197)	MOVSD	X0, command-line-arguments..autotmp_2+304(SP)
	0x0082 00130 (/home/xzl/work/golang-1.22/golang-1.22/test/codegen/mapaccess.go:197)	LEAQ	type:map[complex128]complex128(SB), AX
	0x0089 00137 (/home/xzl/work/golang-1.22/golang-1.22/test/codegen/mapaccess.go:197)	LEAQ	command-line-arguments..autotmp_3+312(SP), BX
	0x0091 00145 (/home/xzl/work/golang-1.22/golang-1.22/test/codegen/mapaccess.go:197)	LEAQ	command-line-arguments..autotmp_2+296(SP), CX
	0x0099 00153 (/home/xzl/work/golang-1.22/golang-1.22/test/codegen/mapaccess.go:197)	CALL	runtime.mapassign(SB)
	0x009e 00158 (/home/xzl/work/golang-1.22/golang-1.22/test/codegen/mapaccess.go:197)	MOVSD	8(AX), X0
	0x00a3 00163 (/home/xzl/work/golang-1.22/golang-1.22/test/codegen/mapaccess.go:197)	MOVSD	$f64.40f0932000000000(SB), X1
	0x00ab 00171 (/home/xzl/work/golang-1.22/golang-1.22/test/codegen/mapaccess.go:197)	ADDSD	(AX), X1
	0x00af 00175 (/home/xzl/work/golang-1.22/golang-1.22/test/codegen/mapaccess.go:197)	MOVSD	X1, (AX)
	0x00b3 00179 (/home/xzl/work/golang-1.22/golang-1.22/test/codegen/mapaccess.go:197)	XORPS	X1, X1
	0x00b6 00182 (/home/xzl/work/golang-1.22/golang-1.22/test/codegen/mapaccess.go:197)	ADDSD	X1, X0
	0x00ba 00186 (/home/xzl/work/golang-1.22/golang-1.22/test/codegen/mapaccess.go:197)	MOVSD	X0, 8(AX)
	0x00bf 00191 (/home/xzl/work/golang-1.22/golang-1.22/test/codegen/mapaccess.go:203)	MOVSD	X1, command-line-arguments..autotmp_2+296(SP)
	0x00c8 00200 (/home/xzl/work/golang-1.22/golang-1.22/test/codegen/mapaccess.go:203)	MOVSD	X1, command-line-arguments..autotmp_2+304(SP)
	0x00d1 00209 (/home/xzl/work/golang-1.22/golang-1.22/test/codegen/mapaccess.go:203)	LEAQ	type:map[complex128]complex128(SB), AX
	0x00d8 00216 (/home/xzl/work/golang-1.22/golang-1.22/test/codegen/mapaccess.go:203)	LEAQ	command-line-arguments..autotmp_3+312(SP), BX
	0x00e0 00224 (/home/xzl/work/golang-1.22/golang-1.22/test/codegen/mapaccess.go:203)	LEAQ	command-line-arguments..autotmp_2+296(SP), CX
	0x00e8 00232 (/home/xzl/work/golang-1.22/golang-1.22/test/codegen/mapaccess.go:203)	CALL	runtime.mapassign(SB)
	0x00ed 00237 (/home/xzl/work/golang-1.22/golang-1.22/test/codegen/mapaccess.go:203)	MOVSD	(AX), X0
	0x00f1 00241 (/home/xzl/work/golang-1.22/golang-1.22/test/codegen/mapaccess.go:203)	MOVSD	8(AX), X1
	0x00f6 00246 (/home/xzl/work/golang-1.22/golang-1.22/test/codegen/mapaccess.go:203)	MOVSD	$f64.405ec00000000000(SB), X2
	0x00fe 00254 (/home/xzl/work/golang-1.22/golang-1.22/test/codegen/mapaccess.go:203)	SUBSD	X2, X0
	0x0102 00258 (/home/xzl/work/golang-1.22/golang-1.22/test/codegen/mapaccess.go:203)	MOVSD	X0, (AX)
	0x0106 00262 (/home/xzl/work/golang-1.22/golang-1.22/test/codegen/mapaccess.go:203)	XORPS	X0, X0
	0x0109 00265 (/home/xzl/work/golang-1.22/golang-1.22/test/codegen/mapaccess.go:203)	SUBSD	X0, X1
	0x010d 00269 (/home/xzl/work/golang-1.22/golang-1.22/test/codegen/mapaccess.go:203)	MOVSD	X1, 8(AX)
	0x0112 00274 (/home/xzl/work/golang-1.22/golang-1.22/test/codegen/mapaccess.go:209)	MOVSD	X0, command-line-arguments..autotmp_2+296(SP)
	0x011b 00283 (/home/xzl/work/golang-1.22/golang-1.22/test/codegen/mapaccess.go:209)	MOVSD	X0, command-line-arguments..autotmp_2+304(SP)
	0x0124 00292 (/home/xzl/work/golang-1.22/golang-1.22/test/codegen/mapaccess.go:209)	LEAQ	type:map[complex128]complex128(SB), AX
	0x012b 00299 (/home/xzl/work/golang-1.22/golang-1.22/test/codegen/mapaccess.go:209)	LEAQ	command-line-arguments..autotmp_3+312(SP), BX
	0x0133 00307 (/home/xzl/work/golang-1.22/golang-1.22/test/codegen/mapaccess.go:209)	LEAQ	command-line-arguments..autotmp_2+296(SP), CX
	0x013b 00315 (/home/xzl/work/golang-1.22/golang-1.22/test/codegen/mapaccess.go:209)	NOP
	0x0140 00320 (/home/xzl/work/golang-1.22/golang-1.22/test/codegen/mapaccess.go:209)	CALL	runtime.mapassign(SB)
	0x0145 00325 (/home/xzl/work/golang-1.22/golang-1.22/test/codegen/mapaccess.go:209)	MOVSD	(AX), X0
	0x0149 00329 (/home/xzl/work/golang-1.22/golang-1.22/test/codegen/mapaccess.go:209)	MOVSD	8(AX), X1
	0x014e 00334 (/home/xzl/work/golang-1.22/golang-1.22/test/codegen/mapaccess.go:209)	MOVSD	$f64.407c800000000000(SB), X2
	0x0156 00342 (/home/xzl/work/golang-1.22/golang-1.22/test/codegen/mapaccess.go:209)	MULSD	X0, X2
	0x015a 00346 (/home/xzl/work/golang-1.22/golang-1.22/test/codegen/mapaccess.go:209)	XORPS	X3, X3
	0x015d 00349 (/home/xzl/work/golang-1.22/golang-1.22/test/codegen/mapaccess.go:209)	MULSD	X1, X3
	0x0161 00353 (/home/xzl/work/golang-1.22/golang-1.22/test/codegen/mapaccess.go:209)	SUBSD	X3, X2
	0x0165 00357 (/home/xzl/work/golang-1.22/golang-1.22/test/codegen/mapaccess.go:209)	MOVSD	X2, (AX)
	0x0169 00361 (/home/xzl/work/golang-1.22/golang-1.22/test/codegen/mapaccess.go:209)	XORPS	X2, X2
	0x016c 00364 (/home/xzl/work/golang-1.22/golang-1.22/test/codegen/mapaccess.go:209)	MULSD	X2, X0
	0x0170 00368 (/home/xzl/work/golang-1.22/golang-1.22/test/codegen/mapaccess.go:209)	MOVSD	$f64.407c800000000000(SB), X3
	0x0178 00376 (/home/xzl/work/golang-1.22/golang-1.22/test/codegen/mapaccess.go:209)	MULSD	X1, X3
	0x017c 00380 (/home/xzl/work/golang-1.22/golang-1.22/test/codegen/mapaccess.go:209)	ADDSD	X3, X0
	0x0180 00384 (/home/xzl/work/golang-1.22/golang-1.22/test/codegen/mapaccess.go:209)	MOVSD	X0, 8(AX)
	0x0185 00389 (/home/xzl/work/golang-1.22/golang-1.22/test/codegen/mapaccess.go:215)	MOVSD	X2, command-line-arguments..autotmp_2+296(SP)
	0x018e 00398 (/home/xzl/work/golang-1.22/golang-1.22/test/codegen/mapaccess.go:215)	MOVSD	X2, command-line-arguments..autotmp_2+304(SP)
	0x0197 00407 (/home/xzl/work/golang-1.22/golang-1.22/test/codegen/mapaccess.go:215)	LEAQ	type:map[complex128]complex128(SB), AX
	0x019e 00414 (/home/xzl/work/golang-1.22/golang-1.22/test/codegen/mapaccess.go:215)	LEAQ	command-line-arguments..autotmp_3+312(SP), BX
	0x01a6 00422 (/home/xzl/work/golang-1.22/golang-1.22/test/codegen/mapaccess.go:215)	LEAQ	command-line-arguments..autotmp_2+296(SP), CX
	0x01ae 00430 (/home/xzl/work/golang-1.22/golang-1.22/test/codegen/mapaccess.go:215)	CALL	runtime.mapassign(SB)
	0x01b3 00435 (/home/xzl/work/golang-1.22/golang-1.22/test/codegen/mapaccess.go:215)	MOVSD	(AX), X0
	0x01b7 00439 (/home/xzl/work/golang-1.22/golang-1.22/test/codegen/mapaccess.go:215)	MOVSD	8(AX), X1
	0x01bc 00444 (/home/xzl/work/golang-1.22/golang-1.22/test/codegen/mapaccess.go:215)	MOVSD	$f64.3ff0000000000000(SB), X2
	0x01c4 00452 (/home/xzl/work/golang-1.22/golang-1.22/test/codegen/mapaccess.go:215)	ADDSD	X2, X0
	0x01c8 00456 (/home/xzl/work/golang-1.22/golang-1.22/test/codegen/mapaccess.go:215)	MOVSD	X0, (AX)
	0x01cc 00460 (/home/xzl/work/golang-1.22/golang-1.22/test/codegen/mapaccess.go:215)	XORPS	X0, X0
	0x01cf 00463 (/home/xzl/work/golang-1.22/golang-1.22/test/codegen/mapaccess.go:215)	ADDSD	X0, X1
	0x01d3 00467 (/home/xzl/work/golang-1.22/golang-1.22/test/codegen/mapaccess.go:215)	MOVSD	X1, 8(AX)
	0x01d8 00472 (/home/xzl/work/golang-1.22/golang-1.22/test/codegen/mapaccess.go:221)	MOVSD	X0, command-line-arguments..autotmp_2+296(SP)
	0x01e1 00481 (/home/xzl/work/golang-1.22/golang-1.22/test/codegen/mapaccess.go:221)	MOVSD	X0, command-line-arguments..autotmp_2+304(SP)
	0x01ea 00490 (/home/xzl/work/golang-1.22/golang-1.22/test/codegen/mapaccess.go:221)	LEAQ	type:map[complex128]complex128(SB), AX
	0x01f1 00497 (/home/xzl/work/golang-1.22/golang-1.22/test/codegen/mapaccess.go:221)	LEAQ	command-line-arguments..autotmp_3+312(SP), BX
	0x01f9 00505 (/home/xzl/work/golang-1.22/golang-1.22/test/codegen/mapaccess.go:221)	LEAQ	command-line-arguments..autotmp_2+296(SP), CX
	0x0201 00513 (/home/xzl/work/golang-1.22/golang-1.22/test/codegen/mapaccess.go:221)	PCDATA	$1, $0
	0x0201 00513 (/home/xzl/work/golang-1.22/golang-1.22/test/codegen/mapaccess.go:221)	CALL	runtime.mapassign(SB)
	0x0206 00518 (/home/xzl/work/golang-1.22/golang-1.22/test/codegen/mapaccess.go:221)	MOVSD	(AX), X0
	0x020a 00522 (/home/xzl/work/golang-1.22/golang-1.22/test/codegen/mapaccess.go:221)	MOVSD	8(AX), X1
	0x020f 00527 (/home/xzl/work/golang-1.22/golang-1.22/test/codegen/mapaccess.go:221)	MOVSD	$f64.3ff0000000000000(SB), X2
	0x0217 00535 (/home/xzl/work/golang-1.22/golang-1.22/test/codegen/mapaccess.go:221)	SUBSD	X2, X0
	0x021b 00539 (/home/xzl/work/golang-1.22/golang-1.22/test/codegen/mapaccess.go:221)	MOVSD	X0, (AX)
	0x021f 00543 (/home/xzl/work/golang-1.22/golang-1.22/test/codegen/mapaccess.go:221)	XORPS	X0, X0
	0x0222 00546 (/home/xzl/work/golang-1.22/golang-1.22/test/codegen/mapaccess.go:221)	SUBSD	X0, X1
	0x0226 00550 (/home/xzl/work/golang-1.22/golang-1.22/test/codegen/mapaccess.go:221)	MOVSD	X1, 8(AX)
	0x022b 00555 (/home/xzl/work/golang-1.22/golang-1.22/test/codegen/mapaccess.go:222)	ADDQ	$360, SP
	0x0232 00562 (/home/xzl/work/golang-1.22/golang-1.22/test/codegen/mapaccess.go:222)	POPQ	BP
	0x0233 00563 (/home/xzl/work/golang-1.22/golang-1.22/test/codegen/mapaccess.go:222)	RET
	0x0234 00564 (/home/xzl/work/golang-1.22/golang-1.22/test/codegen/mapaccess.go:222)	NOP
	0x0234 00564 (/home/xzl/work/golang-1.22/golang-1.22/test/codegen/mapaccess.go:189)	PCDATA	$1, $-1
	0x0234 00564 (/home/xzl/work/golang-1.22/golang-1.22/test/codegen/mapaccess.go:189)	PCDATA	$0, $-2
	0x0234 00564 (/home/xzl/work/golang-1.22/golang-1.22/test/codegen/mapaccess.go:189)	CALL	runtime.morestack_noctxt(SB)
	0x0239 00569 (/home/xzl/work/golang-1.22/golang-1.22/test/codegen/mapaccess.go:189)	PCDATA	$0, $-1
	0x0239 00569 (/home/xzl/work/golang-1.22/golang-1.22/test/codegen/mapaccess.go:189)	JMP	0
	0x0000 4c 8d a4 24 10 ff ff ff 4d 3b 66 10 0f 86 22 02  L..$....M;f...".
	0x0010 00 00 55 48 89 e5 48 81 ec 68 01 00 00 44 0f 11  ..UH..H..h...D..
	0x0020 bc 24 38 01 00 00 44 0f 11 bc 24 48 01 00 00 44  .$8...D...$H...D
	0x0030 0f 11 bc 24 58 01 00 00 48 8d 7c 24 18 48 8d 7f  ...$X...H.|$.H..
	0x0040 d0 48 89 6c 24 f0 48 8d 6c 24 f0 e8 00 00 00 00  .H.l$.H.l$......
	0x0050 48 8b 6d 00 48 8d 44 24 18 48 89 84 24 48 01 00  H.m.H.D$.H..$H..
	0x0060 00 e8 00 00 00 00 89 84 24 44 01 00 00 0f 57 c0  ........$D....W.
	0x0070 f2 0f 11 84 24 28 01 00 00 f2 0f 11 84 24 30 01  ....$(.......$0.
	0x0080 00 00 48 8d 05 00 00 00 00 48 8d 9c 24 38 01 00  ..H......H..$8..
	0x0090 00 48 8d 8c 24 28 01 00 00 e8 00 00 00 00 f2 0f  .H..$(..........
	0x00a0 10 40 08 f2 0f 10 0d 00 00 00 00 f2 0f 58 08 f2  .@...........X..
	0x00b0 0f 11 08 0f 57 c9 f2 0f 58 c1 f2 0f 11 40 08 f2  ....W...X....@..
	0x00c0 0f 11 8c 24 28 01 00 00 f2 0f 11 8c 24 30 01 00  ...$(.......$0..
	0x00d0 00 48 8d 05 00 00 00 00 48 8d 9c 24 38 01 00 00  .H......H..$8...
	0x00e0 48 8d 8c 24 28 01 00 00 e8 00 00 00 00 f2 0f 10  H..$(...........
	0x00f0 00 f2 0f 10 48 08 f2 0f 10 15 00 00 00 00 f2 0f  ....H...........
	0x0100 5c c2 f2 0f 11 00 0f 57 c0 f2 0f 5c c8 f2 0f 11  \......W...\....
	0x0110 48 08 f2 0f 11 84 24 28 01 00 00 f2 0f 11 84 24  H.....$(.......$
	0x0120 30 01 00 00 48 8d 05 00 00 00 00 48 8d 9c 24 38  0...H......H..$8
	0x0130 01 00 00 48 8d 8c 24 28 01 00 00 0f 1f 44 00 00  ...H..$(.....D..
	0x0140 e8 00 00 00 00 f2 0f 10 00 f2 0f 10 48 08 f2 0f  ............H...
	0x0150 10 15 00 00 00 00 f2 0f 59 d0 0f 57 db f2 0f 59  ........Y..W...Y
	0x0160 d9 f2 0f 5c d3 f2 0f 11 10 0f 57 d2 f2 0f 59 c2  ...\......W...Y.
	0x0170 f2 0f 10 1d 00 00 00 00 f2 0f 59 d9 f2 0f 58 c3  ..........Y...X.
	0x0180 f2 0f 11 40 08 f2 0f 11 94 24 28 01 00 00 f2 0f  ...@.....$(.....
	0x0190 11 94 24 30 01 00 00 48 8d 05 00 00 00 00 48 8d  ..$0...H......H.
	0x01a0 9c 24 38 01 00 00 48 8d 8c 24 28 01 00 00 e8 00  .$8...H..$(.....
	0x01b0 00 00 00 f2 0f 10 00 f2 0f 10 48 08 f2 0f 10 15  ..........H.....
	0x01c0 00 00 00 00 f2 0f 58 c2 f2 0f 11 00 0f 57 c0 f2  ......X......W..
	0x01d0 0f 58 c8 f2 0f 11 48 08 f2 0f 11 84 24 28 01 00  .X....H.....$(..
	0x01e0 00 f2 0f 11 84 24 30 01 00 00 48 8d 05 00 00 00  .....$0...H.....
	0x01f0 00 48 8d 9c 24 38 01 00 00 48 8d 8c 24 28 01 00  .H..$8...H..$(..
	0x0200 00 e8 00 00 00 00 f2 0f 10 00 f2 0f 10 48 08 f2  .............H..
	0x0210 0f 10 15 00 00 00 00 f2 0f 5c c2 f2 0f 11 00 0f  .........\......
	0x0220 57 c0 f2 0f 5c c8 f2 0f 11 48 08 48 81 c4 68 01  W...\....H.H..h.
	0x0230 00 00 5d c3 e8 00 00 00 00 e9 c2 fd ff ff        ..]...........
	rel 76+4 t=R_CALL runtime.duffzero<1>+267
	rel 98+4 t=R_CALL runtime.rand32<1>+0
	rel 133+4 t=R_PCREL type:map[complex128]complex128<0>+0
	rel 154+4 t=R_CALL runtime.mapassign<1>+0
	rel 167+4 t=R_PCREL $f64.40f0932000000000<0>+0
	rel 212+4 t=R_PCREL type:map[complex128]complex128<0>+0
	rel 233+4 t=R_CALL runtime.mapassign<1>+0
	rel 250+4 t=R_PCREL $f64.405ec00000000000<0>+0
	rel 295+4 t=R_PCREL type:map[complex128]complex128<0>+0
	rel 321+4 t=R_CALL runtime.mapassign<1>+0
	rel 338+4 t=R_PCREL $f64.407c800000000000<0>+0
	rel 372+4 t=R_PCREL $f64.407c800000000000<0>+0
	rel 410+4 t=R_PCREL type:map[complex128]complex128<0>+0
	rel 431+4 t=R_CALL runtime.mapassign<1>+0
	rel 448+4 t=R_PCREL $f64.3ff0000000000000<0>+0
	rel 493+4 t=R_PCREL type:map[complex128]complex128<0>+0
	rel 514+4 t=R_CALL runtime.mapassign<1>+0
	rel 531+4 t=R_PCREL $f64.3ff0000000000000<0>+0
	rel 565+4 t=R_CALL runtime.morestack_noctxt<0>+0
command-line-arguments.mapCompoundAssignmentString<1> STEXT size=234 args=0x0 locals=0x178 funcid=0x0 align=0x0
	0x0000 00000 (/home/xzl/work/golang-1.22/golang-1.22/test/codegen/mapaccess.go:224)	TEXT	command-line-arguments.mapCompoundAssignmentString(SB), ABIInternal, $376-0
	0x0000 00000 (/home/xzl/work/golang-1.22/golang-1.22/test/codegen/mapaccess.go:224)	LEAQ	-248(SP), R12
	0x0008 00008 (/home/xzl/work/golang-1.22/golang-1.22/test/codegen/mapaccess.go:224)	CMPQ	R12, 16(R14)
	0x000c 00012 (/home/xzl/work/golang-1.22/golang-1.22/test/codegen/mapaccess.go:224)	PCDATA	$0, $-2
	0x000c 00012 (/home/xzl/work/golang-1.22/golang-1.22/test/codegen/mapaccess.go:224)	JLS	223
	0x0012 00018 (/home/xzl/work/golang-1.22/golang-1.22/test/codegen/mapaccess.go:224)	PCDATA	$0, $-1
	0x0012 00018 (/home/xzl/work/golang-1.22/golang-1.22/test/codegen/mapaccess.go:224)	PUSHQ	BP
	0x0013 00019 (/home/xzl/work/golang-1.22/golang-1.22/test/codegen/mapaccess.go:224)	MOVQ	SP, BP
	0x0016 00022 (/home/xzl/work/golang-1.22/golang-1.22/test/codegen/mapaccess.go:224)	SUBQ	$368, SP
	0x001d 00029 (/home/xzl/work/golang-1.22/golang-1.22/test/codegen/mapaccess.go:224)	FUNCDATA	$0, gclocals·ykHN0vawYuq1dUW4zEe2gA==(SB)
	0x001d 00029 (/home/xzl/work/golang-1.22/golang-1.22/test/codegen/mapaccess.go:224)	FUNCDATA	$1, gclocals·ekgxGSRsRf7vwa/XiBCsGg==(SB)
	0x001d 00029 (/home/xzl/work/golang-1.22/golang-1.22/test/codegen/mapaccess.go:224)	FUNCDATA	$2, command-line-arguments.mapCompoundAssignmentString.stkobj(SB)
	0x001d 00029 (/home/xzl/work/golang-1.22/golang-1.22/test/codegen/mapaccess.go:225)	MOVUPS	X15, command-line-arguments..autotmp_2+312(SP)
	0x0026 00038 (/home/xzl/work/golang-1.22/golang-1.22/test/codegen/mapaccess.go:225)	MOVUPS	X15, command-line-arguments..autotmp_2+328(SP)
	0x002f 00047 (/home/xzl/work/golang-1.22/golang-1.22/test/codegen/mapaccess.go:225)	MOVUPS	X15, command-line-arguments..autotmp_2+344(SP)
	0x0038 00056 (/home/xzl/work/golang-1.22/golang-1.22/test/codegen/mapaccess.go:225)	LEAQ	command-line-arguments..autotmp_3+40(SP), DI
	0x003d 00061 (/home/xzl/work/golang-1.22/golang-1.22/test/codegen/mapaccess.go:225)	PCDATA	$0, $-2
	0x003d 00061 (/home/xzl/work/golang-1.22/golang-1.22/test/codegen/mapaccess.go:225)	LEAQ	-48(DI), DI
	0x0041 00065 (/home/xzl/work/golang-1.22/golang-1.22/test/codegen/mapaccess.go:225)	DUFFZERO	$267
	0x0054 00084 (/home/xzl/work/golang-1.22/golang-1.22/test/codegen/mapaccess.go:225)	PCDATA	$0, $-1
	0x0054 00084 (/home/xzl/work/golang-1.22/golang-1.22/test/codegen/mapaccess.go:225)	LEAQ	command-line-arguments..autotmp_3+40(SP), AX
	0x0059 00089 (/home/xzl/work/golang-1.22/golang-1.22/test/codegen/mapaccess.go:225)	MOVQ	AX, command-line-arguments..autotmp_2+328(SP)
	0x0061 00097 (/home/xzl/work/golang-1.22/golang-1.22/test/codegen/mapaccess.go:225)	PCDATA	$1, $1
	0x0061 00097 (/home/xzl/work/golang-1.22/golang-1.22/test/codegen/mapaccess.go:225)	CALL	runtime.rand32(SB)
	0x0066 00102 (/home/xzl/work/golang-1.22/golang-1.22/test/codegen/mapaccess.go:225)	MOVL	AX, command-line-arguments..autotmp_2+324(SP)
	0x006d 00109 (/home/xzl/work/golang-1.22/golang-1.22/test/codegen/mapaccess.go:232)	LEAQ	type:map[string]string(SB), AX
	0x0074 00116 (/home/xzl/work/golang-1.22/golang-1.22/test/codegen/mapaccess.go:232)	LEAQ	command-line-arguments..autotmp_2+312(SP), BX
	0x007c 00124 (/home/xzl/work/golang-1.22/golang-1.22/test/codegen/mapaccess.go:232)	LEAQ	go:string."key"(SB), CX
	0x0083 00131 (/home/xzl/work/golang-1.22/golang-1.22/test/codegen/mapaccess.go:232)	MOVL	$3, DI
	0x0088 00136 (/home/xzl/work/golang-1.22/golang-1.22/test/codegen/mapaccess.go:232)	PCDATA	$1, $0
	0x0088 00136 (/home/xzl/work/golang-1.22/golang-1.22/test/codegen/mapaccess.go:232)	CALL	runtime.mapassign_faststr(SB)
	0x008d 00141 (/home/xzl/work/golang-1.22/golang-1.22/test/codegen/mapaccess.go:232)	MOVQ	AX, command-line-arguments..autotmp_10+360(SP)
	0x0095 00149 (/home/xzl/work/golang-1.22/golang-1.22/test/codegen/mapaccess.go:232)	MOVQ	(AX), BX
	0x0098 00152 (/home/xzl/work/golang-1.22/golang-1.22/test/codegen/mapaccess.go:232)	MOVQ	8(AX), CX
	0x009c 00156 (/home/xzl/work/golang-1.22/golang-1.22/test/codegen/mapaccess.go:232)	LEAQ	go:string."value"(SB), DI
	0x00a3 00163 (/home/xzl/work/golang-1.22/golang-1.22/test/codegen/mapaccess.go:232)	MOVL	$5, SI
	0x00a8 00168 (/home/xzl/work/golang-1.22/golang-1.22/test/codegen/mapaccess.go:232)	XORL	AX, AX
	0x00aa 00170 (/home/xzl/work/golang-1.22/golang-1.22/test/codegen/mapaccess.go:232)	PCDATA	$1, $2
	0x00aa 00170 (/home/xzl/work/golang-1.22/golang-1.22/test/codegen/mapaccess.go:232)	CALL	runtime.concatstring2(SB)
	0x00af 00175 (/home/xzl/work/golang-1.22/golang-1.22/test/codegen/mapaccess.go:232)	MOVQ	command-line-arguments..autotmp_10+360(SP), CX
	0x00b7 00183 (/home/xzl/work/golang-1.22/golang-1.22/test/codegen/mapaccess.go:232)	MOVQ	BX, 8(CX)
	0x00bb 00187 (/home/xzl/work/golang-1.22/golang-1.22/test/codegen/mapaccess.go:232)	CMPL	runtime.writeBarrier(SB), $0
	0x00c2 00194 (/home/xzl/work/golang-1.22/golang-1.22/test/codegen/mapaccess.go:232)	PCDATA	$0, $-2
	0x00c2 00194 (/home/xzl/work/golang-1.22/golang-1.22/test/codegen/mapaccess.go:232)	JEQ	211
	0x00c4 00196 (/home/xzl/work/golang-1.22/golang-1.22/test/codegen/mapaccess.go:232)	CALL	runtime.gcWriteBarrier2(SB)
	0x00c9 00201 (/home/xzl/work/golang-1.22/golang-1.22/test/codegen/mapaccess.go:232)	MOVQ	AX, (R11)
	0x00cc 00204 (/home/xzl/work/golang-1.22/golang-1.22/test/codegen/mapaccess.go:232)	MOVQ	(CX), DX
	0x00cf 00207 (/home/xzl/work/golang-1.22/golang-1.22/test/codegen/mapaccess.go:232)	MOVQ	DX, 8(R11)
	0x00d3 00211 (/home/xzl/work/golang-1.22/golang-1.22/test/codegen/mapaccess.go:232)	MOVQ	AX, (CX)
	0x00d6 00214 (/home/xzl/work/golang-1.22/golang-1.22/test/codegen/mapaccess.go:233)	PCDATA	$0, $-1
	0x00d6 00214 (/home/xzl/work/golang-1.22/golang-1.22/test/codegen/mapaccess.go:233)	ADDQ	$368, SP
	0x00dd 00221 (/home/xzl/work/golang-1.22/golang-1.22/test/codegen/mapaccess.go:233)	POPQ	BP
	0x00de 00222 (/home/xzl/work/golang-1.22/golang-1.22/test/codegen/mapaccess.go:233)	RET
	0x00df 00223 (/home/xzl/work/golang-1.22/golang-1.22/test/codegen/mapaccess.go:233)	NOP
	0x00df 00223 (/home/xzl/work/golang-1.22/golang-1.22/test/codegen/mapaccess.go:224)	PCDATA	$1, $-1
	0x00df 00223 (/home/xzl/work/golang-1.22/golang-1.22/test/codegen/mapaccess.go:224)	PCDATA	$0, $-2
	0x00df 00223 (/home/xzl/work/golang-1.22/golang-1.22/test/codegen/mapaccess.go:224)	NOP
	0x00e0 00224 (/home/xzl/work/golang-1.22/golang-1.22/test/codegen/mapaccess.go:224)	CALL	runtime.morestack_noctxt(SB)
	0x00e5 00229 (/home/xzl/work/golang-1.22/golang-1.22/test/codegen/mapaccess.go:224)	PCDATA	$0, $-1
	0x00e5 00229 (/home/xzl/work/golang-1.22/golang-1.22/test/codegen/mapaccess.go:224)	JMP	0
	0x0000 4c 8d a4 24 08 ff ff ff 4d 3b 66 10 0f 86 cd 00  L..$....M;f.....
	0x0010 00 00 55 48 89 e5 48 81 ec 70 01 00 00 44 0f 11  ..UH..H..p...D..
	0x0020 bc 24 38 01 00 00 44 0f 11 bc 24 48 01 00 00 44  .$8...D...$H...D
	0x0030 0f 11 bc 24 58 01 00 00 48 8d 7c 24 28 48 8d 7f  ...$X...H.|$(H..
	0x0040 d0 48 89 6c 24 f0 48 8d 6c 24 f0 e8 00 00 00 00  .H.l$.H.l$......
	0x0050 48 8b 6d 00 48 8d 44 24 28 48 89 84 24 48 01 00  H.m.H.D$(H..$H..
	0x0060 00 e8 00 00 00 00 89 84 24 44 01 00 00 48 8d 05  ........$D...H..
	0x0070 00 00 00 00 48 8d 9c 24 38 01 00 00 48 8d 0d 00  ....H..$8...H...
	0x0080 00 00 00 bf 03 00 00 00 e8 00 00 00 00 48 89 84  .............H..
	0x0090 24 68 01 00 00 48 8b 18 48 8b 48 08 48 8d 3d 00  $h...H..H.H.H.=.
	0x00a0 00 00 00 be 05 00 00 00 31 c0 e8 00 00 00 00 48  ........1......H
	0x00b0 8b 8c 24 68 01 00 00 48 89 59 08 83 3d 00 00 00  ..$h...H.Y..=...
	0x00c0 00 00 74 0f e8 00 00 00 00 49 89 03 48 8b 11 49  ..t......I..H..I
	0x00d0 89 53 08 48 89 01 48 81 c4 70 01 00 00 5d c3 90  .S.H..H..p...]..
	0x00e0 e8 00 00 00 00 e9 16 ff ff ff                    ..........
	rel 76+4 t=R_CALL runtime.duffzero<1>+267
	rel 98+4 t=R_CALL runtime.rand32<1>+0
	rel 112+4 t=R_PCREL type:map[string]string<0>+0
	rel 127+4 t=R_PCREL go:string."key"<0>+0
	rel 137+4 t=R_CALL runtime.mapassign_faststr<1>+0
	rel 159+4 t=R_PCREL go:string."value"<0>+0
	rel 171+4 t=R_CALL runtime.concatstring2<1>+0
	rel 189+4 t=R_PCREL runtime.writeBarrier<0>+-1
	rel 197+4 t=R_CALL runtime.gcWriteBarrier2<1>+0
	rel 225+4 t=R_CALL runtime.morestack_noctxt<0>+0
command-line-arguments.mapAppendAssignmentInt8<1> STEXT size=1258 args=0x0 locals=0x1a8 funcid=0x0 align=0x0
	0x0000 00000 (/home/xzl/work/golang-1.22/golang-1.22/test/codegen/mapaccess.go:237)	TEXT	command-line-arguments.mapAppendAssignmentInt8(SB), ABIInternal, $424-0
	0x0000 00000 (/home/xzl/work/golang-1.22/golang-1.22/test/codegen/mapaccess.go:237)	LEAQ	-296(SP), R12
	0x0008 00008 (/home/xzl/work/golang-1.22/golang-1.22/test/codegen/mapaccess.go:237)	CMPQ	R12, 16(R14)
	0x000c 00012 (/home/xzl/work/golang-1.22/golang-1.22/test/codegen/mapaccess.go:237)	PCDATA	$0, $-2
	0x000c 00012 (/home/xzl/work/golang-1.22/golang-1.22/test/codegen/mapaccess.go:237)	JLS	1245
	0x0012 00018 (/home/xzl/work/golang-1.22/golang-1.22/test/codegen/mapaccess.go:237)	PCDATA	$0, $-1
	0x0012 00018 (/home/xzl/work/golang-1.22/golang-1.22/test/codegen/mapaccess.go:237)	PUSHQ	BP
	0x0013 00019 (/home/xzl/work/golang-1.22/golang-1.22/test/codegen/mapaccess.go:237)	MOVQ	SP, BP
	0x0016 00022 (/home/xzl/work/golang-1.22/golang-1.22/test/codegen/mapaccess.go:237)	SUBQ	$416, SP
	0x001d 00029 (/home/xzl/work/golang-1.22/golang-1.22/test/codegen/mapaccess.go:237)	FUNCDATA	$0, gclocals·Xu4NijPRinf///4s/1zhiQ==(SB)
	0x001d 00029 (/home/xzl/work/golang-1.22/golang-1.22/test/codegen/mapaccess.go:237)	FUNCDATA	$1, gclocals·tyf0mCx9eQdOggI3rwpiBA==(SB)
	0x001d 00029 (/home/xzl/work/golang-1.22/golang-1.22/test/codegen/mapaccess.go:237)	FUNCDATA	$2, command-line-arguments.mapAppendAssignmentInt8.stkobj(SB)
	0x001d 00029 (/home/xzl/work/golang-1.22/golang-1.22/test/codegen/mapaccess.go:238)	MOVUPS	X15, command-line-arguments..autotmp_6+304(SP)
	0x0026 00038 (/home/xzl/work/golang-1.22/golang-1.22/test/codegen/mapaccess.go:238)	MOVUPS	X15, command-line-arguments..autotmp_6+320(SP)
	0x002f 00047 (/home/xzl/work/golang-1.22/golang-1.22/test/codegen/mapaccess.go:238)	MOVUPS	X15, command-line-arguments..autotmp_6+336(SP)
	0x0038 00056 (/home/xzl/work/golang-1.22/golang-1.22/test/codegen/mapaccess.go:238)	MOVUPS	X15, command-line-arguments..autotmp_7+88(SP)
	0x003e 00062 (/home/xzl/work/golang-1.22/golang-1.22/test/codegen/mapaccess.go:238)	LEAQ	command-line-arguments..autotmp_7+96(SP), DI
	0x0043 00067 (/home/xzl/work/golang-1.22/golang-1.22/test/codegen/mapaccess.go:238)	PCDATA	$0, $-2
	0x0043 00067 (/home/xzl/work/golang-1.22/golang-1.22/test/codegen/mapaccess.go:238)	LEAQ	-48(DI), DI
	0x0047 00071 (/home/xzl/work/golang-1.22/golang-1.22/test/codegen/mapaccess.go:238)	DUFFZERO	$290
	0x005a 00090 (/home/xzl/work/golang-1.22/golang-1.22/test/codegen/mapaccess.go:238)	PCDATA	$0, $-1
	0x005a 00090 (/home/xzl/work/golang-1.22/golang-1.22/test/codegen/mapaccess.go:238)	LEAQ	command-line-arguments..autotmp_7+88(SP), AX
	0x005f 00095 (/home/xzl/work/golang-1.22/golang-1.22/test/codegen/mapaccess.go:238)	MOVQ	AX, command-line-arguments..autotmp_6+320(SP)
	0x0067 00103 (/home/xzl/work/golang-1.22/golang-1.22/test/codegen/mapaccess.go:238)	PCDATA	$1, $1
	0x0067 00103 (/home/xzl/work/golang-1.22/golang-1.22/test/codegen/mapaccess.go:238)	CALL	runtime.rand32(SB)
	0x006c 00108 (/home/xzl/work/golang-1.22/golang-1.22/test/codegen/mapaccess.go:238)	MOVL	AX, command-line-arguments..autotmp_6+316(SP)
	0x0073 00115 (/home/xzl/work/golang-1.22/golang-1.22/test/codegen/mapaccess.go:245)	MOVB	$0, command-line-arguments..autotmp_3+70(SP)
	0x0078 00120 (/home/xzl/work/golang-1.22/golang-1.22/test/codegen/mapaccess.go:245)	LEAQ	type:map[int8][]int8(SB), AX
	0x007f 00127 (/home/xzl/work/golang-1.22/golang-1.22/test/codegen/mapaccess.go:245)	LEAQ	command-line-arguments..autotmp_6+304(SP), BX
	0x0087 00135 (/home/xzl/work/golang-1.22/golang-1.22/test/codegen/mapaccess.go:245)	LEAQ	command-line-arguments..autotmp_3+70(SP), CX
	0x008c 00140 (/home/xzl/work/golang-1.22/golang-1.22/test/codegen/mapaccess.go:245)	CALL	runtime.mapassign(SB)
	0x0091 00145 (/home/xzl/work/golang-1.22/golang-1.22/test/codegen/mapaccess.go:245)	MOVQ	16(AX), CX
	0x0095 00149 (/home/xzl/work/golang-1.22/golang-1.22/test/codegen/mapaccess.go:245)	MOVQ	8(AX), BX
	0x0099 00153 (/home/xzl/work/golang-1.22/golang-1.22/test/codegen/mapaccess.go:245)	INCQ	BX
	0x009c 00156 (/home/xzl/work/golang-1.22/golang-1.22/test/codegen/mapaccess.go:245)	MOVQ	(AX), DX
	0x009f 00159 (/home/xzl/work/golang-1.22/golang-1.22/test/codegen/mapaccess.go:245)	NOP
	0x00a0 00160 (/home/xzl/work/golang-1.22/golang-1.22/test/codegen/mapaccess.go:245)	CMPQ	CX, BX
	0x00a3 00163 (/home/xzl/work/golang-1.22/golang-1.22/test/codegen/mapaccess.go:245)	JCC	245
	0x00a5 00165 (/home/xzl/work/golang-1.22/golang-1.22/test/codegen/mapaccess.go:245)	MOVQ	AX, command-line-arguments..autotmp_31+408(SP)
	0x00ad 00173 (/home/xzl/work/golang-1.22/golang-1.22/test/codegen/mapaccess.go:245)	MOVQ	DX, AX
	0x00b0 00176 (/home/xzl/work/golang-1.22/golang-1.22/test/codegen/mapaccess.go:245)	MOVL	$1, DI
	0x00b5 00181 (/home/xzl/work/golang-1.22/golang-1.22/test/codegen/mapaccess.go:245)	LEAQ	type:int8(SB), SI
	0x00bc 00188 (/home/xzl/work/golang-1.22/golang-1.22/test/codegen/mapaccess.go:245)	PCDATA	$1, $2
	0x00bc 00188 (/home/xzl/work/golang-1.22/golang-1.22/test/codegen/mapaccess.go:245)	NOP
	0x00c0 00192 (/home/xzl/work/golang-1.22/golang-1.22/test/codegen/mapaccess.go:245)	CALL	runtime.growslice(SB)
	0x00c5 00197 (/home/xzl/work/golang-1.22/golang-1.22/test/codegen/mapaccess.go:245)	MOVQ	command-line-arguments..autotmp_31+408(SP), DX
	0x00cd 00205 (/home/xzl/work/golang-1.22/golang-1.22/test/codegen/mapaccess.go:245)	MOVQ	CX, 16(DX)
	0x00d1 00209 (/home/xzl/work/golang-1.22/golang-1.22/test/codegen/mapaccess.go:245)	CMPL	runtime.writeBarrier(SB), $0
	0x00d8 00216 (/home/xzl/work/golang-1.22/golang-1.22/test/codegen/mapaccess.go:245)	PCDATA	$0, $-2
	0x00d8 00216 (/home/xzl/work/golang-1.22/golang-1.22/test/codegen/mapaccess.go:245)	JEQ	233
	0x00da 00218 (/home/xzl/work/golang-1.22/golang-1.22/test/codegen/mapaccess.go:245)	CALL	runtime.gcWriteBarrier2(SB)
	0x00df 00223 (/home/xzl/work/golang-1.22/golang-1.22/test/codegen/mapaccess.go:245)	MOVQ	AX, (R11)
	0x00e2 00226 (/home/xzl/work/golang-1.22/golang-1.22/test/codegen/mapaccess.go:245)	MOVQ	(DX), SI
	0x00e5 00229 (/home/xzl/work/golang-1.22/golang-1.22/test/codegen/mapaccess.go:245)	MOVQ	SI, 8(R11)
	0x00e9 00233 (/home/xzl/work/golang-1.22/golang-1.22/test/codegen/mapaccess.go:245)	MOVQ	AX, (DX)
	0x00ec 00236 (/home/xzl/work/golang-1.22/golang-1.22/test/codegen/mapaccess.go:245)	PCDATA	$0, $-1
	0x00ec 00236 (/home/xzl/work/golang-1.22/golang-1.22/test/codegen/mapaccess.go:245)	MOVQ	AX, CX
	0x00ef 00239 (/home/xzl/work/golang-1.22/golang-1.22/test/codegen/mapaccess.go:245)	MOVQ	DX, AX
	0x00f2 00242 (/home/xzl/work/golang-1.22/golang-1.22/test/codegen/mapaccess.go:245)	MOVQ	CX, DX
	0x00f5 00245 (/home/xzl/work/golang-1.22/golang-1.22/test/codegen/mapaccess.go:245)	MOVQ	BX, 8(AX)
	0x00f9 00249 (/home/xzl/work/golang-1.22/golang-1.22/test/codegen/mapaccess.go:245)	MOVB	$1, -1(BX)(DX*1)
	0x00fe 00254 (/home/xzl/work/golang-1.22/golang-1.22/test/codegen/mapaccess.go:251)	MOVB	$0, command-line-arguments..autotmp_3+70(SP)
	0x0103 00259 (/home/xzl/work/golang-1.22/golang-1.22/test/codegen/mapaccess.go:251)	LEAQ	type:map[int8][]int8(SB), AX
	0x010a 00266 (/home/xzl/work/golang-1.22/golang-1.22/test/codegen/mapaccess.go:251)	LEAQ	command-line-arguments..autotmp_6+304(SP), BX
	0x0112 00274 (/home/xzl/work/golang-1.22/golang-1.22/test/codegen/mapaccess.go:251)	LEAQ	command-line-arguments..autotmp_3+70(SP), CX
	0x0117 00279 (/home/xzl/work/golang-1.22/golang-1.22/test/codegen/mapaccess.go:251)	PCDATA	$1, $1
	0x0117 00279 (/home/xzl/work/golang-1.22/golang-1.22/test/codegen/mapaccess.go:251)	CALL	runtime.mapassign(SB)
	0x011c 00284 (/home/xzl/work/golang-1.22/golang-1.22/test/codegen/mapaccess.go:251)	MOVQ	16(AX), CX
	0x0120 00288 (/home/xzl/work/golang-1.22/golang-1.22/test/codegen/mapaccess.go:251)	MOVQ	8(AX), BX
	0x0124 00292 (/home/xzl/work/golang-1.22/golang-1.22/test/codegen/mapaccess.go:251)	ADDQ	$3, BX
	0x0128 00296 (/home/xzl/work/golang-1.22/golang-1.22/test/codegen/mapaccess.go:251)	MOVQ	(AX), DX
	0x012b 00299 (/home/xzl/work/golang-1.22/golang-1.22/test/codegen/mapaccess.go:251)	CMPQ	CX, BX
	0x012e 00302 (/home/xzl/work/golang-1.22/golang-1.22/test/codegen/mapaccess.go:251)	JCC	381
	0x0130 00304 (/home/xzl/work/golang-1.22/golang-1.22/test/codegen/mapaccess.go:251)	MOVQ	AX, command-line-arguments..autotmp_32+400(SP)
	0x0138 00312 (/home/xzl/work/golang-1.22/golang-1.22/test/codegen/mapaccess.go:251)	MOVQ	DX, AX
	0x013b 00315 (/home/xzl/work/golang-1.22/golang-1.22/test/codegen/mapaccess.go:251)	MOVL	$3, DI
	0x0140 00320 (/home/xzl/work/golang-1.22/golang-1.22/test/codegen/mapaccess.go:251)	LEAQ	type:int8(SB), SI
	0x0147 00327 (/home/xzl/work/golang-1.22/golang-1.22/test/codegen/mapaccess.go:251)	PCDATA	$1, $3
	0x0147 00327 (/home/xzl/work/golang-1.22/golang-1.22/test/codegen/mapaccess.go:251)	CALL	runtime.growslice(SB)
	0x014c 00332 (/home/xzl/work/golang-1.22/golang-1.22/test/codegen/mapaccess.go:251)	MOVQ	command-line-arguments..autotmp_32+400(SP), DX
	0x0154 00340 (/home/xzl/work/golang-1.22/golang-1.22/test/codegen/mapaccess.go:251)	MOVQ	CX, 16(DX)
	0x0158 00344 (/home/xzl/work/golang-1.22/golang-1.22/test/codegen/mapaccess.go:251)	CMPL	runtime.writeBarrier(SB), $0
	0x015f 00351 (/home/xzl/work/golang-1.22/golang-1.22/test/codegen/mapaccess.go:251)	PCDATA	$0, $-2
	0x015f 00351 (/home/xzl/work/golang-1.22/golang-1.22/test/codegen/mapaccess.go:251)	NOP
	0x0160 00352 (/home/xzl/work/golang-1.22/golang-1.22/test/codegen/mapaccess.go:251)	JEQ	369
	0x0162 00354 (/home/xzl/work/golang-1.22/golang-1.22/test/codegen/mapaccess.go:251)	CALL	runtime.gcWriteBarrier2(SB)
	0x0167 00359 (/home/xzl/work/golang-1.22/golang-1.22/test/codegen/mapaccess.go:251)	MOVQ	AX, (R11)
	0x016a 00362 (/home/xzl/work/golang-1.22/golang-1.22/test/codegen/mapaccess.go:251)	MOVQ	(DX), CX
	0x016d 00365 (/home/xzl/work/golang-1.22/golang-1.22/test/codegen/mapaccess.go:251)	MOVQ	CX, 8(R11)
	0x0171 00369 (/home/xzl/work/golang-1.22/golang-1.22/test/codegen/mapaccess.go:251)	MOVQ	AX, (DX)
	0x0174 00372 (/home/xzl/work/golang-1.22/golang-1.22/test/codegen/mapaccess.go:251)	PCDATA	$0, $-1
	0x0174 00372 (/home/xzl/work/golang-1.22/golang-1.22/test/codegen/mapaccess.go:251)	MOVQ	AX, CX
	0x0177 00375 (/home/xzl/work/golang-1.22/golang-1.22/test/codegen/mapaccess.go:251)	MOVQ	DX, AX
	0x017a 00378 (/home/xzl/work/golang-1.22/golang-1.22/test/codegen/mapaccess.go:251)	MOVQ	CX, DX
	0x017d 00381 (/home/xzl/work/golang-1.22/golang-1.22/test/codegen/mapaccess.go:251)	MOVQ	BX, 8(AX)
	0x0181 00385 (/home/xzl/work/golang-1.22/golang-1.22/test/codegen/mapaccess.go:251)	MOVB	$1, -3(BX)(DX*1)
	0x0186 00390 (/home/xzl/work/golang-1.22/golang-1.22/test/codegen/mapaccess.go:251)	MOVW	$770, -2(BX)(DX*1)
	0x018d 00397 (/home/xzl/work/golang-1.22/golang-1.22/test/codegen/mapaccess.go:253)	LEAQ	type:[4]int8(SB), AX
	0x0194 00404 (/home/xzl/work/golang-1.22/golang-1.22/test/codegen/mapaccess.go:253)	PCDATA	$1, $1
	0x0194 00404 (/home/xzl/work/golang-1.22/golang-1.22/test/codegen/mapaccess.go:253)	CALL	runtime.newobject(SB)
	0x0199 00409 (/home/xzl/work/golang-1.22/golang-1.22/test/codegen/mapaccess.go:253)	MOVQ	AX, command-line-arguments..autotmp_33+392(SP)
	0x01a1 00417 (/home/xzl/work/golang-1.22/golang-1.22/test/codegen/mapaccess.go:253)	MOVL	$591879, (AX)
	0x01a7 00423 (/home/xzl/work/golang-1.22/golang-1.22/test/codegen/mapaccess.go:259)	MOVB	$0, command-line-arguments..autotmp_3+70(SP)
	0x01ac 00428 (/home/xzl/work/golang-1.22/golang-1.22/test/codegen/mapaccess.go:259)	LEAQ	command-line-arguments..autotmp_6+304(SP), BX
	0x01b4 00436 (/home/xzl/work/golang-1.22/golang-1.22/test/codegen/mapaccess.go:259)	LEAQ	command-line-arguments..autotmp_3+70(SP), CX
	0x01b9 00441 (/home/xzl/work/golang-1.22/golang-1.22/test/codegen/mapaccess.go:259)	LEAQ	type:map[int8][]int8(SB), AX
	0x01c0 00448 (/home/xzl/work/golang-1.22/golang-1.22/test/codegen/mapaccess.go:259)	PCDATA	$1, $4
	0x01c0 00448 (/home/xzl/work/golang-1.22/golang-1.22/test/codegen/mapaccess.go:259)	CALL	runtime.mapassign(SB)
	0x01c5 00453 (/home/xzl/work/golang-1.22/golang-1.22/test/codegen/mapaccess.go:259)	MOVQ	16(AX), CX
	0x01c9 00457 (/home/xzl/work/golang-1.22/golang-1.22/test/codegen/mapaccess.go:259)	MOVQ	8(AX), BX
	0x01cd 00461 (/home/xzl/work/golang-1.22/golang-1.22/test/codegen/mapaccess.go:259)	LEAQ	4(BX), DX
	0x01d1 00465 (/home/xzl/work/golang-1.22/golang-1.22/test/codegen/mapaccess.go:259)	MOVQ	(AX), SI
	0x01d4 00468 (/home/xzl/work/golang-1.22/golang-1.22/test/codegen/mapaccess.go:259)	CMPQ	CX, DX
	0x01d7 00471 (/home/xzl/work/golang-1.22/golang-1.22/test/codegen/mapaccess.go:259)	JCC	528
	0x01d9 00473 (/home/xzl/work/golang-1.22/golang-1.22/test/codegen/mapaccess.go:259)	MOVQ	AX, command-line-arguments..autotmp_34+384(SP)
	0x01e1 00481 (/home/xzl/work/golang-1.22/golang-1.22/test/codegen/mapaccess.go:259)	MOVQ	BX, command-line-arguments..autotmp_35+80(SP)
	0x01e6 00486 (/home/xzl/work/golang-1.22/golang-1.22/test/codegen/mapaccess.go:259)	MOVQ	SI, AX
	0x01e9 00489 (/home/xzl/work/golang-1.22/golang-1.22/test/codegen/mapaccess.go:259)	MOVQ	DX, BX
	0x01ec 00492 (/home/xzl/work/golang-1.22/golang-1.22/test/codegen/mapaccess.go:259)	MOVL	$4, DI
	0x01f1 00497 (/home/xzl/work/golang-1.22/golang-1.22/test/codegen/mapaccess.go:259)	LEAQ	type:int8(SB), SI
	0x01f8 00504 (/home/xzl/work/golang-1.22/golang-1.22/test/codegen/mapaccess.go:259)	PCDATA	$1, $5
	0x01f8 00504 (/home/xzl/work/golang-1.22/golang-1.22/test/codegen/mapaccess.go:259)	CALL	runtime.growslice(SB)
	0x01fd 00509 (/home/xzl/work/golang-1.22/golang-1.22/test/codegen/mapaccess.go:259)	MOVQ	AX, SI
	0x0200 00512 (/home/xzl/work/golang-1.22/golang-1.22/test/codegen/mapaccess.go:259)	MOVQ	BX, DX
	0x0203 00515 (/home/xzl/work/golang-1.22/golang-1.22/test/codegen/mapaccess.go:259)	MOVQ	command-line-arguments..autotmp_34+384(SP), AX
	0x020b 00523 (/home/xzl/work/golang-1.22/golang-1.22/test/codegen/mapaccess.go:259)	MOVQ	command-line-arguments..autotmp_35+80(SP), BX
	0x0210 00528 (/home/xzl/work/golang-1.22/golang-1.22/test/codegen/mapaccess.go:259)	MOVQ	command-line-arguments..autotmp_33+392(SP), DI
	0x0218 00536 (/home/xzl/work/golang-1.22/golang-1.22/test/codegen/mapaccess.go:259)	MOVL	(DI), R8
	0x021b 00539 (/home/xzl/work/golang-1.22/golang-1.22/test/codegen/mapaccess.go:259)	MOVL	R8, (SI)(BX*1)
	0x021f 00543 (/home/xzl/work/golang-1.22/golang-1.22/test/codegen/mapaccess.go:259)	MOVQ	DX, 8(AX)
	0x0223 00547 (/home/xzl/work/golang-1.22/golang-1.22/test/codegen/mapaccess.go:259)	MOVQ	CX, 16(AX)
	0x0227 00551 (/home/xzl/work/golang-1.22/golang-1.22/test/codegen/mapaccess.go:259)	CMPL	runtime.writeBarrier(SB), $0
	0x022e 00558 (/home/xzl/work/golang-1.22/golang-1.22/test/codegen/mapaccess.go:259)	PCDATA	$0, $-2
	0x022e 00558 (/home/xzl/work/golang-1.22/golang-1.22/test/codegen/mapaccess.go:259)	JEQ	575
	0x0230 00560 (/home/xzl/work/golang-1.22/golang-1.22/test/codegen/mapaccess.go:259)	CALL	runtime.gcWriteBarrier2(SB)
	0x0235 00565 (/home/xzl/work/golang-1.22/golang-1.22/test/codegen/mapaccess.go:259)	MOVQ	SI, (R11)
	0x0238 00568 (/home/xzl/work/golang-1.22/golang-1.22/test/codegen/mapaccess.go:259)	MOVQ	(AX), DX
	0x023b 00571 (/home/xzl/work/golang-1.22/golang-1.22/test/codegen/mapaccess.go:259)	MOVQ	DX, 8(R11)
	0x023f 00575 (/home/xzl/work/golang-1.22/golang-1.22/test/codegen/mapaccess.go:259)	MOVQ	SI, (AX)
	0x0242 00578 (/home/xzl/work/golang-1.22/golang-1.22/test/codegen/mapaccess.go:267)	PCDATA	$0, $-1
	0x0242 00578 (/home/xzl/work/golang-1.22/golang-1.22/test/codegen/mapaccess.go:267)	MOVB	$0, command-line-arguments..autotmp_3+70(SP)
	0x0247 00583 (/home/xzl/work/golang-1.22/golang-1.22/test/codegen/mapaccess.go:267)	MOVB	$0, command-line-arguments..autotmp_4+69(SP)
	0x024c 00588 (/home/xzl/work/golang-1.22/golang-1.22/test/codegen/mapaccess.go:267)	LEAQ	type:map[int8][]int8(SB), AX
	0x0253 00595 (/home/xzl/work/golang-1.22/golang-1.22/test/codegen/mapaccess.go:267)	LEAQ	command-line-arguments..autotmp_6+304(SP), BX
	0x025b 00603 (/home/xzl/work/golang-1.22/golang-1.22/test/codegen/mapaccess.go:267)	LEAQ	command-line-arguments..autotmp_4+69(SP), CX
	0x0260 00608 (/home/xzl/work/golang-1.22/golang-1.22/test/codegen/mapaccess.go:267)	PCDATA	$1, $4
	0x0260 00608 (/home/xzl/work/golang-1.22/golang-1.22/test/codegen/mapaccess.go:267)	CALL	runtime.mapaccess1(SB)
	0x0265 00613 (/home/xzl/work/golang-1.22/golang-1.22/test/codegen/mapaccess.go:267)	MOVQ	8(AX), BX
	0x0269 00617 (/home/xzl/work/golang-1.22/golang-1.22/test/codegen/mapaccess.go:267)	LEAQ	4(BX), DX
	0x026d 00621 (/home/xzl/work/golang-1.22/golang-1.22/test/codegen/mapaccess.go:267)	MOVQ	(AX), SI
	0x0270 00624 (/home/xzl/work/golang-1.22/golang-1.22/test/codegen/mapaccess.go:267)	CMPQ	DX, $4
	0x0274 00628 (/home/xzl/work/golang-1.22/golang-1.22/test/codegen/mapaccess.go:267)	JHI	645
	0x0276 00630 (/home/xzl/work/golang-1.22/golang-1.22/test/codegen/mapaccess.go:267)	MOVQ	command-line-arguments..autotmp_33+392(SP), AX
	0x027e 00638 (/home/xzl/work/golang-1.22/golang-1.22/test/codegen/mapaccess.go:267)	MOVL	$4, CX
	0x0283 00643 (/home/xzl/work/golang-1.22/golang-1.22/test/codegen/mapaccess.go:267)	JMP	705
	0x0285 00645 (/home/xzl/work/golang-1.22/golang-1.22/test/codegen/mapaccess.go:267)	MOVQ	BX, command-line-arguments..autotmp_35+80(SP)
	0x028a 00650 (/home/xzl/work/golang-1.22/golang-1.22/test/codegen/mapaccess.go:267)	MOVQ	SI, command-line-arguments..autotmp_36+376(SP)
	0x0292 00658 (/home/xzl/work/golang-1.22/golang-1.22/test/codegen/mapaccess.go:267)	MOVQ	command-line-arguments..autotmp_33+392(SP), AX
	0x029a 00666 (/home/xzl/work/golang-1.22/golang-1.22/test/codegen/mapaccess.go:267)	MOVL	$4, CX
	0x029f 00671 (/home/xzl/work/golang-1.22/golang-1.22/test/codegen/mapaccess.go:267)	MOVQ	BX, DI
	0x02a2 00674 (/home/xzl/work/golang-1.22/golang-1.22/test/codegen/mapaccess.go:267)	LEAQ	type:int8(SB), SI
	0x02a9 00681 (/home/xzl/work/golang-1.22/golang-1.22/test/codegen/mapaccess.go:267)	MOVQ	DX, BX
	0x02ac 00684 (/home/xzl/work/golang-1.22/golang-1.22/test/codegen/mapaccess.go:267)	PCDATA	$1, $6
	0x02ac 00684 (/home/xzl/work/golang-1.22/golang-1.22/test/codegen/mapaccess.go:267)	CALL	runtime.growslice(SB)
	0x02b1 00689 (/home/xzl/work/golang-1.22/golang-1.22/test/codegen/mapaccess.go:267)	MOVQ	command-line-arguments..autotmp_36+376(SP), SI
	0x02b9 00697 (/home/xzl/work/golang-1.22/golang-1.22/test/codegen/mapaccess.go:267)	MOVQ	BX, DX
	0x02bc 00700 (/home/xzl/work/golang-1.22/golang-1.22/test/codegen/mapaccess.go:267)	MOVQ	command-line-arguments..autotmp_35+80(SP), BX
	0x02c1 00705 (/home/xzl/work/golang-1.22/golang-1.22/test/codegen/mapaccess.go:267)	MOVQ	CX, command-line-arguments..autotmp_35+80(SP)
	0x02c6 00710 (/home/xzl/work/golang-1.22/golang-1.22/test/codegen/mapaccess.go:267)	MOVQ	DX, command-line-arguments..autotmp_37+72(SP)
	0x02cb 00715 (/home/xzl/work/golang-1.22/golang-1.22/test/codegen/mapaccess.go:267)	MOVQ	AX, command-line-arguments..autotmp_38+368(SP)
	0x02d3 00723 (/home/xzl/work/golang-1.22/golang-1.22/test/codegen/mapaccess.go:267)	LEAQ	4(AX), DI
	0x02d7 00727 (/home/xzl/work/golang-1.22/golang-1.22/test/codegen/mapaccess.go:267)	MOVQ	DI, AX
	0x02da 00730 (/home/xzl/work/golang-1.22/golang-1.22/test/codegen/mapaccess.go:267)	MOVQ	BX, R9
	0x02dd 00733 (/home/xzl/work/golang-1.22/golang-1.22/test/codegen/mapaccess.go:267)	MOVQ	SI, BX
	0x02e0 00736 (/home/xzl/work/golang-1.22/golang-1.22/test/codegen/mapaccess.go:267)	MOVQ	R9, CX
	0x02e3 00739 (/home/xzl/work/golang-1.22/golang-1.22/test/codegen/mapaccess.go:267)	PCDATA	$1, $7
	0x02e3 00739 (/home/xzl/work/golang-1.22/golang-1.22/test/codegen/mapaccess.go:267)	CALL	runtime.memmove(SB)
	0x02e8 00744 (/home/xzl/work/golang-1.22/golang-1.22/test/codegen/mapaccess.go:267)	LEAQ	type:map[int8][]int8(SB), AX
	0x02ef 00751 (/home/xzl/work/golang-1.22/golang-1.22/test/codegen/mapaccess.go:267)	LEAQ	command-line-arguments..autotmp_6+304(SP), BX
	0x02f7 00759 (/home/xzl/work/golang-1.22/golang-1.22/test/codegen/mapaccess.go:267)	LEAQ	command-line-arguments..autotmp_3+70(SP), CX
	0x02fc 00764 (/home/xzl/work/golang-1.22/golang-1.22/test/codegen/mapaccess.go:267)	NOP
	0x0300 00768 (/home/xzl/work/golang-1.22/golang-1.22/test/codegen/mapaccess.go:267)	CALL	runtime.mapassign(SB)
	0x0305 00773 (/home/xzl/work/golang-1.22/golang-1.22/test/codegen/mapaccess.go:267)	MOVQ	command-line-arguments..autotmp_37+72(SP), DX
	0x030a 00778 (/home/xzl/work/golang-1.22/golang-1.22/test/codegen/mapaccess.go:267)	MOVQ	DX, 8(AX)
	0x030e 00782 (/home/xzl/work/golang-1.22/golang-1.22/test/codegen/mapaccess.go:267)	MOVQ	command-line-arguments..autotmp_35+80(SP), DX
	0x0313 00787 (/home/xzl/work/golang-1.22/golang-1.22/test/codegen/mapaccess.go:267)	MOVQ	DX, 16(AX)
	0x0317 00791 (/home/xzl/work/golang-1.22/golang-1.22/test/codegen/mapaccess.go:267)	CMPL	runtime.writeBarrier(SB), $0
	0x031e 00798 (/home/xzl/work/golang-1.22/golang-1.22/test/codegen/mapaccess.go:267)	PCDATA	$0, $-2
	0x031e 00798 (/home/xzl/work/golang-1.22/golang-1.22/test/codegen/mapaccess.go:267)	NOP
	0x0320 00800 (/home/xzl/work/golang-1.22/golang-1.22/test/codegen/mapaccess.go:267)	JNE	812
	0x0322 00802 (/home/xzl/work/golang-1.22/golang-1.22/test/codegen/mapaccess.go:267)	MOVQ	command-line-arguments..autotmp_38+368(SP), DX
	0x032a 00810 (/home/xzl/work/golang-1.22/golang-1.22/test/codegen/mapaccess.go:267)	JMP	835
	0x032c 00812 (/home/xzl/work/golang-1.22/golang-1.22/test/codegen/mapaccess.go:267)	CALL	runtime.gcWriteBarrier2(SB)
	0x0331 00817 (/home/xzl/work/golang-1.22/golang-1.22/test/codegen/mapaccess.go:267)	MOVQ	command-line-arguments..autotmp_38+368(SP), DX
	0x0339 00825 (/home/xzl/work/golang-1.22/golang-1.22/test/codegen/mapaccess.go:267)	MOVQ	DX, (R11)
	0x033c 00828 (/home/xzl/work/golang-1.22/golang-1.22/test/codegen/mapaccess.go:267)	MOVQ	(AX), SI
	0x033f 00831 (/home/xzl/work/golang-1.22/golang-1.22/test/codegen/mapaccess.go:267)	MOVQ	SI, 8(R11)
	0x0343 00835 (/home/xzl/work/golang-1.22/golang-1.22/test/codegen/mapaccess.go:267)	MOVQ	DX, (AX)
	0x0346 00838 (/home/xzl/work/golang-1.22/golang-1.22/test/codegen/mapaccess.go:273)	PCDATA	$0, $-1
	0x0346 00838 (/home/xzl/work/golang-1.22/golang-1.22/test/codegen/mapaccess.go:273)	MOVB	$0, command-line-arguments..autotmp_4+69(SP)
	0x034b 00843 (/home/xzl/work/golang-1.22/golang-1.22/test/codegen/mapaccess.go:273)	MOVB	$0, command-line-arguments..autotmp_3+70(SP)
	0x0350 00848 (/home/xzl/work/golang-1.22/golang-1.22/test/codegen/mapaccess.go:273)	LEAQ	type:map[int8][]int8(SB), AX
	0x0357 00855 (/home/xzl/work/golang-1.22/golang-1.22/test/codegen/mapaccess.go:273)	LEAQ	command-line-arguments..autotmp_6+304(SP), BX
	0x035f 00863 (/home/xzl/work/golang-1.22/golang-1.22/test/codegen/mapaccess.go:273)	LEAQ	command-line-arguments..autotmp_3+70(SP), CX
	0x0364 00868 (/home/xzl/work/golang-1.22/golang-1.22/test/codegen/mapaccess.go:273)	PCDATA	$1, $1
	0x0364 00868 (/home/xzl/work/golang-1.22/golang-1.22/test/codegen/mapaccess.go:273)	CALL	runtime.mapaccess1(SB)
	0x0369 00873 (/home/xzl/work/golang-1.22/golang-1.22/test/codegen/mapaccess.go:273)	MOVQ	16(AX), CX
	0x036d 00877 (/home/xzl/work/golang-1.22/golang-1.22/test/codegen/mapaccess.go:273)	MOVQ	8(AX), BX
	0x0371 00881 (/home/xzl/work/golang-1.22/golang-1.22/test/codegen/mapaccess.go:273)	INCQ	BX
	0x0374 00884 (/home/xzl/work/golang-1.22/golang-1.22/test/codegen/mapaccess.go:273)	MOVQ	(AX), AX
	0x0377 00887 (/home/xzl/work/golang-1.22/golang-1.22/test/codegen/mapaccess.go:273)	CMPQ	CX, BX
	0x037a 00890 (/home/xzl/work/golang-1.22/golang-1.22/test/codegen/mapaccess.go:273)	JCC	909
	0x037c 00892 (/home/xzl/work/golang-1.22/golang-1.22/test/codegen/mapaccess.go:273)	MOVL	$1, DI
	0x0381 00897 (/home/xzl/work/golang-1.22/golang-1.22/test/codegen/mapaccess.go:273)	LEAQ	type:int8(SB), SI
	0x0388 00904 (/home/xzl/work/golang-1.22/golang-1.22/test/codegen/mapaccess.go:273)	CALL	runtime.growslice(SB)
	0x038d 00909 (/home/xzl/work/golang-1.22/golang-1.22/test/codegen/mapaccess.go:273)	MOVQ	AX, command-line-arguments..autotmp_39+360(SP)
	0x0395 00917 (/home/xzl/work/golang-1.22/golang-1.22/test/codegen/mapaccess.go:273)	MOVQ	BX, command-line-arguments..autotmp_35+80(SP)
	0x039a 00922 (/home/xzl/work/golang-1.22/golang-1.22/test/codegen/mapaccess.go:273)	MOVQ	CX, command-line-arguments..autotmp_37+72(SP)
	0x039f 00927 (/home/xzl/work/golang-1.22/golang-1.22/test/codegen/mapaccess.go:273)	MOVB	$99, -1(BX)(AX*1)
	0x03a4 00932 (/home/xzl/work/golang-1.22/golang-1.22/test/codegen/mapaccess.go:273)	MOVBLZX	command-line-arguments..autotmp_4+69(SP), DX
	0x03a9 00937 (/home/xzl/work/golang-1.22/golang-1.22/test/codegen/mapaccess.go:273)	MOVB	DL, command-line-arguments..autotmp_25+71(SP)
	0x03ad 00941 (/home/xzl/work/golang-1.22/golang-1.22/test/codegen/mapaccess.go:273)	MOVBLZX	command-line-arguments.sinkAppend(SB), DX
	0x03b4 00948 (/home/xzl/work/golang-1.22/golang-1.22/test/codegen/mapaccess.go:273)	XORL	$1, DX
	0x03b7 00951 (/home/xzl/work/golang-1.22/golang-1.22/test/codegen/mapaccess.go:273)	MOVB	DL, command-line-arguments.sinkAppend(SB)
	0x03bd 00957 (/home/xzl/work/golang-1.22/golang-1.22/test/codegen/mapaccess.go:273)	LEAQ	type:map[int8][]int8(SB), AX
	0x03c4 00964 (/home/xzl/work/golang-1.22/golang-1.22/test/codegen/mapaccess.go:273)	LEAQ	command-line-arguments..autotmp_6+304(SP), BX
	0x03cc 00972 (/home/xzl/work/golang-1.22/golang-1.22/test/codegen/mapaccess.go:273)	LEAQ	command-line-arguments..autotmp_25+71(SP), CX
	0x03d1 00977 (/home/xzl/work/golang-1.22/golang-1.22/test/codegen/mapaccess.go:273)	PCDATA	$1, $8
	0x03d1 00977 (/home/xzl/work/golang-1.22/golang-1.22/test/codegen/mapaccess.go:273)	CALL	runtime.mapassign(SB)
	0x03d6 00982 (/home/xzl/work/golang-1.22/golang-1.22/test/codegen/mapaccess.go:273)	MOVQ	command-line-arguments..autotmp_35+80(SP), DX
	0x03db 00987 (/home/xzl/work/golang-1.22/golang-1.22/test/codegen/mapaccess.go:273)	MOVQ	DX, 8(AX)
	0x03df 00991 (/home/xzl/work/golang-1.22/golang-1.22/test/codegen/mapaccess.go:273)	MOVQ	command-line-arguments..autotmp_37+72(SP), DX
	0x03e4 00996 (/home/xzl/work/golang-1.22/golang-1.22/test/codegen/mapaccess.go:273)	MOVQ	DX, 16(AX)
	0x03e8 01000 (/home/xzl/work/golang-1.22/golang-1.22/test/codegen/mapaccess.go:273)	CMPL	runtime.writeBarrier(SB), $0
	0x03ef 01007 (/home/xzl/work/golang-1.22/golang-1.22/test/codegen/mapaccess.go:273)	PCDATA	$0, $-2
	0x03ef 01007 (/home/xzl/work/golang-1.22/golang-1.22/test/codegen/mapaccess.go:273)	JNE	1024
	0x03f1 01009 (/home/xzl/work/golang-1.22/golang-1.22/test/codegen/mapaccess.go:273)	MOVQ	command-line-arguments..autotmp_39+360(SP), DX
	0x03f9 01017 (/home/xzl/work/golang-1.22/golang-1.22/test/codegen/mapaccess.go:273)	JMP	1047
	0x03fb 01019 (/home/xzl/work/golang-1.22/golang-1.22/test/codegen/mapaccess.go:273)	NOP
	0x0400 01024 (/home/xzl/work/golang-1.22/golang-1.22/test/codegen/mapaccess.go:273)	CALL	runtime.gcWriteBarrier2(SB)
	0x0405 01029 (/home/xzl/work/golang-1.22/golang-1.22/test/codegen/mapaccess.go:273)	MOVQ	command-line-arguments..autotmp_39+360(SP), DX
	0x040d 01037 (/home/xzl/work/golang-1.22/golang-1.22/test/codegen/mapaccess.go:273)	MOVQ	DX, (R11)
	0x0410 01040 (/home/xzl/work/golang-1.22/golang-1.22/test/codegen/mapaccess.go:273)	MOVQ	(AX), SI
	0x0413 01043 (/home/xzl/work/golang-1.22/golang-1.22/test/codegen/mapaccess.go:273)	MOVQ	SI, 8(R11)
	0x0417 01047 (/home/xzl/work/golang-1.22/golang-1.22/test/codegen/mapaccess.go:273)	MOVQ	DX, (AX)
	0x041a 01050 (/home/xzl/work/golang-1.22/golang-1.22/test/codegen/mapaccess.go:279)	PCDATA	$0, $-1
	0x041a 01050 (/home/xzl/work/golang-1.22/golang-1.22/test/codegen/mapaccess.go:279)	MOVB	$0, command-line-arguments..autotmp_3+70(SP)
	0x041f 01055 (/home/xzl/work/golang-1.22/golang-1.22/test/codegen/mapaccess.go:279)	MOVB	$1, command-line-arguments..autotmp_4+69(SP)
	0x0424 01060 (/home/xzl/work/golang-1.22/golang-1.22/test/codegen/mapaccess.go:279)	LEAQ	type:map[int8][]int8(SB), AX
	0x042b 01067 (/home/xzl/work/golang-1.22/golang-1.22/test/codegen/mapaccess.go:279)	LEAQ	command-line-arguments..autotmp_6+304(SP), BX
	0x0433 01075 (/home/xzl/work/golang-1.22/golang-1.22/test/codegen/mapaccess.go:279)	LEAQ	command-line-arguments..autotmp_4+69(SP), CX
	0x0438 01080 (/home/xzl/work/golang-1.22/golang-1.22/test/codegen/mapaccess.go:279)	PCDATA	$1, $1
	0x0438 01080 (/home/xzl/work/golang-1.22/golang-1.22/test/codegen/mapaccess.go:279)	CALL	runtime.mapaccess1(SB)
	0x043d 01085 (/home/xzl/work/golang-1.22/golang-1.22/test/codegen/mapaccess.go:279)	MOVQ	16(AX), CX
	0x0441 01089 (/home/xzl/work/golang-1.22/golang-1.22/test/codegen/mapaccess.go:279)	MOVQ	8(AX), BX
	0x0445 01093 (/home/xzl/work/golang-1.22/golang-1.22/test/codegen/mapaccess.go:279)	INCQ	BX
	0x0448 01096 (/home/xzl/work/golang-1.22/golang-1.22/test/codegen/mapaccess.go:279)	MOVQ	(AX), AX
	0x044b 01099 (/home/xzl/work/golang-1.22/golang-1.22/test/codegen/mapaccess.go:279)	CMPQ	CX, BX
	0x044e 01102 (/home/xzl/work/golang-1.22/golang-1.22/test/codegen/mapaccess.go:279)	JCC	1125
	0x0450 01104 (/home/xzl/work/golang-1.22/golang-1.22/test/codegen/mapaccess.go:279)	MOVL	$1, DI
	0x0455 01109 (/home/xzl/work/golang-1.22/golang-1.22/test/codegen/mapaccess.go:279)	LEAQ	type:int8(SB), SI
	0x045c 01116 (/home/xzl/work/golang-1.22/golang-1.22/test/codegen/mapaccess.go:279)	NOP
	0x0460 01120 (/home/xzl/work/golang-1.22/golang-1.22/test/codegen/mapaccess.go:279)	CALL	runtime.growslice(SB)
	0x0465 01125 (/home/xzl/work/golang-1.22/golang-1.22/test/codegen/mapaccess.go:279)	MOVQ	AX, command-line-arguments..autotmp_40+352(SP)
	0x046d 01133 (/home/xzl/work/golang-1.22/golang-1.22/test/codegen/mapaccess.go:279)	MOVQ	BX, command-line-arguments..autotmp_35+80(SP)
	0x0472 01138 (/home/xzl/work/golang-1.22/golang-1.22/test/codegen/mapaccess.go:279)	MOVQ	CX, command-line-arguments..autotmp_37+72(SP)
	0x0477 01143 (/home/xzl/work/golang-1.22/golang-1.22/test/codegen/mapaccess.go:279)	MOVB	$100, -1(BX)(AX*1)
	0x047c 01148 (/home/xzl/work/golang-1.22/golang-1.22/test/codegen/mapaccess.go:279)	LEAQ	type:map[int8][]int8(SB), AX
	0x0483 01155 (/home/xzl/work/golang-1.22/golang-1.22/test/codegen/mapaccess.go:279)	LEAQ	command-line-arguments..autotmp_6+304(SP), BX
	0x048b 01163 (/home/xzl/work/golang-1.22/golang-1.22/test/codegen/mapaccess.go:279)	LEAQ	command-line-arguments..autotmp_3+70(SP), CX
	0x0490 01168 (/home/xzl/work/golang-1.22/golang-1.22/test/codegen/mapaccess.go:279)	PCDATA	$1, $9
	0x0490 01168 (/home/xzl/work/golang-1.22/golang-1.22/test/codegen/mapaccess.go:279)	CALL	runtime.mapassign(SB)
	0x0495 01173 (/home/xzl/work/golang-1.22/golang-1.22/test/codegen/mapaccess.go:279)	MOVQ	command-line-arguments..autotmp_35+80(SP), DX
	0x049a 01178 (/home/xzl/work/golang-1.22/golang-1.22/test/codegen/mapaccess.go:279)	MOVQ	DX, 8(AX)
	0x049e 01182 (/home/xzl/work/golang-1.22/golang-1.22/test/codegen/mapaccess.go:279)	MOVQ	command-line-arguments..autotmp_37+72(SP), DX
	0x04a3 01187 (/home/xzl/work/golang-1.22/golang-1.22/test/codegen/mapaccess.go:279)	MOVQ	DX, 16(AX)
	0x04a7 01191 (/home/xzl/work/golang-1.22/golang-1.22/test/codegen/mapaccess.go:279)	CMPL	runtime.writeBarrier(SB), $0
	0x04ae 01198 (/home/xzl/work/golang-1.22/golang-1.22/test/codegen/mapaccess.go:279)	PCDATA	$0, $-2
	0x04ae 01198 (/home/xzl/work/golang-1.22/golang-1.22/test/codegen/mapaccess.go:279)	JNE	1210
	0x04b0 01200 (/home/xzl/work/golang-1.22/golang-1.22/test/codegen/mapaccess.go:279)	MOVQ	command-line-arguments..autotmp_40+352(SP), CX
	0x04b8 01208 (/home/xzl/work/golang-1.22/golang-1.22/test/codegen/mapaccess.go:279)	JMP	1233
	0x04ba 01210 (/home/xzl/work/golang-1.22/golang-1.22/test/codegen/mapaccess.go:279)	CALL	runtime.gcWriteBarrier2(SB)
	0x04bf 01215 (/home/xzl/work/golang-1.22/golang-1.22/test/codegen/mapaccess.go:279)	MOVQ	command-line-arguments..autotmp_40+352(SP), CX
	0x04c7 01223 (/home/xzl/work/golang-1.22/golang-1.22/test/codegen/mapaccess.go:279)	MOVQ	CX, (R11)
	0x04ca 01226 (/home/xzl/work/golang-1.22/golang-1.22/test/codegen/mapaccess.go:279)	MOVQ	(AX), DX
	0x04cd 01229 (/home/xzl/work/golang-1.22/golang-1.22/test/codegen/mapaccess.go:279)	MOVQ	DX, 8(R11)
	0x04d1 01233 (/home/xzl/work/golang-1.22/golang-1.22/test/codegen/mapaccess.go:279)	MOVQ	CX, (AX)
	0x04d4 01236 (/home/xzl/work/golang-1.22/golang-1.22/test/codegen/mapaccess.go:280)	PCDATA	$0, $-1
	0x04d4 01236 (/home/xzl/work/golang-1.22/golang-1.22/test/codegen/mapaccess.go:280)	ADDQ	$416, SP
	0x04db 01243 (/home/xzl/work/golang-1.22/golang-1.22/test/codegen/mapaccess.go:280)	POPQ	BP
	0x04dc 01244 (/home/xzl/work/golang-1.22/golang-1.22/test/codegen/mapaccess.go:280)	RET
	0x04dd 01245 (/home/xzl/work/golang-1.22/golang-1.22/test/codegen/mapaccess.go:280)	NOP
	0x04dd 01245 (/home/xzl/work/golang-1.22/golang-1.22/test/codegen/mapaccess.go:237)	PCDATA	$1, $-1
	0x04dd 01245 (/home/xzl/work/golang-1.22/golang-1.22/test/codegen/mapaccess.go:237)	PCDATA	$0, $-2
	0x04dd 01245 (/home/xzl/work/golang-1.22/golang-1.22/test/codegen/mapaccess.go:237)	NOP
	0x04e0 01248 (/home/xzl/work/golang-1.22/golang-1.22/test/codegen/mapaccess.go:237)	CALL	runtime.morestack_noctxt(SB)
	0x04e5 01253 (/home/xzl/work/golang-1.22/golang-1.22/test/codegen/mapaccess.go:237)	PCDATA	$0, $-1
	0x04e5 01253 (/home/xzl/work/golang-1.22/golang-1.22/test/codegen/mapaccess.go:237)	JMP	0
	0x0000 4c 8d a4 24 d8 fe ff ff 4d 3b 66 10 0f 86 cb 04  L..$....M;f.....
	0x0010 00 00 55 48 89 e5 48 81 ec a0 01 00 00 44 0f 11  ..UH..H......D..
	0x0020 bc 24 30 01 00 00 44 0f 11 bc 24 40 01 00 00 44  .$0...D...$@...D
	0x0030 0f 11 bc 24 50 01 00 00 44 0f 11 7c 24 58 48 8d  ...$P...D..|$XH.
	0x0040 7c 24 60 48 8d 7f d0 48 89 6c 24 f0 48 8d 6c 24  |$`H...H.l$.H.l$
	0x0050 f0 e8 00 00 00 00 48 8b 6d 00 48 8d 44 24 58 48  ......H.m.H.D$XH
	0x0060 89 84 24 40 01 00 00 e8 00 00 00 00 89 84 24 3c  ..$@..........$<
	0x0070 01 00 00 c6 44 24 46 00 48 8d 05 00 00 00 00 48  ....D$F.H......H
	0x0080 8d 9c 24 30 01 00 00 48 8d 4c 24 46 e8 00 00 00  ..$0...H.L$F....
	0x0090 00 48 8b 48 10 48 8b 58 08 48 ff c3 48 8b 10 90  .H.H.H.X.H..H...
	0x00a0 48 39 d9 73 50 48 89 84 24 98 01 00 00 48 89 d0  H9.sPH..$....H..
	0x00b0 bf 01 00 00 00 48 8d 35 00 00 00 00 0f 1f 40 00  .....H.5......@.
	0x00c0 e8 00 00 00 00 48 8b 94 24 98 01 00 00 48 89 4a  .....H..$....H.J
	0x00d0 10 83 3d 00 00 00 00 00 74 0f e8 00 00 00 00 49  ..=.....t......I
	0x00e0 89 03 48 8b 32 49 89 73 08 48 89 02 48 89 c1 48  ..H.2I.s.H..H..H
	0x00f0 89 d0 48 89 ca 48 89 58 08 c6 44 13 ff 01 c6 44  ..H..H.X..D....D
	0x0100 24 46 00 48 8d 05 00 00 00 00 48 8d 9c 24 30 01  $F.H......H..$0.
	0x0110 00 00 48 8d 4c 24 46 e8 00 00 00 00 48 8b 48 10  ..H.L$F.....H.H.
	0x0120 48 8b 58 08 48 83 c3 03 48 8b 10 48 39 d9 73 4d  H.X.H...H..H9.sM
	0x0130 48 89 84 24 90 01 00 00 48 89 d0 bf 03 00 00 00  H..$....H.......
	0x0140 48 8d 35 00 00 00 00 e8 00 00 00 00 48 8b 94 24  H.5.........H..$
	0x0150 90 01 00 00 48 89 4a 10 83 3d 00 00 00 00 00 90  ....H.J..=......
	0x0160 74 0f e8 00 00 00 00 49 89 03 48 8b 0a 49 89 4b  t......I..H..I.K
	0x0170 08 48 89 02 48 89 c1 48 89 d0 48 89 ca 48 89 58  .H..H..H..H..H.X
	0x0180 08 c6 44 13 fd 01 66 c7 44 13 fe 02 03 48 8d 05  ..D...f.D....H..
	0x0190 00 00 00 00 e8 00 00 00 00 48 89 84 24 88 01 00  .........H..$...
	0x01a0 00 c7 00 07 08 09 00 c6 44 24 46 00 48 8d 9c 24  ........D$F.H..$
	0x01b0 30 01 00 00 48 8d 4c 24 46 48 8d 05 00 00 00 00  0...H.L$FH......
	0x01c0 e8 00 00 00 00 48 8b 48 10 48 8b 58 08 48 8d 53  .....H.H.H.X.H.S
	0x01d0 04 48 8b 30 48 39 d1 73 37 48 89 84 24 80 01 00  .H.0H9.s7H..$...
	0x01e0 00 48 89 5c 24 50 48 89 f0 48 89 d3 bf 04 00 00  .H.\$PH..H......
	0x01f0 00 48 8d 35 00 00 00 00 e8 00 00 00 00 48 89 c6  .H.5.........H..
	0x0200 48 89 da 48 8b 84 24 80 01 00 00 48 8b 5c 24 50  H..H..$....H.\$P
	0x0210 48 8b bc 24 88 01 00 00 44 8b 07 44 89 04 1e 48  H..$....D..D...H
	0x0220 89 50 08 48 89 48 10 83 3d 00 00 00 00 00 74 0f  .P.H.H..=.....t.
	0x0230 e8 00 00 00 00 49 89 33 48 8b 10 49 89 53 08 48  .....I.3H..I.S.H
	0x0240 89 30 c6 44 24 46 00 c6 44 24 45 00 48 8d 05 00  .0.D$F..D$E.H...
	0x0250 00 00 00 48 8d 9c 24 30 01 00 00 48 8d 4c 24 45  ...H..$0...H.L$E
	0x0260 e8 00 00 00 00 48 8b 58 08 48 8d 53 04 48 8b 30  .....H.X.H.S.H.0
	0x0270 48 83 fa 04 77 0f 48 8b 84 24 88 01 00 00 b9 04  H...w.H..$......
	0x0280 00 00 00 eb 3c 48 89 5c 24 50 48 89 b4 24 78 01  ....<H.\$PH..$x.
	0x0290 00 00 48 8b 84 24 88 01 00 00 b9 04 00 00 00 48  ..H..$.........H
	0x02a0 89 df 48 8d 35 00 00 00 00 48 89 d3 e8 00 00 00  ..H.5....H......
	0x02b0 00 48 8b b4 24 78 01 00 00 48 89 da 48 8b 5c 24  .H..$x...H..H.\$
	0x02c0 50 48 89 4c 24 50 48 89 54 24 48 48 89 84 24 70  PH.L$PH.T$HH..$p
	0x02d0 01 00 00 48 8d 78 04 48 89 f8 49 89 d9 48 89 f3  ...H.x.H..I..H..
	0x02e0 4c 89 c9 e8 00 00 00 00 48 8d 05 00 00 00 00 48  L.......H......H
	0x02f0 8d 9c 24 30 01 00 00 48 8d 4c 24 46 0f 1f 40 00  ..$0...H.L$F..@.
	0x0300 e8 00 00 00 00 48 8b 54 24 48 48 89 50 08 48 8b  .....H.T$HH.P.H.
	0x0310 54 24 50 48 89 50 10 83 3d 00 00 00 00 00 66 90  T$PH.P..=.....f.
	0x0320 75 0a 48 8b 94 24 70 01 00 00 eb 17 e8 00 00 00  u.H..$p.........
	0x0330 00 48 8b 94 24 70 01 00 00 49 89 13 48 8b 30 49  .H..$p...I..H.0I
	0x0340 89 73 08 48 89 10 c6 44 24 45 00 c6 44 24 46 00  .s.H...D$E..D$F.
	0x0350 48 8d 05 00 00 00 00 48 8d 9c 24 30 01 00 00 48  H......H..$0...H
	0x0360 8d 4c 24 46 e8 00 00 00 00 48 8b 48 10 48 8b 58  .L$F.....H.H.H.X
	0x0370 08 48 ff c3 48 8b 00 48 39 d9 73 11 bf 01 00 00  .H..H..H9.s.....
	0x0380 00 48 8d 35 00 00 00 00 e8 00 00 00 00 48 89 84  .H.5.........H..
	0x0390 24 68 01 00 00 48 89 5c 24 50 48 89 4c 24 48 c6  $h...H.\$PH.L$H.
	0x03a0 44 03 ff 63 0f b6 54 24 45 88 54 24 47 0f b6 15  D..c..T$E.T$G...
	0x03b0 00 00 00 00 83 f2 01 88 15 00 00 00 00 48 8d 05  .............H..
	0x03c0 00 00 00 00 48 8d 9c 24 30 01 00 00 48 8d 4c 24  ....H..$0...H.L$
	0x03d0 47 e8 00 00 00 00 48 8b 54 24 50 48 89 50 08 48  G.....H.T$PH.P.H
	0x03e0 8b 54 24 48 48 89 50 10 83 3d 00 00 00 00 00 75  .T$HH.P..=.....u
	0x03f0 0f 48 8b 94 24 68 01 00 00 eb 1c 0f 1f 44 00 00  .H..$h.......D..
	0x0400 e8 00 00 00 00 48 8b 94 24 68 01 00 00 49 89 13  .....H..$h...I..
	0x0410 48 8b 30 49 89 73 08 48 89 10 c6 44 24 46 00 c6  H.0I.s.H...D$F..
	0x0420 44 24 45 01 48 8d 05 00 00 00 00 48 8d 9c 24 30  D$E.H......H..$0
	0x0430 01 00 00 48 8d 4c 24 45 e8 00 00 00 00 48 8b 48  ...H.L$E.....H.H
	0x0440 10 48 8b 58 08 48 ff c3 48 8b 00 48 39 d9 73 15  .H.X.H..H..H9.s.
	0x0450 bf 01 00 00 00 48 8d 35 00 00 00 00 0f 1f 40 00  .....H.5......@.
	0x0460 e8 00 00 00 00 48 89 84 24 60 01 00 00 48 89 5c  .....H..$`...H.\
	0x0470 24 50 48 89 4c 24 48 c6 44 03 ff 64 48 8d 05 00  $PH.L$H.D..dH...
	0x0480 00 00 00 48 8d 9c 24 30 01 00 00 48 8d 4c 24 46  ...H..$0...H.L$F
	0x0490 e8 00 00 00 00 48 8b 54 24 50 48 89 50 08 48 8b  .....H.T$PH.P.H.
	0x04a0 54 24 48 48 89 50 10 83 3d 00 00 00 00 00 75 0a  T$HH.P..=.....u.
	0x04b0 48 8b 8c 24 60 01 00 00 eb 17 e8 00 00 00 00 48  H..$`..........H
	0x04c0 8b 8c 24 60 01 00 00 49 89 0b 48 8b 10 49 89 53  ..$`...I..H..I.S
	0x04d0 08 48 89 08 48 81 c4 a0 01 00 00 5d c3 0f 1f 00  .H..H......]....
	0x04e0 e8 00 00 00 00 e9 16 fb ff ff                    ..........
	rel 82+4 t=R_CALL runtime.duffzero<1>+290
	rel 104+4 t=R_CALL runtime.rand32<1>+0
	rel 123+4 t=R_PCREL type:map[int8][]int8<0>+0
	rel 141+4 t=R_CALL runtime.mapassign<1>+0
	rel 184+4 t=R_PCREL type:int8<0>+0
	rel 193+4 t=R_CALL runtime.growslice<1>+0
	rel 211+4 t=R_PCREL runtime.writeBarrier<0>+-1
	rel 219+4 t=R_CALL runtime.gcWriteBarrier2<1>+0
	rel 262+4 t=R_PCREL type:map[int8][]int8<0>+0
	rel 280+4 t=R_CALL runtime.mapassign<1>+0
	rel 323+4 t=R_PCREL type:int8<0>+0
	rel 328+4 t=R_CALL runtime.growslice<1>+0
	rel 346+4 t=R_PCREL runtime.writeBarrier<0>+-1
	rel 355+4 t=R_CALL runtime.gcWriteBarrier2<1>+0
	rel 400+4 t=R_PCREL type:[4]int8<0>+0
	rel 405+4 t=R_CALL runtime.newobject<1>+0
	rel 444+4 t=R_PCREL type:map[int8][]int8<0>+0
	rel 449+4 t=R_CALL runtime.mapassign<1>+0
	rel 500+4 t=R_PCREL type:int8<0>+0
	rel 505+4 t=R_CALL runtime.growslice<1>+0
	rel 553+4 t=R_PCREL runtime.writeBarrier<0>+-1
	rel 561+4 t=R_CALL runtime.gcWriteBarrier2<1>+0
	rel 591+4 t=R_PCREL type:map[int8][]int8<0>+0
	rel 609+4 t=R_CALL runtime.mapaccess1<1>+0
	rel 677+4 t=R_PCREL type:int8<0>+0
	rel 685+4 t=R_CALL runtime.growslice<1>+0
	rel 740+4 t=R_CALL runtime.memmove<1>+0
	rel 747+4 t=R_PCREL type:map[int8][]int8<0>+0
	rel 769+4 t=R_CALL runtime.mapassign<1>+0
	rel 793+4 t=R_PCREL runtime.writeBarrier<0>+-1
	rel 813+4 t=R_CALL runtime.gcWriteBarrier2<1>+0
	rel 851+4 t=R_PCREL type:map[int8][]int8<0>+0
	rel 869+4 t=R_CALL runtime.mapaccess1<1>+0
	rel 900+4 t=R_PCREL type:int8<0>+0
	rel 905+4 t=R_CALL runtime.growslice<1>+0
	rel 944+4 t=R_PCREL command-line-arguments.sinkAppend<0>+0
	rel 953+4 t=R_PCREL command-line-arguments.sinkAppend<0>+0
	rel 960+4 t=R_PCREL type:map[int8][]int8<0>+0
	rel 978+4 t=R_CALL runtime.mapassign<1>+0
	rel 1002+4 t=R_PCREL runtime.writeBarrier<0>+-1
	rel 1025+4 t=R_CALL runtime.gcWriteBarrier2<1>+0
	rel 1063+4 t=R_PCREL type:map[int8][]int8<0>+0
	rel 1081+4 t=R_CALL runtime.mapaccess1<1>+0
	rel 1112+4 t=R_PCREL type:int8<0>+0
	rel 1121+4 t=R_CALL runtime.growslice<1>+0
	rel 1151+4 t=R_PCREL type:map[int8][]int8<0>+0
	rel 1169+4 t=R_CALL runtime.mapassign<1>+0
	rel 1193+4 t=R_PCREL runtime.writeBarrier<0>+-1
	rel 1211+4 t=R_CALL runtime.gcWriteBarrier2<1>+0
	rel 1249+4 t=R_CALL runtime.morestack_noctxt<0>+0
command-line-arguments.mapAppendAssignmentInt32<1> STEXT size=1529 args=0x0 locals=0x1b0 funcid=0x0 align=0x0
	0x0000 00000 (/home/xzl/work/golang-1.22/golang-1.22/test/codegen/mapaccess.go:282)	TEXT	command-line-arguments.mapAppendAssignmentInt32(SB), ABIInternal, $432-0
	0x0000 00000 (/home/xzl/work/golang-1.22/golang-1.22/test/codegen/mapaccess.go:282)	LEAQ	-304(SP), R12
	0x0008 00008 (/home/xzl/work/golang-1.22/golang-1.22/test/codegen/mapaccess.go:282)	CMPQ	R12, 16(R14)
	0x000c 00012 (/home/xzl/work/golang-1.22/golang-1.22/test/codegen/mapaccess.go:282)	PCDATA	$0, $-2
	0x000c 00012 (/home/xzl/work/golang-1.22/golang-1.22/test/codegen/mapaccess.go:282)	JLS	1519
	0x0012 00018 (/home/xzl/work/golang-1.22/golang-1.22/test/codegen/mapaccess.go:282)	PCDATA	$0, $-1
	0x0012 00018 (/home/xzl/work/golang-1.22/golang-1.22/test/codegen/mapaccess.go:282)	PUSHQ	BP
	0x0013 00019 (/home/xzl/work/golang-1.22/golang-1.22/test/codegen/mapaccess.go:282)	MOVQ	SP, BP
	0x0016 00022 (/home/xzl/work/golang-1.22/golang-1.22/test/codegen/mapaccess.go:282)	SUBQ	$424, SP
	0x001d 00029 (/home/xzl/work/golang-1.22/golang-1.22/test/codegen/mapaccess.go:282)	FUNCDATA	$0, gclocals·Xu4NijPRinf///4s/1zhiQ==(SB)
	0x001d 00029 (/home/xzl/work/golang-1.22/golang-1.22/test/codegen/mapaccess.go:282)	FUNCDATA	$1, gclocals·ogRk5QoddqN+jRbFucd4xw==(SB)
	0x001d 00029 (/home/xzl/work/golang-1.22/golang-1.22/test/codegen/mapaccess.go:282)	FUNCDATA	$2, command-line-arguments.mapAppendAssignmentInt32.stkobj(SB)
	0x001d 00029 (/home/xzl/work/golang-1.22/golang-1.22/test/codegen/mapaccess.go:283)	MOVUPS	X15, command-line-arguments..autotmp_5+336(SP)
	0x0026 00038 (/home/xzl/work/golang-1.22/golang-1.22/test/codegen/mapaccess.go:283)	MOVUPS	X15, command-line-arguments..autotmp_5+352(SP)
	0x002f 00047 (/home/xzl/work/golang-1.22/golang-1.22/test/codegen/mapaccess.go:283)	MOVUPS	X15, command-line-arguments..autotmp_5+368(SP)
	0x0038 00056 (/home/xzl/work/golang-1.22/golang-1.22/test/codegen/mapaccess.go:283)	LEAQ	command-line-arguments..autotmp_6+80(SP), DI
	0x003d 00061 (/home/xzl/work/golang-1.22/golang-1.22/test/codegen/mapaccess.go:283)	PCDATA	$0, $-2
	0x003d 00061 (/home/xzl/work/golang-1.22/golang-1.22/test/codegen/mapaccess.go:283)	LEAQ	-16(DI), DI
	0x0041 00065 (/home/xzl/work/golang-1.22/golang-1.22/test/codegen/mapaccess.go:283)	DUFFZERO	$280
	0x0054 00084 (/home/xzl/work/golang-1.22/golang-1.22/test/codegen/mapaccess.go:283)	PCDATA	$0, $-1
	0x0054 00084 (/home/xzl/work/golang-1.22/golang-1.22/test/codegen/mapaccess.go:283)	LEAQ	command-line-arguments..autotmp_6+80(SP), AX
	0x0059 00089 (/home/xzl/work/golang-1.22/golang-1.22/test/codegen/mapaccess.go:283)	MOVQ	AX, command-line-arguments..autotmp_5+352(SP)
	0x0061 00097 (/home/xzl/work/golang-1.22/golang-1.22/test/codegen/mapaccess.go:283)	PCDATA	$1, $1
	0x0061 00097 (/home/xzl/work/golang-1.22/golang-1.22/test/codegen/mapaccess.go:283)	CALL	runtime.rand32(SB)
	0x0066 00102 (/home/xzl/work/golang-1.22/golang-1.22/test/codegen/mapaccess.go:283)	MOVL	AX, command-line-arguments..autotmp_5+348(SP)
	0x006d 00109 (/home/xzl/work/golang-1.22/golang-1.22/test/codegen/mapaccess.go:290)	LEAQ	type:map[int32][]int32(SB), AX
	0x0074 00116 (/home/xzl/work/golang-1.22/golang-1.22/test/codegen/mapaccess.go:290)	LEAQ	command-line-arguments..autotmp_5+336(SP), BX
	0x007c 00124 (/home/xzl/work/golang-1.22/golang-1.22/test/codegen/mapaccess.go:290)	XORL	CX, CX
	0x007e 00126 (/home/xzl/work/golang-1.22/golang-1.22/test/codegen/mapaccess.go:290)	NOP
	0x0080 00128 (/home/xzl/work/golang-1.22/golang-1.22/test/codegen/mapaccess.go:290)	CALL	runtime.mapassign_fast32(SB)
	0x0085 00133 (/home/xzl/work/golang-1.22/golang-1.22/test/codegen/mapaccess.go:290)	MOVQ	16(AX), CX
	0x0089 00137 (/home/xzl/work/golang-1.22/golang-1.22/test/codegen/mapaccess.go:290)	MOVQ	8(AX), BX
	0x008d 00141 (/home/xzl/work/golang-1.22/golang-1.22/test/codegen/mapaccess.go:290)	INCQ	BX
	0x0090 00144 (/home/xzl/work/golang-1.22/golang-1.22/test/codegen/mapaccess.go:290)	MOVQ	(AX), DX
	0x0093 00147 (/home/xzl/work/golang-1.22/golang-1.22/test/codegen/mapaccess.go:290)	CMPQ	CX, BX
	0x0096 00150 (/home/xzl/work/golang-1.22/golang-1.22/test/codegen/mapaccess.go:290)	JCC	228
	0x0098 00152 (/home/xzl/work/golang-1.22/golang-1.22/test/codegen/mapaccess.go:290)	MOVQ	AX, command-line-arguments..autotmp_44+416(SP)
	0x00a0 00160 (/home/xzl/work/golang-1.22/golang-1.22/test/codegen/mapaccess.go:290)	MOVQ	DX, AX
	0x00a3 00163 (/home/xzl/work/golang-1.22/golang-1.22/test/codegen/mapaccess.go:290)	MOVL	$1, DI
	0x00a8 00168 (/home/xzl/work/golang-1.22/golang-1.22/test/codegen/mapaccess.go:290)	LEAQ	type:int32(SB), SI
	0x00af 00175 (/home/xzl/work/golang-1.22/golang-1.22/test/codegen/mapaccess.go:290)	PCDATA	$1, $2
	0x00af 00175 (/home/xzl/work/golang-1.22/golang-1.22/test/codegen/mapaccess.go:290)	CALL	runtime.growslice(SB)
	0x00b4 00180 (/home/xzl/work/golang-1.22/golang-1.22/test/codegen/mapaccess.go:290)	MOVQ	command-line-arguments..autotmp_44+416(SP), DX
	0x00bc 00188 (/home/xzl/work/golang-1.22/golang-1.22/test/codegen/mapaccess.go:290)	MOVQ	CX, 16(DX)
	0x00c0 00192 (/home/xzl/work/golang-1.22/golang-1.22/test/codegen/mapaccess.go:290)	CMPL	runtime.writeBarrier(SB), $0
	0x00c7 00199 (/home/xzl/work/golang-1.22/golang-1.22/test/codegen/mapaccess.go:290)	PCDATA	$0, $-2
	0x00c7 00199 (/home/xzl/work/golang-1.22/golang-1.22/test/codegen/mapaccess.go:290)	JEQ	216
	0x00c9 00201 (/home/xzl/work/golang-1.22/golang-1.22/test/codegen/mapaccess.go:290)	CALL	runtime.gcWriteBarrier2(SB)
	0x00ce 00206 (/home/xzl/work/golang-1.22/golang-1.22/test/codegen/mapaccess.go:290)	MOVQ	AX, (R11)
	0x00d1 00209 (/home/xzl/work/golang-1.22/golang-1.22/test/codegen/mapaccess.go:290)	MOVQ	(DX), SI
	0x00d4 00212 (/home/xzl/work/golang-1.22/golang-1.22/test/codegen/mapaccess.go:290)	MOVQ	SI, 8(R11)
	0x00d8 00216 (/home/xzl/work/golang-1.22/golang-1.22/test/codegen/mapaccess.go:290)	MOVQ	AX, (DX)
	0x00db 00219 (/home/xzl/work/golang-1.22/golang-1.22/test/codegen/mapaccess.go:290)	PCDATA	$0, $-1
	0x00db 00219 (/home/xzl/work/golang-1.22/golang-1.22/test/codegen/mapaccess.go:290)	MOVQ	AX, CX
	0x00de 00222 (/home/xzl/work/golang-1.22/golang-1.22/test/codegen/mapaccess.go:290)	MOVQ	DX, AX
	0x00e1 00225 (/home/xzl/work/golang-1.22/golang-1.22/test/codegen/mapaccess.go:290)	MOVQ	CX, DX
	0x00e4 00228 (/home/xzl/work/golang-1.22/golang-1.22/test/codegen/mapaccess.go:290)	MOVQ	BX, 8(AX)
	0x00e8 00232 (/home/xzl/work/golang-1.22/golang-1.22/test/codegen/mapaccess.go:290)	MOVL	$1, -4(DX)(BX*4)
	0x00f0 00240 (/home/xzl/work/golang-1.22/golang-1.22/test/codegen/mapaccess.go:296)	LEAQ	type:map[int32][]int32(SB), AX
	0x00f7 00247 (/home/xzl/work/golang-1.22/golang-1.22/test/codegen/mapaccess.go:296)	LEAQ	command-line-arguments..autotmp_5+336(SP), BX
	0x00ff 00255 (/home/xzl/work/golang-1.22/golang-1.22/test/codegen/mapaccess.go:296)	XORL	CX, CX
	0x0101 00257 (/home/xzl/work/golang-1.22/golang-1.22/test/codegen/mapaccess.go:296)	PCDATA	$1, $1
	0x0101 00257 (/home/xzl/work/golang-1.22/golang-1.22/test/codegen/mapaccess.go:296)	CALL	runtime.mapassign_fast32(SB)
	0x0106 00262 (/home/xzl/work/golang-1.22/golang-1.22/test/codegen/mapaccess.go:296)	MOVQ	16(AX), CX
	0x010a 00266 (/home/xzl/work/golang-1.22/golang-1.22/test/codegen/mapaccess.go:296)	MOVQ	8(AX), BX
	0x010e 00270 (/home/xzl/work/golang-1.22/golang-1.22/test/codegen/mapaccess.go:296)	ADDQ	$3, BX
	0x0112 00274 (/home/xzl/work/golang-1.22/golang-1.22/test/codegen/mapaccess.go:296)	MOVQ	(AX), DX
	0x0115 00277 (/home/xzl/work/golang-1.22/golang-1.22/test/codegen/mapaccess.go:296)	CMPQ	CX, BX
	0x0118 00280 (/home/xzl/work/golang-1.22/golang-1.22/test/codegen/mapaccess.go:296)	JCC	358
	0x011a 00282 (/home/xzl/work/golang-1.22/golang-1.22/test/codegen/mapaccess.go:296)	MOVQ	AX, command-line-arguments..autotmp_45+408(SP)
	0x0122 00290 (/home/xzl/work/golang-1.22/golang-1.22/test/codegen/mapaccess.go:296)	MOVQ	DX, AX
	0x0125 00293 (/home/xzl/work/golang-1.22/golang-1.22/test/codegen/mapaccess.go:296)	MOVL	$3, DI
	0x012a 00298 (/home/xzl/work/golang-1.22/golang-1.22/test/codegen/mapaccess.go:296)	LEAQ	type:int32(SB), SI
	0x0131 00305 (/home/xzl/work/golang-1.22/golang-1.22/test/codegen/mapaccess.go:296)	PCDATA	$1, $3
	0x0131 00305 (/home/xzl/work/golang-1.22/golang-1.22/test/codegen/mapaccess.go:296)	CALL	runtime.growslice(SB)
	0x0136 00310 (/home/xzl/work/golang-1.22/golang-1.22/test/codegen/mapaccess.go:296)	MOVQ	command-line-arguments..autotmp_45+408(SP), DX
	0x013e 00318 (/home/xzl/work/golang-1.22/golang-1.22/test/codegen/mapaccess.go:296)	MOVQ	CX, 16(DX)
	0x0142 00322 (/home/xzl/work/golang-1.22/golang-1.22/test/codegen/mapaccess.go:296)	CMPL	runtime.writeBarrier(SB), $0
	0x0149 00329 (/home/xzl/work/golang-1.22/golang-1.22/test/codegen/mapaccess.go:296)	PCDATA	$0, $-2
	0x0149 00329 (/home/xzl/work/golang-1.22/golang-1.22/test/codegen/mapaccess.go:296)	JEQ	346
	0x014b 00331 (/home/xzl/work/golang-1.22/golang-1.22/test/codegen/mapaccess.go:296)	CALL	runtime.gcWriteBarrier2(SB)
	0x0150 00336 (/home/xzl/work/golang-1.22/golang-1.22/test/codegen/mapaccess.go:296)	MOVQ	AX, (R11)
	0x0153 00339 (/home/xzl/work/golang-1.22/golang-1.22/test/codegen/mapaccess.go:296)	MOVQ	(DX), CX
	0x0156 00342 (/home/xzl/work/golang-1.22/golang-1.22/test/codegen/mapaccess.go:296)	MOVQ	CX, 8(R11)
	0x015a 00346 (/home/xzl/work/golang-1.22/golang-1.22/test/codegen/mapaccess.go:296)	MOVQ	AX, (DX)
	0x015d 00349 (/home/xzl/work/golang-1.22/golang-1.22/test/codegen/mapaccess.go:296)	PCDATA	$0, $-1
	0x015d 00349 (/home/xzl/work/golang-1.22/golang-1.22/test/codegen/mapaccess.go:296)	MOVQ	AX, CX
	0x0160 00352 (/home/xzl/work/golang-1.22/golang-1.22/test/codegen/mapaccess.go:296)	MOVQ	DX, AX
	0x0163 00355 (/home/xzl/work/golang-1.22/golang-1.22/test/codegen/mapaccess.go:296)	MOVQ	CX, DX
	0x0166 00358 (/home/xzl/work/golang-1.22/golang-1.22/test/codegen/mapaccess.go:296)	MOVQ	BX, 8(AX)
	0x016a 00362 (/home/xzl/work/golang-1.22/golang-1.22/test/codegen/mapaccess.go:296)	MOVL	$1, -12(DX)(BX*4)
	0x0172 00370 (/home/xzl/work/golang-1.22/golang-1.22/test/codegen/mapaccess.go:296)	LEAQ	(DX)(BX*4), CX
	0x0176 00374 (/home/xzl/work/golang-1.22/golang-1.22/test/codegen/mapaccess.go:296)	LEAQ	-8(CX), CX
	0x017a 00378 (/home/xzl/work/golang-1.22/golang-1.22/test/codegen/mapaccess.go:296)	MOVQ	$12884901890, DX
	0x0184 00388 (/home/xzl/work/golang-1.22/golang-1.22/test/codegen/mapaccess.go:296)	MOVQ	DX, (CX)
	0x0187 00391 (/home/xzl/work/golang-1.22/golang-1.22/test/codegen/mapaccess.go:298)	LEAQ	type:[4]int32(SB), AX
	0x018e 00398 (/home/xzl/work/golang-1.22/golang-1.22/test/codegen/mapaccess.go:298)	PCDATA	$1, $1
	0x018e 00398 (/home/xzl/work/golang-1.22/golang-1.22/test/codegen/mapaccess.go:298)	CALL	runtime.newobject(SB)
	0x0193 00403 (/home/xzl/work/golang-1.22/golang-1.22/test/codegen/mapaccess.go:298)	MOVQ	AX, command-line-arguments..autotmp_46+400(SP)
	0x019b 00411 (/home/xzl/work/golang-1.22/golang-1.22/test/codegen/mapaccess.go:298)	MOVQ	$34359738375, CX
	0x01a5 00421 (/home/xzl/work/golang-1.22/golang-1.22/test/codegen/mapaccess.go:298)	MOVQ	CX, (AX)
	0x01a8 00424 (/home/xzl/work/golang-1.22/golang-1.22/test/codegen/mapaccess.go:298)	MOVQ	$9, 8(AX)
	0x01b0 00432 (/home/xzl/work/golang-1.22/golang-1.22/test/codegen/mapaccess.go:304)	LEAQ	command-line-arguments..autotmp_5+336(SP), BX
	0x01b8 00440 (/home/xzl/work/golang-1.22/golang-1.22/test/codegen/mapaccess.go:304)	XORL	CX, CX
	0x01ba 00442 (/home/xzl/work/golang-1.22/golang-1.22/test/codegen/mapaccess.go:304)	LEAQ	type:map[int32][]int32(SB), AX
	0x01c1 00449 (/home/xzl/work/golang-1.22/golang-1.22/test/codegen/mapaccess.go:304)	PCDATA	$1, $4
	0x01c1 00449 (/home/xzl/work/golang-1.22/golang-1.22/test/codegen/mapaccess.go:304)	CALL	runtime.mapassign_fast32(SB)
	0x01c6 00454 (/home/xzl/work/golang-1.22/golang-1.22/test/codegen/mapaccess.go:304)	MOVQ	16(AX), CX
	0x01ca 00458 (/home/xzl/work/golang-1.22/golang-1.22/test/codegen/mapaccess.go:304)	MOVQ	8(AX), BX
	0x01ce 00462 (/home/xzl/work/golang-1.22/golang-1.22/test/codegen/mapaccess.go:304)	LEAQ	4(BX), DX
	0x01d2 00466 (/home/xzl/work/golang-1.22/golang-1.22/test/codegen/mapaccess.go:304)	MOVQ	(AX), SI
	0x01d5 00469 (/home/xzl/work/golang-1.22/golang-1.22/test/codegen/mapaccess.go:304)	CMPQ	CX, DX
	0x01d8 00472 (/home/xzl/work/golang-1.22/golang-1.22/test/codegen/mapaccess.go:304)	JCC	529
	0x01da 00474 (/home/xzl/work/golang-1.22/golang-1.22/test/codegen/mapaccess.go:304)	MOVQ	AX, command-line-arguments..autotmp_47+392(SP)
	0x01e2 00482 (/home/xzl/work/golang-1.22/golang-1.22/test/codegen/mapaccess.go:304)	MOVQ	BX, command-line-arguments..autotmp_48+72(SP)
	0x01e7 00487 (/home/xzl/work/golang-1.22/golang-1.22/test/codegen/mapaccess.go:304)	MOVQ	SI, AX
	0x01ea 00490 (/home/xzl/work/golang-1.22/golang-1.22/test/codegen/mapaccess.go:304)	MOVQ	DX, BX
	0x01ed 00493 (/home/xzl/work/golang-1.22/golang-1.22/test/codegen/mapaccess.go:304)	MOVL	$4, DI
	0x01f2 00498 (/home/xzl/work/golang-1.22/golang-1.22/test/codegen/mapaccess.go:304)	LEAQ	type:int32(SB), SI
	0x01f9 00505 (/home/xzl/work/golang-1.22/golang-1.22/test/codegen/mapaccess.go:304)	PCDATA	$1, $5
	0x01f9 00505 (/home/xzl/work/golang-1.22/golang-1.22/test/codegen/mapaccess.go:304)	CALL	runtime.growslice(SB)
	0x01fe 00510 (/home/xzl/work/golang-1.22/golang-1.22/test/codegen/mapaccess.go:304)	MOVQ	AX, SI
	0x0201 00513 (/home/xzl/work/golang-1.22/golang-1.22/test/codegen/mapaccess.go:304)	MOVQ	BX, DX
	0x0204 00516 (/home/xzl/work/golang-1.22/golang-1.22/test/codegen/mapaccess.go:304)	MOVQ	command-line-arguments..autotmp_47+392(SP), AX
	0x020c 00524 (/home/xzl/work/golang-1.22/golang-1.22/test/codegen/mapaccess.go:304)	MOVQ	command-line-arguments..autotmp_48+72(SP), BX
	0x0211 00529 (/home/xzl/work/golang-1.22/golang-1.22/test/codegen/mapaccess.go:304)	LEAQ	(SI)(BX*4), DI
	0x0215 00533 (/home/xzl/work/golang-1.22/golang-1.22/test/codegen/mapaccess.go:304)	MOVQ	command-line-arguments..autotmp_46+400(SP), R8
	0x021d 00541 (/home/xzl/work/golang-1.22/golang-1.22/test/codegen/mapaccess.go:304)	MOVUPS	(R8), X0
	0x0221 00545 (/home/xzl/work/golang-1.22/golang-1.22/test/codegen/mapaccess.go:304)	MOVUPS	X0, (DI)
	0x0224 00548 (/home/xzl/work/golang-1.22/golang-1.22/test/codegen/mapaccess.go:304)	MOVQ	DX, 8(AX)
	0x0228 00552 (/home/xzl/work/golang-1.22/golang-1.22/test/codegen/mapaccess.go:304)	MOVQ	CX, 16(AX)
	0x022c 00556 (/home/xzl/work/golang-1.22/golang-1.22/test/codegen/mapaccess.go:304)	CMPL	runtime.writeBarrier(SB), $0
	0x0233 00563 (/home/xzl/work/golang-1.22/golang-1.22/test/codegen/mapaccess.go:304)	PCDATA	$0, $-2
	0x0233 00563 (/home/xzl/work/golang-1.22/golang-1.22/test/codegen/mapaccess.go:304)	JEQ	580
	0x0235 00565 (/home/xzl/work/golang-1.22/golang-1.22/test/codegen/mapaccess.go:304)	CALL	runtime.gcWriteBarrier2(SB)
	0x023a 00570 (/home/xzl/work/golang-1.22/golang-1.22/test/codegen/mapaccess.go:304)	MOVQ	SI, (R11)
	0x023d 00573 (/home/xzl/work/golang-1.22/golang-1.22/test/codegen/mapaccess.go:304)	MOVQ	(AX), DX
	0x0240 00576 (/home/xzl/work/golang-1.22/golang-1.22/test/codegen/mapaccess.go:304)	MOVQ	DX, 8(R11)
	0x0244 00580 (/home/xzl/work/golang-1.22/golang-1.22/test/codegen/mapaccess.go:304)	MOVQ	SI, (AX)
	0x0247 00583 (/home/xzl/work/golang-1.22/golang-1.22/test/codegen/mapaccess.go:310)	PCDATA	$0, $-1
	0x0247 00583 (/home/xzl/work/golang-1.22/golang-1.22/test/codegen/mapaccess.go:310)	LEAQ	type:map[int32][]int32(SB), AX
	0x024e 00590 (/home/xzl/work/golang-1.22/golang-1.22/test/codegen/mapaccess.go:310)	LEAQ	command-line-arguments..autotmp_5+336(SP), BX
	0x0256 00598 (/home/xzl/work/golang-1.22/golang-1.22/test/codegen/mapaccess.go:310)	MOVL	$1, CX
	0x025b 00603 (/home/xzl/work/golang-1.22/golang-1.22/test/codegen/mapaccess.go:310)	PCDATA	$1, $4
	0x025b 00603 (/home/xzl/work/golang-1.22/golang-1.22/test/codegen/mapaccess.go:310)	NOP
	0x0260 00608 (/home/xzl/work/golang-1.22/golang-1.22/test/codegen/mapaccess.go:310)	CALL	runtime.mapassign_fast32(SB)
	0x0265 00613 (/home/xzl/work/golang-1.22/golang-1.22/test/codegen/mapaccess.go:310)	MOVQ	16(AX), CX
	0x0269 00617 (/home/xzl/work/golang-1.22/golang-1.22/test/codegen/mapaccess.go:310)	MOVQ	8(AX), BX
	0x026d 00621 (/home/xzl/work/golang-1.22/golang-1.22/test/codegen/mapaccess.go:310)	LEAQ	4(BX), DX
	0x0271 00625 (/home/xzl/work/golang-1.22/golang-1.22/test/codegen/mapaccess.go:310)	MOVQ	(AX), SI
	0x0274 00628 (/home/xzl/work/golang-1.22/golang-1.22/test/codegen/mapaccess.go:310)	CMPQ	CX, DX
	0x0277 00631 (/home/xzl/work/golang-1.22/golang-1.22/test/codegen/mapaccess.go:310)	JCC	688
	0x0279 00633 (/home/xzl/work/golang-1.22/golang-1.22/test/codegen/mapaccess.go:310)	MOVQ	BX, command-line-arguments..autotmp_48+72(SP)
	0x027e 00638 (/home/xzl/work/golang-1.22/golang-1.22/test/codegen/mapaccess.go:310)	MOVQ	AX, command-line-arguments..autotmp_49+384(SP)
	0x0286 00646 (/home/xzl/work/golang-1.22/golang-1.22/test/codegen/mapaccess.go:310)	MOVQ	SI, AX
	0x0289 00649 (/home/xzl/work/golang-1.22/golang-1.22/test/codegen/mapaccess.go:310)	MOVQ	DX, BX
	0x028c 00652 (/home/xzl/work/golang-1.22/golang-1.22/test/codegen/mapaccess.go:310)	MOVL	$4, DI
	0x0291 00657 (/home/xzl/work/golang-1.22/golang-1.22/test/codegen/mapaccess.go:310)	LEAQ	type:int32(SB), SI
	0x0298 00664 (/home/xzl/work/golang-1.22/golang-1.22/test/codegen/mapaccess.go:310)	PCDATA	$1, $6
	0x0298 00664 (/home/xzl/work/golang-1.22/golang-1.22/test/codegen/mapaccess.go:310)	CALL	runtime.growslice(SB)
	0x029d 00669 (/home/xzl/work/golang-1.22/golang-1.22/test/codegen/mapaccess.go:310)	MOVQ	AX, SI
	0x02a0 00672 (/home/xzl/work/golang-1.22/golang-1.22/test/codegen/mapaccess.go:310)	MOVQ	BX, DX
	0x02a3 00675 (/home/xzl/work/golang-1.22/golang-1.22/test/codegen/mapaccess.go:310)	MOVQ	command-line-arguments..autotmp_49+384(SP), AX
	0x02ab 00683 (/home/xzl/work/golang-1.22/golang-1.22/test/codegen/mapaccess.go:310)	MOVQ	command-line-arguments..autotmp_48+72(SP), BX
	0x02b0 00688 (/home/xzl/work/golang-1.22/golang-1.22/test/codegen/mapaccess.go:310)	LEAQ	(SI)(BX*4), DI
	0x02b4 00692 (/home/xzl/work/golang-1.22/golang-1.22/test/codegen/mapaccess.go:310)	MOVQ	command-line-arguments..autotmp_46+400(SP), R8
	0x02bc 00700 (/home/xzl/work/golang-1.22/golang-1.22/test/codegen/mapaccess.go:310)	MOVUPS	(R8), X0
	0x02c0 00704 (/home/xzl/work/golang-1.22/golang-1.22/test/codegen/mapaccess.go:310)	MOVUPS	X0, (DI)
	0x02c3 00707 (/home/xzl/work/golang-1.22/golang-1.22/test/codegen/mapaccess.go:310)	MOVQ	DX, 8(AX)
	0x02c7 00711 (/home/xzl/work/golang-1.22/golang-1.22/test/codegen/mapaccess.go:310)	MOVQ	CX, 16(AX)
	0x02cb 00715 (/home/xzl/work/golang-1.22/golang-1.22/test/codegen/mapaccess.go:310)	CMPL	runtime.writeBarrier(SB), $0
	0x02d2 00722 (/home/xzl/work/golang-1.22/golang-1.22/test/codegen/mapaccess.go:310)	PCDATA	$0, $-2
	0x02d2 00722 (/home/xzl/work/golang-1.22/golang-1.22/test/codegen/mapaccess.go:310)	JEQ	739
	0x02d4 00724 (/home/xzl/work/golang-1.22/golang-1.22/test/codegen/mapaccess.go:310)	CALL	runtime.gcWriteBarrier2(SB)
	0x02d9 00729 (/home/xzl/work/golang-1.22/golang-1.22/test/codegen/mapaccess.go:310)	MOVQ	SI, (R11)
	0x02dc 00732 (/home/xzl/work/golang-1.22/golang-1.22/test/codegen/mapaccess.go:310)	MOVQ	(AX), DX
	0x02df 00735 (/home/xzl/work/golang-1.22/golang-1.22/test/codegen/mapaccess.go:310)	MOVQ	DX, 8(R11)
	0x02e3 00739 (/home/xzl/work/golang-1.22/golang-1.22/test/codegen/mapaccess.go:310)	MOVQ	SI, (AX)
	0x02e6 00742 (/home/xzl/work/golang-1.22/golang-1.22/test/codegen/mapaccess.go:316)	PCDATA	$0, $-1
	0x02e6 00742 (/home/xzl/work/golang-1.22/golang-1.22/test/codegen/mapaccess.go:316)	LEAQ	type:map[int32][]int32(SB), AX
	0x02ed 00749 (/home/xzl/work/golang-1.22/golang-1.22/test/codegen/mapaccess.go:316)	LEAQ	command-line-arguments..autotmp_5+336(SP), BX
	0x02f5 00757 (/home/xzl/work/golang-1.22/golang-1.22/test/codegen/mapaccess.go:316)	XORL	CX, CX
	0x02f7 00759 (/home/xzl/work/golang-1.22/golang-1.22/test/codegen/mapaccess.go:316)	PCDATA	$1, $4
	0x02f7 00759 (/home/xzl/work/golang-1.22/golang-1.22/test/codegen/mapaccess.go:316)	CALL	runtime.mapassign_fast32(SB)
	0x02fc 00764 (/home/xzl/work/golang-1.22/golang-1.22/test/codegen/mapaccess.go:316)	MOVQ	16(AX), CX
	0x0300 00768 (/home/xzl/work/golang-1.22/golang-1.22/test/codegen/mapaccess.go:316)	MOVQ	8(AX), BX
	0x0304 00772 (/home/xzl/work/golang-1.22/golang-1.22/test/codegen/mapaccess.go:316)	LEAQ	4(BX), DX
	0x0308 00776 (/home/xzl/work/golang-1.22/golang-1.22/test/codegen/mapaccess.go:316)	MOVQ	(AX), SI
	0x030b 00779 (/home/xzl/work/golang-1.22/golang-1.22/test/codegen/mapaccess.go:316)	CMPQ	CX, DX
	0x030e 00782 (/home/xzl/work/golang-1.22/golang-1.22/test/codegen/mapaccess.go:316)	JCC	839
	0x0310 00784 (/home/xzl/work/golang-1.22/golang-1.22/test/codegen/mapaccess.go:316)	MOVQ	AX, command-line-arguments..autotmp_50+328(SP)
	0x0318 00792 (/home/xzl/work/golang-1.22/golang-1.22/test/codegen/mapaccess.go:316)	MOVQ	BX, command-line-arguments..autotmp_48+72(SP)
	0x031d 00797 (/home/xzl/work/golang-1.22/golang-1.22/test/codegen/mapaccess.go:316)	MOVQ	SI, AX
	0x0320 00800 (/home/xzl/work/golang-1.22/golang-1.22/test/codegen/mapaccess.go:316)	MOVQ	DX, BX
	0x0323 00803 (/home/xzl/work/golang-1.22/golang-1.22/test/codegen/mapaccess.go:316)	MOVL	$4, DI
	0x0328 00808 (/home/xzl/work/golang-1.22/golang-1.22/test/codegen/mapaccess.go:316)	LEAQ	type:int32(SB), SI
	0x032f 00815 (/home/xzl/work/golang-1.22/golang-1.22/test/codegen/mapaccess.go:316)	PCDATA	$1, $7
	0x032f 00815 (/home/xzl/work/golang-1.22/golang-1.22/test/codegen/mapaccess.go:316)	CALL	runtime.growslice(SB)
	0x0334 00820 (/home/xzl/work/golang-1.22/golang-1.22/test/codegen/mapaccess.go:316)	MOVQ	AX, SI
	0x0337 00823 (/home/xzl/work/golang-1.22/golang-1.22/test/codegen/mapaccess.go:316)	MOVQ	BX, DX
	0x033a 00826 (/home/xzl/work/golang-1.22/golang-1.22/test/codegen/mapaccess.go:316)	MOVQ	command-line-arguments..autotmp_50+328(SP), AX
	0x0342 00834 (/home/xzl/work/golang-1.22/golang-1.22/test/codegen/mapaccess.go:316)	MOVQ	command-line-arguments..autotmp_48+72(SP), BX
	0x0347 00839 (/home/xzl/work/golang-1.22/golang-1.22/test/codegen/mapaccess.go:316)	LEAQ	(SI)(BX*4), DI
	0x034b 00843 (/home/xzl/work/golang-1.22/golang-1.22/test/codegen/mapaccess.go:316)	MOVQ	command-line-arguments..autotmp_46+400(SP), R8
	0x0353 00851 (/home/xzl/work/golang-1.22/golang-1.22/test/codegen/mapaccess.go:316)	MOVUPS	(R8), X0
	0x0357 00855 (/home/xzl/work/golang-1.22/golang-1.22/test/codegen/mapaccess.go:316)	MOVUPS	X0, (DI)
	0x035a 00858 (/home/xzl/work/golang-1.22/golang-1.22/test/codegen/mapaccess.go:316)	MOVQ	DX, 8(AX)
	0x035e 00862 (/home/xzl/work/golang-1.22/golang-1.22/test/codegen/mapaccess.go:316)	MOVQ	CX, 16(AX)
	0x0362 00866 (/home/xzl/work/golang-1.22/golang-1.22/test/codegen/mapaccess.go:316)	CMPL	runtime.writeBarrier(SB), $0
	0x0369 00873 (/home/xzl/work/golang-1.22/golang-1.22/test/codegen/mapaccess.go:316)	PCDATA	$0, $-2
	0x0369 00873 (/home/xzl/work/golang-1.22/golang-1.22/test/codegen/mapaccess.go:316)	JEQ	890
	0x036b 00875 (/home/xzl/work/golang-1.22/golang-1.22/test/codegen/mapaccess.go:316)	CALL	runtime.gcWriteBarrier2(SB)
	0x0370 00880 (/home/xzl/work/golang-1.22/golang-1.22/test/codegen/mapaccess.go:316)	MOVQ	SI, (R11)
	0x0373 00883 (/home/xzl/work/golang-1.22/golang-1.22/test/codegen/mapaccess.go:316)	MOVQ	(AX), DX
	0x0376 00886 (/home/xzl/work/golang-1.22/golang-1.22/test/codegen/mapaccess.go:316)	MOVQ	DX, 8(R11)
	0x037a 00890 (/home/xzl/work/golang-1.22/golang-1.22/test/codegen/mapaccess.go:316)	MOVQ	SI, (AX)
	0x037d 00893 (/home/xzl/work/golang-1.22/golang-1.22/test/codegen/mapaccess.go:324)	PCDATA	$0, $-1
	0x037d 00893 (/home/xzl/work/golang-1.22/golang-1.22/test/codegen/mapaccess.go:324)	LEAQ	type:map[int32][]int32(SB), AX
	0x0384 00900 (/home/xzl/work/golang-1.22/golang-1.22/test/codegen/mapaccess.go:324)	LEAQ	command-line-arguments..autotmp_5+336(SP), BX
	0x038c 00908 (/home/xzl/work/golang-1.22/golang-1.22/test/codegen/mapaccess.go:324)	XORL	CX, CX
	0x038e 00910 (/home/xzl/work/golang-1.22/golang-1.22/test/codegen/mapaccess.go:324)	PCDATA	$1, $4
	0x038e 00910 (/home/xzl/work/golang-1.22/golang-1.22/test/codegen/mapaccess.go:324)	CALL	runtime.mapaccess1_fast32(SB)
	0x0393 00915 (/home/xzl/work/golang-1.22/golang-1.22/test/codegen/mapaccess.go:324)	MOVQ	8(AX), BX
	0x0397 00919 (/home/xzl/work/golang-1.22/golang-1.22/test/codegen/mapaccess.go:324)	LEAQ	4(BX), DX
	0x039b 00923 (/home/xzl/work/golang-1.22/golang-1.22/test/codegen/mapaccess.go:324)	MOVQ	(AX), SI
	0x039e 00926 (/home/xzl/work/golang-1.22/golang-1.22/test/codegen/mapaccess.go:324)	NOP
	0x03a0 00928 (/home/xzl/work/golang-1.22/golang-1.22/test/codegen/mapaccess.go:324)	CMPQ	DX, $4
	0x03a4 00932 (/home/xzl/work/golang-1.22/golang-1.22/test/codegen/mapaccess.go:324)	JHI	949
	0x03a6 00934 (/home/xzl/work/golang-1.22/golang-1.22/test/codegen/mapaccess.go:324)	MOVQ	command-line-arguments..autotmp_46+400(SP), AX
	0x03ae 00942 (/home/xzl/work/golang-1.22/golang-1.22/test/codegen/mapaccess.go:324)	MOVL	$4, CX
	0x03b3 00947 (/home/xzl/work/golang-1.22/golang-1.22/test/codegen/mapaccess.go:324)	JMP	1013
	0x03b5 00949 (/home/xzl/work/golang-1.22/golang-1.22/test/codegen/mapaccess.go:324)	MOVQ	BX, command-line-arguments..autotmp_48+72(SP)
	0x03ba 00954 (/home/xzl/work/golang-1.22/golang-1.22/test/codegen/mapaccess.go:324)	MOVQ	SI, command-line-arguments..autotmp_51+320(SP)
	0x03c2 00962 (/home/xzl/work/golang-1.22/golang-1.22/test/codegen/mapaccess.go:324)	MOVQ	command-line-arguments..autotmp_46+400(SP), AX
	0x03ca 00970 (/home/xzl/work/golang-1.22/golang-1.22/test/codegen/mapaccess.go:324)	MOVL	$4, CX
	0x03cf 00975 (/home/xzl/work/golang-1.22/golang-1.22/test/codegen/mapaccess.go:324)	MOVQ	BX, DI
	0x03d2 00978 (/home/xzl/work/golang-1.22/golang-1.22/test/codegen/mapaccess.go:324)	LEAQ	type:int32(SB), SI
	0x03d9 00985 (/home/xzl/work/golang-1.22/golang-1.22/test/codegen/mapaccess.go:324)	MOVQ	DX, BX
	0x03dc 00988 (/home/xzl/work/golang-1.22/golang-1.22/test/codegen/mapaccess.go:324)	PCDATA	$1, $8
	0x03dc 00988 (/home/xzl/work/golang-1.22/golang-1.22/test/codegen/mapaccess.go:324)	NOP
	0x03e0 00992 (/home/xzl/work/golang-1.22/golang-1.22/test/codegen/mapaccess.go:324)	CALL	runtime.growslice(SB)
	0x03e5 00997 (/home/xzl/work/golang-1.22/golang-1.22/test/codegen/mapaccess.go:324)	MOVQ	command-line-arguments..autotmp_51+320(SP), SI
	0x03ed 01005 (/home/xzl/work/golang-1.22/golang-1.22/test/codegen/mapaccess.go:324)	MOVQ	BX, DX
	0x03f0 01008 (/home/xzl/work/golang-1.22/golang-1.22/test/codegen/mapaccess.go:324)	MOVQ	command-line-arguments..autotmp_48+72(SP), BX
	0x03f5 01013 (/home/xzl/work/golang-1.22/golang-1.22/test/codegen/mapaccess.go:324)	MOVQ	CX, command-line-arguments..autotmp_48+72(SP)
	0x03fa 01018 (/home/xzl/work/golang-1.22/golang-1.22/test/codegen/mapaccess.go:324)	MOVQ	DX, command-line-arguments..autotmp_52+64(SP)
	0x03ff 01023 (/home/xzl/work/golang-1.22/golang-1.22/test/codegen/mapaccess.go:324)	MOVQ	AX, command-line-arguments..autotmp_51+320(SP)
	0x0407 01031 (/home/xzl/work/golang-1.22/golang-1.22/test/codegen/mapaccess.go:324)	SHLQ	$2, BX
	0x040b 01035 (/home/xzl/work/golang-1.22/golang-1.22/test/codegen/mapaccess.go:324)	LEAQ	16(AX), DI
	0x040f 01039 (/home/xzl/work/golang-1.22/golang-1.22/test/codegen/mapaccess.go:324)	MOVQ	DI, AX
	0x0412 01042 (/home/xzl/work/golang-1.22/golang-1.22/test/codegen/mapaccess.go:324)	MOVQ	BX, R9
	0x0415 01045 (/home/xzl/work/golang-1.22/golang-1.22/test/codegen/mapaccess.go:324)	MOVQ	SI, BX
	0x0418 01048 (/home/xzl/work/golang-1.22/golang-1.22/test/codegen/mapaccess.go:324)	MOVQ	R9, CX
	0x041b 01051 (/home/xzl/work/golang-1.22/golang-1.22/test/codegen/mapaccess.go:324)	NOP
	0x0420 01056 (/home/xzl/work/golang-1.22/golang-1.22/test/codegen/mapaccess.go:324)	CALL	runtime.memmove(SB)
	0x0425 01061 (/home/xzl/work/golang-1.22/golang-1.22/test/codegen/mapaccess.go:324)	LEAQ	type:map[int32][]int32(SB), AX
	0x042c 01068 (/home/xzl/work/golang-1.22/golang-1.22/test/codegen/mapaccess.go:324)	LEAQ	command-line-arguments..autotmp_5+336(SP), BX
	0x0434 01076 (/home/xzl/work/golang-1.22/golang-1.22/test/codegen/mapaccess.go:324)	XORL	CX, CX
	0x0436 01078 (/home/xzl/work/golang-1.22/golang-1.22/test/codegen/mapaccess.go:324)	CALL	runtime.mapassign_fast32(SB)
	0x043b 01083 (/home/xzl/work/golang-1.22/golang-1.22/test/codegen/mapaccess.go:324)	MOVQ	command-line-arguments..autotmp_52+64(SP), DX
	0x0440 01088 (/home/xzl/work/golang-1.22/golang-1.22/test/codegen/mapaccess.go:324)	MOVQ	DX, 8(AX)
	0x0444 01092 (/home/xzl/work/golang-1.22/golang-1.22/test/codegen/mapaccess.go:324)	MOVQ	command-line-arguments..autotmp_48+72(SP), DX
	0x0449 01097 (/home/xzl/work/golang-1.22/golang-1.22/test/codegen/mapaccess.go:324)	MOVQ	DX, 16(AX)
	0x044d 01101 (/home/xzl/work/golang-1.22/golang-1.22/test/codegen/mapaccess.go:324)	CMPL	runtime.writeBarrier(SB), $0
	0x0454 01108 (/home/xzl/work/golang-1.22/golang-1.22/test/codegen/mapaccess.go:324)	PCDATA	$0, $-2
	0x0454 01108 (/home/xzl/work/golang-1.22/golang-1.22/test/codegen/mapaccess.go:324)	JNE	1122
	0x0456 01110 (/home/xzl/work/golang-1.22/golang-1.22/test/codegen/mapaccess.go:324)	MOVQ	command-line-arguments..autotmp_51+320(SP), DX
	0x045e 01118 (/home/xzl/work/golang-1.22/golang-1.22/test/codegen/mapaccess.go:324)	NOP
	0x0460 01120 (/home/xzl/work/golang-1.22/golang-1.22/test/codegen/mapaccess.go:324)	JMP	1145
	0x0462 01122 (/home/xzl/work/golang-1.22/golang-1.22/test/codegen/mapaccess.go:324)	CALL	runtime.gcWriteBarrier2(SB)
	0x0467 01127 (/home/xzl/work/golang-1.22/golang-1.22/test/codegen/mapaccess.go:324)	MOVQ	command-line-arguments..autotmp_51+320(SP), DX
	0x046f 01135 (/home/xzl/work/golang-1.22/golang-1.22/test/codegen/mapaccess.go:324)	MOVQ	DX, (R11)
	0x0472 01138 (/home/xzl/work/golang-1.22/golang-1.22/test/codegen/mapaccess.go:324)	MOVQ	(AX), SI
	0x0475 01141 (/home/xzl/work/golang-1.22/golang-1.22/test/codegen/mapaccess.go:324)	MOVQ	SI, 8(R11)
	0x0479 01145 (/home/xzl/work/golang-1.22/golang-1.22/test/codegen/mapaccess.go:324)	MOVQ	DX, (AX)
	0x047c 01148 (/home/xzl/work/golang-1.22/golang-1.22/test/codegen/mapaccess.go:330)	PCDATA	$0, $-1
	0x047c 01148 (/home/xzl/work/golang-1.22/golang-1.22/test/codegen/mapaccess.go:330)	LEAQ	type:map[int32][]int32(SB), AX
	0x0483 01155 (/home/xzl/work/golang-1.22/golang-1.22/test/codegen/mapaccess.go:330)	LEAQ	command-line-arguments..autotmp_5+336(SP), BX
	0x048b 01163 (/home/xzl/work/golang-1.22/golang-1.22/test/codegen/mapaccess.go:330)	XORL	CX, CX
	0x048d 01165 (/home/xzl/work/golang-1.22/golang-1.22/test/codegen/mapaccess.go:330)	PCDATA	$1, $1
	0x048d 01165 (/home/xzl/work/golang-1.22/golang-1.22/test/codegen/mapaccess.go:330)	CALL	runtime.mapaccess1_fast32(SB)
	0x0492 01170 (/home/xzl/work/golang-1.22/golang-1.22/test/codegen/mapaccess.go:330)	MOVQ	16(AX), CX
	0x0496 01174 (/home/xzl/work/golang-1.22/golang-1.22/test/codegen/mapaccess.go:330)	MOVQ	8(AX), BX
	0x049a 01178 (/home/xzl/work/golang-1.22/golang-1.22/test/codegen/mapaccess.go:330)	INCQ	BX
	0x049d 01181 (/home/xzl/work/golang-1.22/golang-1.22/test/codegen/mapaccess.go:330)	MOVQ	(AX), AX
	0x04a0 01184 (/home/xzl/work/golang-1.22/golang-1.22/test/codegen/mapaccess.go:330)	CMPQ	CX, BX
	0x04a3 01187 (/home/xzl/work/golang-1.22/golang-1.22/test/codegen/mapaccess.go:330)	JCC	1206
	0x04a5 01189 (/home/xzl/work/golang-1.22/golang-1.22/test/codegen/mapaccess.go:330)	MOVL	$1, DI
	0x04aa 01194 (/home/xzl/work/golang-1.22/golang-1.22/test/codegen/mapaccess.go:330)	LEAQ	type:int32(SB), SI
	0x04b1 01201 (/home/xzl/work/golang-1.22/golang-1.22/test/codegen/mapaccess.go:330)	CALL	runtime.growslice(SB)
	0x04b6 01206 (/home/xzl/work/golang-1.22/golang-1.22/test/codegen/mapaccess.go:330)	MOVQ	AX, command-line-arguments..autotmp_51+320(SP)
	0x04be 01214 (/home/xzl/work/golang-1.22/golang-1.22/test/codegen/mapaccess.go:330)	MOVQ	BX, command-line-arguments..autotmp_48+72(SP)
	0x04c3 01219 (/home/xzl/work/golang-1.22/golang-1.22/test/codegen/mapaccess.go:330)	MOVQ	CX, command-line-arguments..autotmp_52+64(SP)
	0x04c8 01224 (/home/xzl/work/golang-1.22/golang-1.22/test/codegen/mapaccess.go:330)	MOVL	$99, -4(AX)(BX*4)
	0x04d0 01232 (/home/xzl/work/golang-1.22/golang-1.22/test/codegen/mapaccess.go:330)	MOVBLZX	command-line-arguments.sinkAppend(SB), DX
	0x04d7 01239 (/home/xzl/work/golang-1.22/golang-1.22/test/codegen/mapaccess.go:330)	XORL	$1, DX
	0x04da 01242 (/home/xzl/work/golang-1.22/golang-1.22/test/codegen/mapaccess.go:330)	MOVB	DL, command-line-arguments.sinkAppend(SB)
	0x04e0 01248 (/home/xzl/work/golang-1.22/golang-1.22/test/codegen/mapaccess.go:330)	LEAQ	type:map[int32][]int32(SB), AX
	0x04e7 01255 (/home/xzl/work/golang-1.22/golang-1.22/test/codegen/mapaccess.go:330)	LEAQ	command-line-arguments..autotmp_5+336(SP), BX
	0x04ef 01263 (/home/xzl/work/golang-1.22/golang-1.22/test/codegen/mapaccess.go:330)	XORL	CX, CX
	0x04f1 01265 (/home/xzl/work/golang-1.22/golang-1.22/test/codegen/mapaccess.go:330)	PCDATA	$1, $8
	0x04f1 01265 (/home/xzl/work/golang-1.22/golang-1.22/test/codegen/mapaccess.go:330)	CALL	runtime.mapassign_fast32(SB)
	0x04f6 01270 (/home/xzl/work/golang-1.22/golang-1.22/test/codegen/mapaccess.go:330)	MOVQ	command-line-arguments..autotmp_48+72(SP), DX
	0x04fb 01275 (/home/xzl/work/golang-1.22/golang-1.22/test/codegen/mapaccess.go:330)	MOVQ	DX, 8(AX)
	0x04ff 01279 (/home/xzl/work/golang-1.22/golang-1.22/test/codegen/mapaccess.go:330)	MOVQ	command-line-arguments..autotmp_52+64(SP), DX
	0x0504 01284 (/home/xzl/work/golang-1.22/golang-1.22/test/codegen/mapaccess.go:330)	MOVQ	DX, 16(AX)
	0x0508 01288 (/home/xzl/work/golang-1.22/golang-1.22/test/codegen/mapaccess.go:330)	CMPL	runtime.writeBarrier(SB), $0
	0x050f 01295 (/home/xzl/work/golang-1.22/golang-1.22/test/codegen/mapaccess.go:330)	PCDATA	$0, $-2
	0x050f 01295 (/home/xzl/work/golang-1.22/golang-1.22/test/codegen/mapaccess.go:330)	JNE	1312
	0x0511 01297 (/home/xzl/work/golang-1.22/golang-1.22/test/codegen/mapaccess.go:330)	MOVQ	command-line-arguments..autotmp_51+320(SP), DX
	0x0519 01305 (/home/xzl/work/golang-1.22/golang-1.22/test/codegen/mapaccess.go:330)	JMP	1335
	0x051b 01307 (/home/xzl/work/golang-1.22/golang-1.22/test/codegen/mapaccess.go:330)	NOP
	0x0520 01312 (/home/xzl/work/golang-1.22/golang-1.22/test/codegen/mapaccess.go:330)	CALL	runtime.gcWriteBarrier2(SB)
	0x0525 01317 (/home/xzl/work/golang-1.22/golang-1.22/test/codegen/mapaccess.go:330)	MOVQ	command-line-arguments..autotmp_51+320(SP), DX
	0x052d 01325 (/home/xzl/work/golang-1.22/golang-1.22/test/codegen/mapaccess.go:330)	MOVQ	DX, (R11)
	0x0530 01328 (/home/xzl/work/golang-1.22/golang-1.22/test/codegen/mapaccess.go:330)	MOVQ	(AX), SI
	0x0533 01331 (/home/xzl/work/golang-1.22/golang-1.22/test/codegen/mapaccess.go:330)	MOVQ	SI, 8(R11)
	0x0537 01335 (/home/xzl/work/golang-1.22/golang-1.22/test/codegen/mapaccess.go:330)	MOVQ	DX, (AX)
	0x053a 01338 (/home/xzl/work/golang-1.22/golang-1.22/test/codegen/mapaccess.go:336)	PCDATA	$0, $-1
	0x053a 01338 (/home/xzl/work/golang-1.22/golang-1.22/test/codegen/mapaccess.go:336)	LEAQ	type:map[int32][]int32(SB), AX
	0x0541 01345 (/home/xzl/work/golang-1.22/golang-1.22/test/codegen/mapaccess.go:336)	LEAQ	command-line-arguments..autotmp_5+336(SP), BX
	0x0549 01353 (/home/xzl/work/golang-1.22/golang-1.22/test/codegen/mapaccess.go:336)	MOVL	$1, CX
	0x054e 01358 (/home/xzl/work/golang-1.22/golang-1.22/test/codegen/mapaccess.go:336)	PCDATA	$1, $1
	0x054e 01358 (/home/xzl/work/golang-1.22/golang-1.22/test/codegen/mapaccess.go:336)	CALL	runtime.mapaccess1_fast32(SB)
	0x0553 01363 (/home/xzl/work/golang-1.22/golang-1.22/test/codegen/mapaccess.go:336)	MOVQ	16(AX), CX
	0x0557 01367 (/home/xzl/work/golang-1.22/golang-1.22/test/codegen/mapaccess.go:336)	MOVQ	8(AX), BX
	0x055b 01371 (/home/xzl/work/golang-1.22/golang-1.22/test/codegen/mapaccess.go:336)	INCQ	BX
	0x055e 01374 (/home/xzl/work/golang-1.22/golang-1.22/test/codegen/mapaccess.go:336)	MOVQ	(AX), AX
	0x0561 01377 (/home/xzl/work/golang-1.22/golang-1.22/test/codegen/mapaccess.go:336)	CMPQ	CX, BX
	0x0564 01380 (/home/xzl/work/golang-1.22/golang-1.22/test/codegen/mapaccess.go:336)	JCC	1399
	0x0566 01382 (/home/xzl/work/golang-1.22/golang-1.22/test/codegen/mapaccess.go:336)	MOVL	$1, DI
	0x056b 01387 (/home/xzl/work/golang-1.22/golang-1.22/test/codegen/mapaccess.go:336)	LEAQ	type:int32(SB), SI
	0x0572 01394 (/home/xzl/work/golang-1.22/golang-1.22/test/codegen/mapaccess.go:336)	CALL	runtime.growslice(SB)
	0x0577 01399 (/home/xzl/work/golang-1.22/golang-1.22/test/codegen/mapaccess.go:336)	MOVQ	AX, command-line-arguments..autotmp_51+320(SP)
	0x057f 01407 (/home/xzl/work/golang-1.22/golang-1.22/test/codegen/mapaccess.go:336)	MOVQ	BX, command-line-arguments..autotmp_48+72(SP)
	0x0584 01412 (/home/xzl/work/golang-1.22/golang-1.22/test/codegen/mapaccess.go:336)	MOVQ	CX, command-line-arguments..autotmp_52+64(SP)
	0x0589 01417 (/home/xzl/work/golang-1.22/golang-1.22/test/codegen/mapaccess.go:336)	MOVL	$100, -4(AX)(BX*4)
	0x0591 01425 (/home/xzl/work/golang-1.22/golang-1.22/test/codegen/mapaccess.go:336)	LEAQ	type:map[int32][]int32(SB), AX
	0x0598 01432 (/home/xzl/work/golang-1.22/golang-1.22/test/codegen/mapaccess.go:336)	LEAQ	command-line-arguments..autotmp_5+336(SP), BX
	0x05a0 01440 (/home/xzl/work/golang-1.22/golang-1.22/test/codegen/mapaccess.go:336)	XORL	CX, CX
	0x05a2 01442 (/home/xzl/work/golang-1.22/golang-1.22/test/codegen/mapaccess.go:336)	PCDATA	$1, $9
	0x05a2 01442 (/home/xzl/work/golang-1.22/golang-1.22/test/codegen/mapaccess.go:336)	CALL	runtime.mapassign_fast32(SB)
	0x05a7 01447 (/home/xzl/work/golang-1.22/golang-1.22/test/codegen/mapaccess.go:336)	MOVQ	command-line-arguments..autotmp_48+72(SP), DX
	0x05ac 01452 (/home/xzl/work/golang-1.22/golang-1.22/test/codegen/mapaccess.go:336)	MOVQ	DX, 8(AX)
	0x05b0 01456 (/home/xzl/work/golang-1.22/golang-1.22/test/codegen/mapaccess.go:336)	MOVQ	command-line-arguments..autotmp_52+64(SP), DX
	0x05b5 01461 (/home/xzl/work/golang-1.22/golang-1.22/test/codegen/mapaccess.go:336)	MOVQ	DX, 16(AX)
	0x05b9 01465 (/home/xzl/work/golang-1.22/golang-1.22/test/codegen/mapaccess.go:336)	CMPL	runtime.writeBarrier(SB), $0
	0x05c0 01472 (/home/xzl/work/golang-1.22/golang-1.22/test/codegen/mapaccess.go:336)	PCDATA	$0, $-2
	0x05c0 01472 (/home/xzl/work/golang-1.22/golang-1.22/test/codegen/mapaccess.go:336)	JNE	1484
	0x05c2 01474 (/home/xzl/work/golang-1.22/golang-1.22/test/codegen/mapaccess.go:336)	MOVQ	command-line-arguments..autotmp_51+320(SP), CX
	0x05ca 01482 (/home/xzl/work/golang-1.22/golang-1.22/test/codegen/mapaccess.go:336)	JMP	1507
	0x05cc 01484 (/home/xzl/work/golang-1.22/golang-1.22/test/codegen/mapaccess.go:336)	CALL	runtime.gcWriteBarrier2(SB)
	0x05d1 01489 (/home/xzl/work/golang-1.22/golang-1.22/test/codegen/mapaccess.go:336)	MOVQ	command-line-arguments..autotmp_51+320(SP), CX
	0x05d9 01497 (/home/xzl/work/golang-1.22/golang-1.22/test/codegen/mapaccess.go:336)	MOVQ	CX, (R11)
	0x05dc 01500 (/home/xzl/work/golang-1.22/golang-1.22/test/codegen/mapaccess.go:336)	MOVQ	(AX), DX
	0x05df 01503 (/home/xzl/work/golang-1.22/golang-1.22/test/codegen/mapaccess.go:336)	MOVQ	DX, 8(R11)
	0x05e3 01507 (/home/xzl/work/golang-1.22/golang-1.22/test/codegen/mapaccess.go:336)	MOVQ	CX, (AX)
	0x05e6 01510 (/home/xzl/work/golang-1.22/golang-1.22/test/codegen/mapaccess.go:337)	PCDATA	$0, $-1
	0x05e6 01510 (/home/xzl/work/golang-1.22/golang-1.22/test/codegen/mapaccess.go:337)	ADDQ	$424, SP
	0x05ed 01517 (/home/xzl/work/golang-1.22/golang-1.22/test/codegen/mapaccess.go:337)	POPQ	BP
	0x05ee 01518 (/home/xzl/work/golang-1.22/golang-1.22/test/codegen/mapaccess.go:337)	RET
	0x05ef 01519 (/home/xzl/work/golang-1.22/golang-1.22/test/codegen/mapaccess.go:337)	NOP
	0x05ef 01519 (/home/xzl/work/golang-1.22/golang-1.22/test/codegen/mapaccess.go:282)	PCDATA	$1, $-1
	0x05ef 01519 (/home/xzl/work/golang-1.22/golang-1.22/test/codegen/mapaccess.go:282)	PCDATA	$0, $-2
	0x05ef 01519 (/home/xzl/work/golang-1.22/golang-1.22/test/codegen/mapaccess.go:282)	CALL	runtime.morestack_noctxt(SB)
	0x05f4 01524 (/home/xzl/work/golang-1.22/golang-1.22/test/codegen/mapaccess.go:282)	PCDATA	$0, $-1
	0x05f4 01524 (/home/xzl/work/golang-1.22/golang-1.22/test/codegen/mapaccess.go:282)	JMP	0
	0x0000 4c 8d a4 24 d0 fe ff ff 4d 3b 66 10 0f 86 dd 05  L..$....M;f.....
	0x0010 00 00 55 48 89 e5 48 81 ec a8 01 00 00 44 0f 11  ..UH..H......D..
	0x0020 bc 24 50 01 00 00 44 0f 11 bc 24 60 01 00 00 44  .$P...D...$`...D
	0x0030 0f 11 bc 24 70 01 00 00 48 8d 7c 24 50 48 8d 7f  ...$p...H.|$PH..
	0x0040 f0 48 89 6c 24 f0 48 8d 6c 24 f0 e8 00 00 00 00  .H.l$.H.l$......
	0x0050 48 8b 6d 00 48 8d 44 24 50 48 89 84 24 60 01 00  H.m.H.D$PH..$`..
	0x0060 00 e8 00 00 00 00 89 84 24 5c 01 00 00 48 8d 05  ........$\...H..
	0x0070 00 00 00 00 48 8d 9c 24 50 01 00 00 31 c9 66 90  ....H..$P...1.f.
	0x0080 e8 00 00 00 00 48 8b 48 10 48 8b 58 08 48 ff c3  .....H.H.H.X.H..
	0x0090 48 8b 10 48 39 d9 73 4c 48 89 84 24 a0 01 00 00  H..H9.sLH..$....
	0x00a0 48 89 d0 bf 01 00 00 00 48 8d 35 00 00 00 00 e8  H.......H.5.....
	0x00b0 00 00 00 00 48 8b 94 24 a0 01 00 00 48 89 4a 10  ....H..$....H.J.
	0x00c0 83 3d 00 00 00 00 00 74 0f e8 00 00 00 00 49 89  .=.....t......I.
	0x00d0 03 48 8b 32 49 89 73 08 48 89 02 48 89 c1 48 89  .H.2I.s.H..H..H.
	0x00e0 d0 48 89 ca 48 89 58 08 c7 44 9a fc 01 00 00 00  .H..H.X..D......
	0x00f0 48 8d 05 00 00 00 00 48 8d 9c 24 50 01 00 00 31  H......H..$P...1
	0x0100 c9 e8 00 00 00 00 48 8b 48 10 48 8b 58 08 48 83  ......H.H.H.X.H.
	0x0110 c3 03 48 8b 10 48 39 d9 73 4c 48 89 84 24 98 01  ..H..H9.sLH..$..
	0x0120 00 00 48 89 d0 bf 03 00 00 00 48 8d 35 00 00 00  ..H.......H.5...
	0x0130 00 e8 00 00 00 00 48 8b 94 24 98 01 00 00 48 89  ......H..$....H.
	0x0140 4a 10 83 3d 00 00 00 00 00 74 0f e8 00 00 00 00  J..=.....t......
	0x0150 49 89 03 48 8b 0a 49 89 4b 08 48 89 02 48 89 c1  I..H..I.K.H..H..
	0x0160 48 89 d0 48 89 ca 48 89 58 08 c7 44 9a f4 01 00  H..H..H.X..D....
	0x0170 00 00 48 8d 0c 9a 48 8d 49 f8 48 ba 02 00 00 00  ..H...H.I.H.....
	0x0180 03 00 00 00 48 89 11 48 8d 05 00 00 00 00 e8 00  ....H..H........
	0x0190 00 00 00 48 89 84 24 90 01 00 00 48 b9 07 00 00  ...H..$....H....
	0x01a0 00 08 00 00 00 48 89 08 48 c7 40 08 09 00 00 00  .....H..H.@.....
	0x01b0 48 8d 9c 24 50 01 00 00 31 c9 48 8d 05 00 00 00  H..$P...1.H.....
	0x01c0 00 e8 00 00 00 00 48 8b 48 10 48 8b 58 08 48 8d  ......H.H.H.X.H.
	0x01d0 53 04 48 8b 30 48 39 d1 73 37 48 89 84 24 88 01  S.H.0H9.s7H..$..
	0x01e0 00 00 48 89 5c 24 48 48 89 f0 48 89 d3 bf 04 00  ..H.\$HH..H.....
	0x01f0 00 00 48 8d 35 00 00 00 00 e8 00 00 00 00 48 89  ..H.5.........H.
	0x0200 c6 48 89 da 48 8b 84 24 88 01 00 00 48 8b 5c 24  .H..H..$....H.\$
	0x0210 48 48 8d 3c 9e 4c 8b 84 24 90 01 00 00 41 0f 10  HH.<.L..$....A..
	0x0220 00 0f 11 07 48 89 50 08 48 89 48 10 83 3d 00 00  ....H.P.H.H..=..
	0x0230 00 00 00 74 0f e8 00 00 00 00 49 89 33 48 8b 10  ...t......I.3H..
	0x0240 49 89 53 08 48 89 30 48 8d 05 00 00 00 00 48 8d  I.S.H.0H......H.
	0x0250 9c 24 50 01 00 00 b9 01 00 00 00 0f 1f 44 00 00  .$P..........D..
	0x0260 e8 00 00 00 00 48 8b 48 10 48 8b 58 08 48 8d 53  .....H.H.H.X.H.S
	0x0270 04 48 8b 30 48 39 d1 73 37 48 89 5c 24 48 48 89  .H.0H9.s7H.\$HH.
	0x0280 84 24 80 01 00 00 48 89 f0 48 89 d3 bf 04 00 00  .$....H..H......
	0x0290 00 48 8d 35 00 00 00 00 e8 00 00 00 00 48 89 c6  .H.5.........H..
	0x02a0 48 89 da 48 8b 84 24 80 01 00 00 48 8b 5c 24 48  H..H..$....H.\$H
	0x02b0 48 8d 3c 9e 4c 8b 84 24 90 01 00 00 41 0f 10 00  H.<.L..$....A...
	0x02c0 0f 11 07 48 89 50 08 48 89 48 10 83 3d 00 00 00  ...H.P.H.H..=...
	0x02d0 00 00 74 0f e8 00 00 00 00 49 89 33 48 8b 10 49  ..t......I.3H..I
	0x02e0 89 53 08 48 89 30 48 8d 05 00 00 00 00 48 8d 9c  .S.H.0H......H..
	0x02f0 24 50 01 00 00 31 c9 e8 00 00 00 00 48 8b 48 10  $P...1......H.H.
	0x0300 48 8b 58 08 48 8d 53 04 48 8b 30 48 39 d1 73 37  H.X.H.S.H.0H9.s7
	0x0310 48 89 84 24 48 01 00 00 48 89 5c 24 48 48 89 f0  H..$H...H.\$HH..
	0x0320 48 89 d3 bf 04 00 00 00 48 8d 35 00 00 00 00 e8  H.......H.5.....
	0x0330 00 00 00 00 48 89 c6 48 89 da 48 8b 84 24 48 01  ....H..H..H..$H.
	0x0340 00 00 48 8b 5c 24 48 48 8d 3c 9e 4c 8b 84 24 90  ..H.\$HH.<.L..$.
	0x0350 01 00 00 41 0f 10 00 0f 11 07 48 89 50 08 48 89  ...A......H.P.H.
	0x0360 48 10 83 3d 00 00 00 00 00 74 0f e8 00 00 00 00  H..=.....t......
	0x0370 49 89 33 48 8b 10 49 89 53 08 48 89 30 48 8d 05  I.3H..I.S.H.0H..
	0x0380 00 00 00 00 48 8d 9c 24 50 01 00 00 31 c9 e8 00  ....H..$P...1...
	0x0390 00 00 00 48 8b 58 08 48 8d 53 04 48 8b 30 66 90  ...H.X.H.S.H.0f.
	0x03a0 48 83 fa 04 77 0f 48 8b 84 24 90 01 00 00 b9 04  H...w.H..$......
	0x03b0 00 00 00 eb 40 48 89 5c 24 48 48 89 b4 24 40 01  ....@H.\$HH..$@.
	0x03c0 00 00 48 8b 84 24 90 01 00 00 b9 04 00 00 00 48  ..H..$.........H
	0x03d0 89 df 48 8d 35 00 00 00 00 48 89 d3 0f 1f 40 00  ..H.5....H....@.
	0x03e0 e8 00 00 00 00 48 8b b4 24 40 01 00 00 48 89 da  .....H..$@...H..
	0x03f0 48 8b 5c 24 48 48 89 4c 24 48 48 89 54 24 40 48  H.\$HH.L$HH.T$@H
	0x0400 89 84 24 40 01 00 00 48 c1 e3 02 48 8d 78 10 48  ..$@...H...H.x.H
	0x0410 89 f8 49 89 d9 48 89 f3 4c 89 c9 0f 1f 44 00 00  ..I..H..L....D..
	0x0420 e8 00 00 00 00 48 8d 05 00 00 00 00 48 8d 9c 24  .....H......H..$
	0x0430 50 01 00 00 31 c9 e8 00 00 00 00 48 8b 54 24 40  P...1......H.T$@
	0x0440 48 89 50 08 48 8b 54 24 48 48 89 50 10 83 3d 00  H.P.H.T$HH.P..=.
	0x0450 00 00 00 00 75 0c 48 8b 94 24 40 01 00 00 66 90  ....u.H..$@...f.
	0x0460 eb 17 e8 00 00 00 00 48 8b 94 24 40 01 00 00 49  .......H..$@...I
	0x0470 89 13 48 8b 30 49 89 73 08 48 89 10 48 8d 05 00  ..H.0I.s.H..H...
	0x0480 00 00 00 48 8d 9c 24 50 01 00 00 31 c9 e8 00 00  ...H..$P...1....
	0x0490 00 00 48 8b 48 10 48 8b 58 08 48 ff c3 48 8b 00  ..H.H.H.X.H..H..
	0x04a0 48 39 d9 73 11 bf 01 00 00 00 48 8d 35 00 00 00  H9.s......H.5...
	0x04b0 00 e8 00 00 00 00 48 89 84 24 40 01 00 00 48 89  ......H..$@...H.
	0x04c0 5c 24 48 48 89 4c 24 40 c7 44 98 fc 63 00 00 00  \$HH.L$@.D..c...
	0x04d0 0f b6 15 00 00 00 00 83 f2 01 88 15 00 00 00 00  ................
	0x04e0 48 8d 05 00 00 00 00 48 8d 9c 24 50 01 00 00 31  H......H..$P...1
	0x04f0 c9 e8 00 00 00 00 48 8b 54 24 48 48 89 50 08 48  ......H.T$HH.P.H
	0x0500 8b 54 24 40 48 89 50 10 83 3d 00 00 00 00 00 75  .T$@H.P..=.....u
	0x0510 0f 48 8b 94 24 40 01 00 00 eb 1c 0f 1f 44 00 00  .H..$@.......D..
	0x0520 e8 00 00 00 00 48 8b 94 24 40 01 00 00 49 89 13  .....H..$@...I..
	0x0530 48 8b 30 49 89 73 08 48 89 10 48 8d 05 00 00 00  H.0I.s.H..H.....
	0x0540 00 48 8d 9c 24 50 01 00 00 b9 01 00 00 00 e8 00  .H..$P..........
	0x0550 00 00 00 48 8b 48 10 48 8b 58 08 48 ff c3 48 8b  ...H.H.H.X.H..H.
	0x0560 00 48 39 d9 73 11 bf 01 00 00 00 48 8d 35 00 00  .H9.s......H.5..
	0x0570 00 00 e8 00 00 00 00 48 89 84 24 40 01 00 00 48  .......H..$@...H
	0x0580 89 5c 24 48 48 89 4c 24 40 c7 44 98 fc 64 00 00  .\$HH.L$@.D..d..
	0x0590 00 48 8d 05 00 00 00 00 48 8d 9c 24 50 01 00 00  .H......H..$P...
	0x05a0 31 c9 e8 00 00 00 00 48 8b 54 24 48 48 89 50 08  1......H.T$HH.P.
	0x05b0 48 8b 54 24 40 48 89 50 10 83 3d 00 00 00 00 00  H.T$@H.P..=.....
	0x05c0 75 0a 48 8b 8c 24 40 01 00 00 eb 17 e8 00 00 00  u.H..$@.........
	0x05d0 00 48 8b 8c 24 40 01 00 00 49 89 0b 48 8b 10 49  .H..$@...I..H..I
	0x05e0 89 53 08 48 89 08 48 81 c4 a8 01 00 00 5d c3 e8  .S.H..H......]..
	0x05f0 00 00 00 00 e9 07 fa ff ff                       .........
	rel 76+4 t=R_CALL runtime.duffzero<1>+280
	rel 98+4 t=R_CALL runtime.rand32<1>+0
	rel 112+4 t=R_PCREL type:map[int32][]int32<0>+0
	rel 129+4 t=R_CALL runtime.mapassign_fast32<1>+0
	rel 171+4 t=R_PCREL type:int32<0>+0
	rel 176+4 t=R_CALL runtime.growslice<1>+0
	rel 194+4 t=R_PCREL runtime.writeBarrier<0>+-1
	rel 202+4 t=R_CALL runtime.gcWriteBarrier2<1>+0
	rel 243+4 t=R_PCREL type:map[int32][]int32<0>+0
	rel 258+4 t=R_CALL runtime.mapassign_fast32<1>+0
	rel 301+4 t=R_PCREL type:int32<0>+0
	rel 306+4 t=R_CALL runtime.growslice<1>+0
	rel 324+4 t=R_PCREL runtime.writeBarrier<0>+-1
	rel 332+4 t=R_CALL runtime.gcWriteBarrier2<1>+0
	rel 394+4 t=R_PCREL type:[4]int32<0>+0
	rel 399+4 t=R_CALL runtime.newobject<1>+0
	rel 445+4 t=R_PCREL type:map[int32][]int32<0>+0
	rel 450+4 t=R_CALL runtime.mapassign_fast32<1>+0
	rel 501+4 t=R_PCREL type:int32<0>+0
	rel 506+4 t=R_CALL runtime.growslice<1>+0
	rel 558+4 t=R_PCREL runtime.writeBarrier<0>+-1
	rel 566+4 t=R_CALL runtime.gcWriteBarrier2<1>+0
	rel 586+4 t=R_PCREL type:map[int32][]int32<0>+0
	rel 609+4 t=R_CALL runtime.mapassign_fast32<1>+0
	rel 660+4 t=R_PCREL type:int32<0>+0
	rel 665+4 t=R_CALL runtime.growslice<1>+0
	rel 717+4 t=R_PCREL runtime.writeBarrier<0>+-1
	rel 725+4 t=R_CALL runtime.gcWriteBarrier2<1>+0
	rel 745+4 t=R_PCREL type:map[int32][]int32<0>+0
	rel 760+4 t=R_CALL runtime.mapassign_fast32<1>+0
	rel 811+4 t=R_PCREL type:int32<0>+0
	rel 816+4 t=R_CALL runtime.growslice<1>+0
	rel 868+4 t=R_PCREL runtime.writeBarrier<0>+-1
	rel 876+4 t=R_CALL runtime.gcWriteBarrier2<1>+0
	rel 896+4 t=R_PCREL type:map[int32][]int32<0>+0
	rel 911+4 t=R_CALL runtime.mapaccess1_fast32<1>+0
	rel 981+4 t=R_PCREL type:int32<0>+0
	rel 993+4 t=R_CALL runtime.growslice<1>+0
	rel 1057+4 t=R_CALL runtime.memmove<1>+0
	rel 1064+4 t=R_PCREL type:map[int32][]int32<0>+0
	rel 1079+4 t=R_CALL runtime.mapassign_fast32<1>+0
	rel 1103+4 t=R_PCREL runtime.writeBarrier<0>+-1
	rel 1123+4 t=R_CALL runtime.gcWriteBarrier2<1>+0
	rel 1151+4 t=R_PCREL type:map[int32][]int32<0>+0
	rel 1166+4 t=R_CALL runtime.mapaccess1_fast32<1>+0
	rel 1197+4 t=R_PCREL type:int32<0>+0
	rel 1202+4 t=R_CALL runtime.growslice<1>+0
	rel 1235+4 t=R_PCREL command-line-arguments.sinkAppend<0>+0
	rel 1244+4 t=R_PCREL command-line-arguments.sinkAppend<0>+0
	rel 1251+4 t=R_PCREL type:map[int32][]int32<0>+0
	rel 1266+4 t=R_CALL runtime.mapassign_fast32<1>+0
	rel 1290+4 t=R_PCREL runtime.writeBarrier<0>+-1
	rel 1313+4 t=R_CALL runtime.gcWriteBarrier2<1>+0
	rel 1341+4 t=R_PCREL type:map[int32][]int32<0>+0
	rel 1359+4 t=R_CALL runtime.mapaccess1_fast32<1>+0
	rel 1390+4 t=R_PCREL type:int32<0>+0
	rel 1395+4 t=R_CALL runtime.growslice<1>+0
	rel 1428+4 t=R_PCREL type:map[int32][]int32<0>+0
	rel 1443+4 t=R_CALL runtime.mapassign_fast32<1>+0
	rel 1467+4 t=R_PCREL runtime.writeBarrier<0>+-1
	rel 1485+4 t=R_CALL runtime.gcWriteBarrier2<1>+0
	rel 1520+4 t=R_CALL runtime.morestack_noctxt<0>+0
command-line-arguments.mapAppendAssignmentInt64<1> STEXT size=1690 args=0x0 locals=0x1d0 funcid=0x0 align=0x0
	0x0000 00000 (/home/xzl/work/golang-1.22/golang-1.22/test/codegen/mapaccess.go:339)	TEXT	command-line-arguments.mapAppendAssignmentInt64(SB), ABIInternal, $464-0
	0x0000 00000 (/home/xzl/work/golang-1.22/golang-1.22/test/codegen/mapaccess.go:339)	LEAQ	-336(SP), R12
	0x0008 00008 (/home/xzl/work/golang-1.22/golang-1.22/test/codegen/mapaccess.go:339)	CMPQ	R12, 16(R14)
	0x000c 00012 (/home/xzl/work/golang-1.22/golang-1.22/test/codegen/mapaccess.go:339)	PCDATA	$0, $-2
	0x000c 00012 (/home/xzl/work/golang-1.22/golang-1.22/test/codegen/mapaccess.go:339)	JLS	1680
	0x0012 00018 (/home/xzl/work/golang-1.22/golang-1.22/test/codegen/mapaccess.go:339)	PCDATA	$0, $-1
	0x0012 00018 (/home/xzl/work/golang-1.22/golang-1.22/test/codegen/mapaccess.go:339)	PUSHQ	BP
	0x0013 00019 (/home/xzl/work/golang-1.22/golang-1.22/test/codegen/mapaccess.go:339)	MOVQ	SP, BP
	0x0016 00022 (/home/xzl/work/golang-1.22/golang-1.22/test/codegen/mapaccess.go:339)	SUBQ	$456, SP
	0x001d 00029 (/home/xzl/work/golang-1.22/golang-1.22/test/codegen/mapaccess.go:339)	FUNCDATA	$0, gclocals·T0KMGW3T8ttpJDRmFT9xSg==(SB)
	0x001d 00029 (/home/xzl/work/golang-1.22/golang-1.22/test/codegen/mapaccess.go:339)	FUNCDATA	$1, gclocals·rSei+USuDbuHoAgiHjUnRA==(SB)
	0x001d 00029 (/home/xzl/work/golang-1.22/golang-1.22/test/codegen/mapaccess.go:339)	FUNCDATA	$2, command-line-arguments.mapAppendAssignmentInt64.stkobj(SB)
	0x001d 00029 (/home/xzl/work/golang-1.22/golang-1.22/test/codegen/mapaccess.go:340)	MOVUPS	X15, command-line-arguments..autotmp_5+376(SP)
	0x0026 00038 (/home/xzl/work/golang-1.22/golang-1.22/test/codegen/mapaccess.go:340)	MOVUPS	X15, command-line-arguments..autotmp_5+392(SP)
	0x002f 00047 (/home/xzl/work/golang-1.22/golang-1.22/test/codegen/mapaccess.go:340)	MOVUPS	X15, command-line-arguments..autotmp_5+408(SP)
	0x0038 00056 (/home/xzl/work/golang-1.22/golang-1.22/test/codegen/mapaccess.go:340)	LEAQ	command-line-arguments..autotmp_6+80(SP), DI
	0x003d 00061 (/home/xzl/work/golang-1.22/golang-1.22/test/codegen/mapaccess.go:340)	PCDATA	$0, $-2
	0x003d 00061 (/home/xzl/work/golang-1.22/golang-1.22/test/codegen/mapaccess.go:340)	LEAQ	-48(DI), DI
	0x0041 00065 (/home/xzl/work/golang-1.22/golang-1.22/test/codegen/mapaccess.go:340)	DUFFZERO	$267
	0x0054 00084 (/home/xzl/work/golang-1.22/golang-1.22/test/codegen/mapaccess.go:340)	PCDATA	$0, $-1
	0x0054 00084 (/home/xzl/work/golang-1.22/golang-1.22/test/codegen/mapaccess.go:340)	LEAQ	command-line-arguments..autotmp_6+80(SP), AX
	0x0059 00089 (/home/xzl/work/golang-1.22/golang-1.22/test/codegen/mapaccess.go:340)	MOVQ	AX, command-line-arguments..autotmp_5+392(SP)
	0x0061 00097 (/home/xzl/work/golang-1.22/golang-1.22/test/codegen/mapaccess.go:340)	PCDATA	$1, $1
	0x0061 00097 (/home/xzl/work/golang-1.22/golang-1.22/test/codegen/mapaccess.go:340)	CALL	runtime.rand32(SB)
	0x0066 00102 (/home/xzl/work/golang-1.22/golang-1.22/test/codegen/mapaccess.go:340)	MOVL	AX, command-line-arguments..autotmp_5+388(SP)
	0x006d 00109 (/home/xzl/work/golang-1.22/golang-1.22/test/codegen/mapaccess.go:347)	LEAQ	type:map[int64][]int64(SB), AX
	0x0074 00116 (/home/xzl/work/golang-1.22/golang-1.22/test/codegen/mapaccess.go:347)	LEAQ	command-line-arguments..autotmp_5+376(SP), BX
	0x007c 00124 (/home/xzl/work/golang-1.22/golang-1.22/test/codegen/mapaccess.go:347)	XORL	CX, CX
	0x007e 00126 (/home/xzl/work/golang-1.22/golang-1.22/test/codegen/mapaccess.go:347)	NOP
	0x0080 00128 (/home/xzl/work/golang-1.22/golang-1.22/test/codegen/mapaccess.go:347)	CALL	runtime.mapassign_fast64(SB)
	0x0085 00133 (/home/xzl/work/golang-1.22/golang-1.22/test/codegen/mapaccess.go:347)	MOVQ	16(AX), CX
	0x0089 00137 (/home/xzl/work/golang-1.22/golang-1.22/test/codegen/mapaccess.go:347)	MOVQ	8(AX), BX
	0x008d 00141 (/home/xzl/work/golang-1.22/golang-1.22/test/codegen/mapaccess.go:347)	INCQ	BX
	0x0090 00144 (/home/xzl/work/golang-1.22/golang-1.22/test/codegen/mapaccess.go:347)	MOVQ	(AX), DX
	0x0093 00147 (/home/xzl/work/golang-1.22/golang-1.22/test/codegen/mapaccess.go:347)	CMPQ	CX, BX
	0x0096 00150 (/home/xzl/work/golang-1.22/golang-1.22/test/codegen/mapaccess.go:347)	JCC	228
	0x0098 00152 (/home/xzl/work/golang-1.22/golang-1.22/test/codegen/mapaccess.go:347)	MOVQ	AX, command-line-arguments..autotmp_44+448(SP)
	0x00a0 00160 (/home/xzl/work/golang-1.22/golang-1.22/test/codegen/mapaccess.go:347)	MOVQ	DX, AX
	0x00a3 00163 (/home/xzl/work/golang-1.22/golang-1.22/test/codegen/mapaccess.go:347)	MOVL	$1, DI
	0x00a8 00168 (/home/xzl/work/golang-1.22/golang-1.22/test/codegen/mapaccess.go:347)	LEAQ	type:int64(SB), SI
	0x00af 00175 (/home/xzl/work/golang-1.22/golang-1.22/test/codegen/mapaccess.go:347)	PCDATA	$1, $2
	0x00af 00175 (/home/xzl/work/golang-1.22/golang-1.22/test/codegen/mapaccess.go:347)	CALL	runtime.growslice(SB)
	0x00b4 00180 (/home/xzl/work/golang-1.22/golang-1.22/test/codegen/mapaccess.go:347)	MOVQ	command-line-arguments..autotmp_44+448(SP), DX
	0x00bc 00188 (/home/xzl/work/golang-1.22/golang-1.22/test/codegen/mapaccess.go:347)	MOVQ	CX, 16(DX)
	0x00c0 00192 (/home/xzl/work/golang-1.22/golang-1.22/test/codegen/mapaccess.go:347)	CMPL	runtime.writeBarrier(SB), $0
	0x00c7 00199 (/home/xzl/work/golang-1.22/golang-1.22/test/codegen/mapaccess.go:347)	PCDATA	$0, $-2
	0x00c7 00199 (/home/xzl/work/golang-1.22/golang-1.22/test/codegen/mapaccess.go:347)	JEQ	216
	0x00c9 00201 (/home/xzl/work/golang-1.22/golang-1.22/test/codegen/mapaccess.go:347)	CALL	runtime.gcWriteBarrier2(SB)
	0x00ce 00206 (/home/xzl/work/golang-1.22/golang-1.22/test/codegen/mapaccess.go:347)	MOVQ	AX, (R11)
	0x00d1 00209 (/home/xzl/work/golang-1.22/golang-1.22/test/codegen/mapaccess.go:347)	MOVQ	(DX), SI
	0x00d4 00212 (/home/xzl/work/golang-1.22/golang-1.22/test/codegen/mapaccess.go:347)	MOVQ	SI, 8(R11)
	0x00d8 00216 (/home/xzl/work/golang-1.22/golang-1.22/test/codegen/mapaccess.go:347)	MOVQ	AX, (DX)
	0x00db 00219 (/home/xzl/work/golang-1.22/golang-1.22/test/codegen/mapaccess.go:347)	PCDATA	$0, $-1
	0x00db 00219 (/home/xzl/work/golang-1.22/golang-1.22/test/codegen/mapaccess.go:347)	MOVQ	AX, CX
	0x00de 00222 (/home/xzl/work/golang-1.22/golang-1.22/test/codegen/mapaccess.go:347)	MOVQ	DX, AX
	0x00e1 00225 (/home/xzl/work/golang-1.22/golang-1.22/test/codegen/mapaccess.go:347)	MOVQ	CX, DX
	0x00e4 00228 (/home/xzl/work/golang-1.22/golang-1.22/test/codegen/mapaccess.go:347)	MOVQ	BX, 8(AX)
	0x00e8 00232 (/home/xzl/work/golang-1.22/golang-1.22/test/codegen/mapaccess.go:347)	MOVQ	$1, -8(DX)(BX*8)
	0x00f1 00241 (/home/xzl/work/golang-1.22/golang-1.22/test/codegen/mapaccess.go:353)	LEAQ	type:map[int64][]int64(SB), AX
	0x00f8 00248 (/home/xzl/work/golang-1.22/golang-1.22/test/codegen/mapaccess.go:353)	LEAQ	command-line-arguments..autotmp_5+376(SP), BX
	0x0100 00256 (/home/xzl/work/golang-1.22/golang-1.22/test/codegen/mapaccess.go:353)	XORL	CX, CX
	0x0102 00258 (/home/xzl/work/golang-1.22/golang-1.22/test/codegen/mapaccess.go:353)	PCDATA	$1, $1
	0x0102 00258 (/home/xzl/work/golang-1.22/golang-1.22/test/codegen/mapaccess.go:353)	CALL	runtime.mapassign_fast64(SB)
	0x0107 00263 (/home/xzl/work/golang-1.22/golang-1.22/test/codegen/mapaccess.go:353)	MOVQ	16(AX), CX
	0x010b 00267 (/home/xzl/work/golang-1.22/golang-1.22/test/codegen/mapaccess.go:353)	MOVQ	8(AX), BX
	0x010f 00271 (/home/xzl/work/golang-1.22/golang-1.22/test/codegen/mapaccess.go:353)	ADDQ	$3, BX
	0x0113 00275 (/home/xzl/work/golang-1.22/golang-1.22/test/codegen/mapaccess.go:353)	MOVQ	(AX), DX
	0x0116 00278 (/home/xzl/work/golang-1.22/golang-1.22/test/codegen/mapaccess.go:353)	CMPQ	CX, BX
	0x0119 00281 (/home/xzl/work/golang-1.22/golang-1.22/test/codegen/mapaccess.go:353)	JCC	359
	0x011b 00283 (/home/xzl/work/golang-1.22/golang-1.22/test/codegen/mapaccess.go:353)	MOVQ	AX, command-line-arguments..autotmp_45+440(SP)
	0x0123 00291 (/home/xzl/work/golang-1.22/golang-1.22/test/codegen/mapaccess.go:353)	MOVQ	DX, AX
	0x0126 00294 (/home/xzl/work/golang-1.22/golang-1.22/test/codegen/mapaccess.go:353)	MOVL	$3, DI
	0x012b 00299 (/home/xzl/work/golang-1.22/golang-1.22/test/codegen/mapaccess.go:353)	LEAQ	type:int64(SB), SI
	0x0132 00306 (/home/xzl/work/golang-1.22/golang-1.22/test/codegen/mapaccess.go:353)	PCDATA	$1, $3
	0x0132 00306 (/home/xzl/work/golang-1.22/golang-1.22/test/codegen/mapaccess.go:353)	CALL	runtime.growslice(SB)
	0x0137 00311 (/home/xzl/work/golang-1.22/golang-1.22/test/codegen/mapaccess.go:353)	MOVQ	command-line-arguments..autotmp_45+440(SP), DX
	0x013f 00319 (/home/xzl/work/golang-1.22/golang-1.22/test/codegen/mapaccess.go:353)	MOVQ	CX, 16(DX)
	0x0143 00323 (/home/xzl/work/golang-1.22/golang-1.22/test/codegen/mapaccess.go:353)	CMPL	runtime.writeBarrier(SB), $0
	0x014a 00330 (/home/xzl/work/golang-1.22/golang-1.22/test/codegen/mapaccess.go:353)	PCDATA	$0, $-2
	0x014a 00330 (/home/xzl/work/golang-1.22/golang-1.22/test/codegen/mapaccess.go:353)	JEQ	347
	0x014c 00332 (/home/xzl/work/golang-1.22/golang-1.22/test/codegen/mapaccess.go:353)	CALL	runtime.gcWriteBarrier2(SB)
	0x0151 00337 (/home/xzl/work/golang-1.22/golang-1.22/test/codegen/mapaccess.go:353)	MOVQ	AX, (R11)
	0x0154 00340 (/home/xzl/work/golang-1.22/golang-1.22/test/codegen/mapaccess.go:353)	MOVQ	(DX), CX
	0x0157 00343 (/home/xzl/work/golang-1.22/golang-1.22/test/codegen/mapaccess.go:353)	MOVQ	CX, 8(R11)
	0x015b 00347 (/home/xzl/work/golang-1.22/golang-1.22/test/codegen/mapaccess.go:353)	MOVQ	AX, (DX)
	0x015e 00350 (/home/xzl/work/golang-1.22/golang-1.22/test/codegen/mapaccess.go:353)	PCDATA	$0, $-1
	0x015e 00350 (/home/xzl/work/golang-1.22/golang-1.22/test/codegen/mapaccess.go:353)	MOVQ	AX, CX
	0x0161 00353 (/home/xzl/work/golang-1.22/golang-1.22/test/codegen/mapaccess.go:353)	MOVQ	DX, AX
	0x0164 00356 (/home/xzl/work/golang-1.22/golang-1.22/test/codegen/mapaccess.go:353)	MOVQ	CX, DX
	0x0167 00359 (/home/xzl/work/golang-1.22/golang-1.22/test/codegen/mapaccess.go:353)	MOVQ	BX, 8(AX)
	0x016b 00363 (/home/xzl/work/golang-1.22/golang-1.22/test/codegen/mapaccess.go:353)	MOVQ	$1, -24(DX)(BX*8)
	0x0174 00372 (/home/xzl/work/golang-1.22/golang-1.22/test/codegen/mapaccess.go:353)	MOVQ	$2, -16(DX)(BX*8)
	0x017d 00381 (/home/xzl/work/golang-1.22/golang-1.22/test/codegen/mapaccess.go:353)	MOVQ	$3, -8(DX)(BX*8)
	0x0186 00390 (/home/xzl/work/golang-1.22/golang-1.22/test/codegen/mapaccess.go:355)	LEAQ	type:[4]int64(SB), AX
	0x018d 00397 (/home/xzl/work/golang-1.22/golang-1.22/test/codegen/mapaccess.go:355)	PCDATA	$1, $1
	0x018d 00397 (/home/xzl/work/golang-1.22/golang-1.22/test/codegen/mapaccess.go:355)	CALL	runtime.newobject(SB)
	0x0192 00402 (/home/xzl/work/golang-1.22/golang-1.22/test/codegen/mapaccess.go:355)	MOVQ	AX, command-line-arguments..autotmp_46+432(SP)
	0x019a 00410 (/home/xzl/work/golang-1.22/golang-1.22/test/codegen/mapaccess.go:355)	MOVQ	$7, (AX)
	0x01a1 00417 (/home/xzl/work/golang-1.22/golang-1.22/test/codegen/mapaccess.go:355)	MOVQ	$8, 8(AX)
	0x01a9 00425 (/home/xzl/work/golang-1.22/golang-1.22/test/codegen/mapaccess.go:355)	MOVQ	$9, 16(AX)
	0x01b1 00433 (/home/xzl/work/golang-1.22/golang-1.22/test/codegen/mapaccess.go:355)	MOVQ	$0, 24(AX)
	0x01b9 00441 (/home/xzl/work/golang-1.22/golang-1.22/test/codegen/mapaccess.go:361)	LEAQ	command-line-arguments..autotmp_5+376(SP), BX
	0x01c1 00449 (/home/xzl/work/golang-1.22/golang-1.22/test/codegen/mapaccess.go:361)	XORL	CX, CX
	0x01c3 00451 (/home/xzl/work/golang-1.22/golang-1.22/test/codegen/mapaccess.go:361)	LEAQ	type:map[int64][]int64(SB), AX
	0x01ca 00458 (/home/xzl/work/golang-1.22/golang-1.22/test/codegen/mapaccess.go:361)	PCDATA	$1, $4
	0x01ca 00458 (/home/xzl/work/golang-1.22/golang-1.22/test/codegen/mapaccess.go:361)	CALL	runtime.mapassign_fast64(SB)
	0x01cf 00463 (/home/xzl/work/golang-1.22/golang-1.22/test/codegen/mapaccess.go:361)	MOVQ	AX, command-line-arguments..autotmp_47+424(SP)
	0x01d7 00471 (/home/xzl/work/golang-1.22/golang-1.22/test/codegen/mapaccess.go:361)	MOVQ	16(AX), CX
	0x01db 00475 (/home/xzl/work/golang-1.22/golang-1.22/test/codegen/mapaccess.go:361)	MOVQ	8(AX), BX
	0x01df 00479 (/home/xzl/work/golang-1.22/golang-1.22/test/codegen/mapaccess.go:361)	LEAQ	4(BX), DX
	0x01e3 00483 (/home/xzl/work/golang-1.22/golang-1.22/test/codegen/mapaccess.go:361)	MOVQ	(AX), SI
	0x01e6 00486 (/home/xzl/work/golang-1.22/golang-1.22/test/codegen/mapaccess.go:361)	CMPQ	CX, DX
	0x01e9 00489 (/home/xzl/work/golang-1.22/golang-1.22/test/codegen/mapaccess.go:361)	JCC	530
	0x01eb 00491 (/home/xzl/work/golang-1.22/golang-1.22/test/codegen/mapaccess.go:361)	MOVQ	BX, command-line-arguments..autotmp_48+72(SP)
	0x01f0 00496 (/home/xzl/work/golang-1.22/golang-1.22/test/codegen/mapaccess.go:361)	MOVQ	SI, AX
	0x01f3 00499 (/home/xzl/work/golang-1.22/golang-1.22/test/codegen/mapaccess.go:361)	MOVQ	DX, BX
	0x01f6 00502 (/home/xzl/work/golang-1.22/golang-1.22/test/codegen/mapaccess.go:361)	MOVL	$4, DI
	0x01fb 00507 (/home/xzl/work/golang-1.22/golang-1.22/test/codegen/mapaccess.go:361)	LEAQ	type:int64(SB), SI
	0x0202 00514 (/home/xzl/work/golang-1.22/golang-1.22/test/codegen/mapaccess.go:361)	PCDATA	$1, $5
	0x0202 00514 (/home/xzl/work/golang-1.22/golang-1.22/test/codegen/mapaccess.go:361)	CALL	runtime.growslice(SB)
	0x0207 00519 (/home/xzl/work/golang-1.22/golang-1.22/test/codegen/mapaccess.go:361)	MOVQ	AX, SI
	0x020a 00522 (/home/xzl/work/golang-1.22/golang-1.22/test/codegen/mapaccess.go:361)	MOVQ	BX, DX
	0x020d 00525 (/home/xzl/work/golang-1.22/golang-1.22/test/codegen/mapaccess.go:361)	MOVQ	command-line-arguments..autotmp_48+72(SP), BX
	0x0212 00530 (/home/xzl/work/golang-1.22/golang-1.22/test/codegen/mapaccess.go:361)	MOVQ	CX, command-line-arguments..autotmp_48+72(SP)
	0x0217 00535 (/home/xzl/work/golang-1.22/golang-1.22/test/codegen/mapaccess.go:361)	MOVQ	DX, command-line-arguments..autotmp_49+64(SP)
	0x021c 00540 (/home/xzl/work/golang-1.22/golang-1.22/test/codegen/mapaccess.go:361)	MOVQ	SI, command-line-arguments..autotmp_50+368(SP)
	0x0224 00548 (/home/xzl/work/golang-1.22/golang-1.22/test/codegen/mapaccess.go:361)	LEAQ	(SI)(BX*8), AX
	0x0228 00552 (/home/xzl/work/golang-1.22/golang-1.22/test/codegen/mapaccess.go:361)	MOVQ	command-line-arguments..autotmp_46+432(SP), BX
	0x0230 00560 (/home/xzl/work/golang-1.22/golang-1.22/test/codegen/mapaccess.go:361)	MOVL	$32, CX
	0x0235 00565 (/home/xzl/work/golang-1.22/golang-1.22/test/codegen/mapaccess.go:361)	PCDATA	$1, $6
	0x0235 00565 (/home/xzl/work/golang-1.22/golang-1.22/test/codegen/mapaccess.go:361)	CALL	runtime.memmove(SB)
	0x023a 00570 (/home/xzl/work/golang-1.22/golang-1.22/test/codegen/mapaccess.go:361)	MOVQ	command-line-arguments..autotmp_49+64(SP), DX
	0x023f 00575 (/home/xzl/work/golang-1.22/golang-1.22/test/codegen/mapaccess.go:361)	MOVQ	command-line-arguments..autotmp_47+424(SP), SI
	0x0247 00583 (/home/xzl/work/golang-1.22/golang-1.22/test/codegen/mapaccess.go:361)	MOVQ	DX, 8(SI)
	0x024b 00587 (/home/xzl/work/golang-1.22/golang-1.22/test/codegen/mapaccess.go:361)	MOVQ	command-line-arguments..autotmp_48+72(SP), DX
	0x0250 00592 (/home/xzl/work/golang-1.22/golang-1.22/test/codegen/mapaccess.go:361)	MOVQ	DX, 16(SI)
	0x0254 00596 (/home/xzl/work/golang-1.22/golang-1.22/test/codegen/mapaccess.go:361)	CMPL	runtime.writeBarrier(SB), $0
	0x025b 00603 (/home/xzl/work/golang-1.22/golang-1.22/test/codegen/mapaccess.go:361)	PCDATA	$0, $-2
	0x025b 00603 (/home/xzl/work/golang-1.22/golang-1.22/test/codegen/mapaccess.go:361)	JNE	615
	0x025d 00605 (/home/xzl/work/golang-1.22/golang-1.22/test/codegen/mapaccess.go:361)	MOVQ	command-line-arguments..autotmp_50+368(SP), DX
	0x0265 00613 (/home/xzl/work/golang-1.22/golang-1.22/test/codegen/mapaccess.go:361)	JMP	638
	0x0267 00615 (/home/xzl/work/golang-1.22/golang-1.22/test/codegen/mapaccess.go:361)	CALL	runtime.gcWriteBarrier2(SB)
	0x026c 00620 (/home/xzl/work/golang-1.22/golang-1.22/test/codegen/mapaccess.go:361)	MOVQ	command-line-arguments..autotmp_50+368(SP), DX
	0x0274 00628 (/home/xzl/work/golang-1.22/golang-1.22/test/codegen/mapaccess.go:361)	MOVQ	DX, (R11)
	0x0277 00631 (/home/xzl/work/golang-1.22/golang-1.22/test/codegen/mapaccess.go:361)	MOVQ	(SI), DI
	0x027a 00634 (/home/xzl/work/golang-1.22/golang-1.22/test/codegen/mapaccess.go:361)	MOVQ	DI, 8(R11)
	0x027e 00638 (/home/xzl/work/golang-1.22/golang-1.22/test/codegen/mapaccess.go:361)	MOVQ	DX, (SI)
	0x0281 00641 (/home/xzl/work/golang-1.22/golang-1.22/test/codegen/mapaccess.go:367)	PCDATA	$0, $-1
	0x0281 00641 (/home/xzl/work/golang-1.22/golang-1.22/test/codegen/mapaccess.go:367)	LEAQ	type:map[int64][]int64(SB), AX
	0x0288 00648 (/home/xzl/work/golang-1.22/golang-1.22/test/codegen/mapaccess.go:367)	LEAQ	command-line-arguments..autotmp_5+376(SP), BX
	0x0290 00656 (/home/xzl/work/golang-1.22/golang-1.22/test/codegen/mapaccess.go:367)	MOVL	$1, CX
	0x0295 00661 (/home/xzl/work/golang-1.22/golang-1.22/test/codegen/mapaccess.go:367)	PCDATA	$1, $4
	0x0295 00661 (/home/xzl/work/golang-1.22/golang-1.22/test/codegen/mapaccess.go:367)	CALL	runtime.mapassign_fast64(SB)
	0x029a 00666 (/home/xzl/work/golang-1.22/golang-1.22/test/codegen/mapaccess.go:367)	MOVQ	AX, command-line-arguments..autotmp_51+360(SP)
	0x02a2 00674 (/home/xzl/work/golang-1.22/golang-1.22/test/codegen/mapaccess.go:367)	MOVQ	16(AX), CX
	0x02a6 00678 (/home/xzl/work/golang-1.22/golang-1.22/test/codegen/mapaccess.go:367)	MOVQ	8(AX), BX
	0x02aa 00682 (/home/xzl/work/golang-1.22/golang-1.22/test/codegen/mapaccess.go:367)	LEAQ	4(BX), DX
	0x02ae 00686 (/home/xzl/work/golang-1.22/golang-1.22/test/codegen/mapaccess.go:367)	MOVQ	(AX), SI
	0x02b1 00689 (/home/xzl/work/golang-1.22/golang-1.22/test/codegen/mapaccess.go:367)	CMPQ	CX, DX
	0x02b4 00692 (/home/xzl/work/golang-1.22/golang-1.22/test/codegen/mapaccess.go:367)	JCC	733
	0x02b6 00694 (/home/xzl/work/golang-1.22/golang-1.22/test/codegen/mapaccess.go:367)	MOVQ	BX, command-line-arguments..autotmp_48+72(SP)
	0x02bb 00699 (/home/xzl/work/golang-1.22/golang-1.22/test/codegen/mapaccess.go:367)	MOVQ	SI, AX
	0x02be 00702 (/home/xzl/work/golang-1.22/golang-1.22/test/codegen/mapaccess.go:367)	MOVQ	DX, BX
	0x02c1 00705 (/home/xzl/work/golang-1.22/golang-1.22/test/codegen/mapaccess.go:367)	MOVL	$4, DI
	0x02c6 00710 (/home/xzl/work/golang-1.22/golang-1.22/test/codegen/mapaccess.go:367)	LEAQ	type:int64(SB), SI
	0x02cd 00717 (/home/xzl/work/golang-1.22/golang-1.22/test/codegen/mapaccess.go:367)	PCDATA	$1, $7
	0x02cd 00717 (/home/xzl/work/golang-1.22/golang-1.22/test/codegen/mapaccess.go:367)	CALL	runtime.growslice(SB)
	0x02d2 00722 (/home/xzl/work/golang-1.22/golang-1.22/test/codegen/mapaccess.go:367)	MOVQ	AX, SI
	0x02d5 00725 (/home/xzl/work/golang-1.22/golang-1.22/test/codegen/mapaccess.go:367)	MOVQ	BX, DX
	0x02d8 00728 (/home/xzl/work/golang-1.22/golang-1.22/test/codegen/mapaccess.go:367)	MOVQ	command-line-arguments..autotmp_48+72(SP), BX
	0x02dd 00733 (/home/xzl/work/golang-1.22/golang-1.22/test/codegen/mapaccess.go:367)	MOVQ	SI, command-line-arguments..autotmp_50+368(SP)
	0x02e5 00741 (/home/xzl/work/golang-1.22/golang-1.22/test/codegen/mapaccess.go:367)	MOVQ	DX, command-line-arguments..autotmp_48+72(SP)
	0x02ea 00746 (/home/xzl/work/golang-1.22/golang-1.22/test/codegen/mapaccess.go:367)	MOVQ	CX, command-line-arguments..autotmp_49+64(SP)
	0x02ef 00751 (/home/xzl/work/golang-1.22/golang-1.22/test/codegen/mapaccess.go:367)	LEAQ	(SI)(BX*8), AX
	0x02f3 00755 (/home/xzl/work/golang-1.22/golang-1.22/test/codegen/mapaccess.go:367)	MOVQ	command-line-arguments..autotmp_46+432(SP), BX
	0x02fb 00763 (/home/xzl/work/golang-1.22/golang-1.22/test/codegen/mapaccess.go:367)	MOVL	$32, CX
	0x0300 00768 (/home/xzl/work/golang-1.22/golang-1.22/test/codegen/mapaccess.go:367)	PCDATA	$1, $8
	0x0300 00768 (/home/xzl/work/golang-1.22/golang-1.22/test/codegen/mapaccess.go:367)	CALL	runtime.memmove(SB)
	0x0305 00773 (/home/xzl/work/golang-1.22/golang-1.22/test/codegen/mapaccess.go:367)	MOVQ	command-line-arguments..autotmp_48+72(SP), DX
	0x030a 00778 (/home/xzl/work/golang-1.22/golang-1.22/test/codegen/mapaccess.go:367)	MOVQ	command-line-arguments..autotmp_51+360(SP), SI
	0x0312 00786 (/home/xzl/work/golang-1.22/golang-1.22/test/codegen/mapaccess.go:367)	MOVQ	DX, 8(SI)
	0x0316 00790 (/home/xzl/work/golang-1.22/golang-1.22/test/codegen/mapaccess.go:367)	MOVQ	command-line-arguments..autotmp_49+64(SP), DX
	0x031b 00795 (/home/xzl/work/golang-1.22/golang-1.22/test/codegen/mapaccess.go:367)	MOVQ	DX, 16(SI)
	0x031f 00799 (/home/xzl/work/golang-1.22/golang-1.22/test/codegen/mapaccess.go:367)	CMPL	runtime.writeBarrier(SB), $0
	0x0326 00806 (/home/xzl/work/golang-1.22/golang-1.22/test/codegen/mapaccess.go:367)	PCDATA	$0, $-2
	0x0326 00806 (/home/xzl/work/golang-1.22/golang-1.22/test/codegen/mapaccess.go:367)	JNE	818
	0x0328 00808 (/home/xzl/work/golang-1.22/golang-1.22/test/codegen/mapaccess.go:367)	MOVQ	command-line-arguments..autotmp_50+368(SP), DX
	0x0330 00816 (/home/xzl/work/golang-1.22/golang-1.22/test/codegen/mapaccess.go:367)	JMP	841
	0x0332 00818 (/home/xzl/work/golang-1.22/golang-1.22/test/codegen/mapaccess.go:367)	CALL	runtime.gcWriteBarrier2(SB)
	0x0337 00823 (/home/xzl/work/golang-1.22/golang-1.22/test/codegen/mapaccess.go:367)	MOVQ	command-line-arguments..autotmp_50+368(SP), DX
	0x033f 00831 (/home/xzl/work/golang-1.22/golang-1.22/test/codegen/mapaccess.go:367)	MOVQ	DX, (R11)
	0x0342 00834 (/home/xzl/work/golang-1.22/golang-1.22/test/codegen/mapaccess.go:367)	MOVQ	(SI), DI
	0x0345 00837 (/home/xzl/work/golang-1.22/golang-1.22/test/codegen/mapaccess.go:367)	MOVQ	DI, 8(R11)
	0x0349 00841 (/home/xzl/work/golang-1.22/golang-1.22/test/codegen/mapaccess.go:367)	MOVQ	DX, (SI)
	0x034c 00844 (/home/xzl/work/golang-1.22/golang-1.22/test/codegen/mapaccess.go:373)	PCDATA	$0, $-1
	0x034c 00844 (/home/xzl/work/golang-1.22/golang-1.22/test/codegen/mapaccess.go:373)	LEAQ	type:map[int64][]int64(SB), AX
	0x0353 00851 (/home/xzl/work/golang-1.22/golang-1.22/test/codegen/mapaccess.go:373)	LEAQ	command-line-arguments..autotmp_5+376(SP), BX
	0x035b 00859 (/home/xzl/work/golang-1.22/golang-1.22/test/codegen/mapaccess.go:373)	XORL	CX, CX
	0x035d 00861 (/home/xzl/work/golang-1.22/golang-1.22/test/codegen/mapaccess.go:373)	PCDATA	$1, $4
	0x035d 00861 (/home/xzl/work/golang-1.22/golang-1.22/test/codegen/mapaccess.go:373)	NOP
	0x0360 00864 (/home/xzl/work/golang-1.22/golang-1.22/test/codegen/mapaccess.go:373)	CALL	runtime.mapassign_fast64(SB)
	0x0365 00869 (/home/xzl/work/golang-1.22/golang-1.22/test/codegen/mapaccess.go:373)	MOVQ	AX, command-line-arguments..autotmp_52+352(SP)
	0x036d 00877 (/home/xzl/work/golang-1.22/golang-1.22/test/codegen/mapaccess.go:373)	MOVQ	16(AX), CX
	0x0371 00881 (/home/xzl/work/golang-1.22/golang-1.22/test/codegen/mapaccess.go:373)	MOVQ	8(AX), BX
	0x0375 00885 (/home/xzl/work/golang-1.22/golang-1.22/test/codegen/mapaccess.go:373)	LEAQ	4(BX), DX
	0x0379 00889 (/home/xzl/work/golang-1.22/golang-1.22/test/codegen/mapaccess.go:373)	MOVQ	(AX), SI
	0x037c 00892 (/home/xzl/work/golang-1.22/golang-1.22/test/codegen/mapaccess.go:373)	NOP
	0x0380 00896 (/home/xzl/work/golang-1.22/golang-1.22/test/codegen/mapaccess.go:373)	CMPQ	CX, DX
	0x0383 00899 (/home/xzl/work/golang-1.22/golang-1.22/test/codegen/mapaccess.go:373)	JCC	944
	0x0385 00901 (/home/xzl/work/golang-1.22/golang-1.22/test/codegen/mapaccess.go:373)	MOVQ	BX, command-line-arguments..autotmp_48+72(SP)
	0x038a 00906 (/home/xzl/work/golang-1.22/golang-1.22/test/codegen/mapaccess.go:373)	MOVQ	SI, AX
	0x038d 00909 (/home/xzl/work/golang-1.22/golang-1.22/test/codegen/mapaccess.go:373)	MOVQ	DX, BX
	0x0390 00912 (/home/xzl/work/golang-1.22/golang-1.22/test/codegen/mapaccess.go:373)	MOVL	$4, DI
	0x0395 00917 (/home/xzl/work/golang-1.22/golang-1.22/test/codegen/mapaccess.go:373)	LEAQ	type:int64(SB), SI
	0x039c 00924 (/home/xzl/work/golang-1.22/golang-1.22/test/codegen/mapaccess.go:373)	PCDATA	$1, $9
	0x039c 00924 (/home/xzl/work/golang-1.22/golang-1.22/test/codegen/mapaccess.go:373)	NOP
	0x03a0 00928 (/home/xzl/work/golang-1.22/golang-1.22/test/codegen/mapaccess.go:373)	CALL	runtime.growslice(SB)
	0x03a5 00933 (/home/xzl/work/golang-1.22/golang-1.22/test/codegen/mapaccess.go:373)	MOVQ	AX, SI
	0x03a8 00936 (/home/xzl/work/golang-1.22/golang-1.22/test/codegen/mapaccess.go:373)	MOVQ	BX, DX
	0x03ab 00939 (/home/xzl/work/golang-1.22/golang-1.22/test/codegen/mapaccess.go:373)	MOVQ	command-line-arguments..autotmp_48+72(SP), BX
	0x03b0 00944 (/home/xzl/work/golang-1.22/golang-1.22/test/codegen/mapaccess.go:373)	MOVQ	CX, command-line-arguments..autotmp_48+72(SP)
	0x03b5 00949 (/home/xzl/work/golang-1.22/golang-1.22/test/codegen/mapaccess.go:373)	MOVQ	DX, command-line-arguments..autotmp_49+64(SP)
	0x03ba 00954 (/home/xzl/work/golang-1.22/golang-1.22/test/codegen/mapaccess.go:373)	MOVQ	SI, command-line-arguments..autotmp_50+368(SP)
	0x03c2 00962 (/home/xzl/work/golang-1.22/golang-1.22/test/codegen/mapaccess.go:373)	LEAQ	(SI)(BX*8), AX
	0x03c6 00966 (/home/xzl/work/golang-1.22/golang-1.22/test/codegen/mapaccess.go:373)	MOVQ	command-line-arguments..autotmp_46+432(SP), BX
	0x03ce 00974 (/home/xzl/work/golang-1.22/golang-1.22/test/codegen/mapaccess.go:373)	MOVL	$32, CX
	0x03d3 00979 (/home/xzl/work/golang-1.22/golang-1.22/test/codegen/mapaccess.go:373)	PCDATA	$1, $10
	0x03d3 00979 (/home/xzl/work/golang-1.22/golang-1.22/test/codegen/mapaccess.go:373)	CALL	runtime.memmove(SB)
	0x03d8 00984 (/home/xzl/work/golang-1.22/golang-1.22/test/codegen/mapaccess.go:373)	MOVQ	command-line-arguments..autotmp_49+64(SP), DX
	0x03dd 00989 (/home/xzl/work/golang-1.22/golang-1.22/test/codegen/mapaccess.go:373)	MOVQ	command-line-arguments..autotmp_52+352(SP), SI
	0x03e5 00997 (/home/xzl/work/golang-1.22/golang-1.22/test/codegen/mapaccess.go:373)	MOVQ	DX, 8(SI)
	0x03e9 01001 (/home/xzl/work/golang-1.22/golang-1.22/test/codegen/mapaccess.go:373)	MOVQ	command-line-arguments..autotmp_48+72(SP), DX
	0x03ee 01006 (/home/xzl/work/golang-1.22/golang-1.22/test/codegen/mapaccess.go:373)	MOVQ	DX, 16(SI)
	0x03f2 01010 (/home/xzl/work/golang-1.22/golang-1.22/test/codegen/mapaccess.go:373)	CMPL	runtime.writeBarrier(SB), $0
	0x03f9 01017 (/home/xzl/work/golang-1.22/golang-1.22/test/codegen/mapaccess.go:373)	PCDATA	$0, $-2
	0x03f9 01017 (/home/xzl/work/golang-1.22/golang-1.22/test/codegen/mapaccess.go:373)	JNE	1029
	0x03fb 01019 (/home/xzl/work/golang-1.22/golang-1.22/test/codegen/mapaccess.go:373)	MOVQ	command-line-arguments..autotmp_50+368(SP), DX
	0x0403 01027 (/home/xzl/work/golang-1.22/golang-1.22/test/codegen/mapaccess.go:373)	JMP	1052
	0x0405 01029 (/home/xzl/work/golang-1.22/golang-1.22/test/codegen/mapaccess.go:373)	CALL	runtime.gcWriteBarrier2(SB)
	0x040a 01034 (/home/xzl/work/golang-1.22/golang-1.22/test/codegen/mapaccess.go:373)	MOVQ	command-line-arguments..autotmp_50+368(SP), DX
	0x0412 01042 (/home/xzl/work/golang-1.22/golang-1.22/test/codegen/mapaccess.go:373)	MOVQ	DX, (R11)
	0x0415 01045 (/home/xzl/work/golang-1.22/golang-1.22/test/codegen/mapaccess.go:373)	MOVQ	(SI), DI
	0x0418 01048 (/home/xzl/work/golang-1.22/golang-1.22/test/codegen/mapaccess.go:373)	MOVQ	DI, 8(R11)
	0x041c 01052 (/home/xzl/work/golang-1.22/golang-1.22/test/codegen/mapaccess.go:373)	MOVQ	DX, (SI)
	0x041f 01055 (/home/xzl/work/golang-1.22/golang-1.22/test/codegen/mapaccess.go:381)	PCDATA	$0, $-1
	0x041f 01055 (/home/xzl/work/golang-1.22/golang-1.22/test/codegen/mapaccess.go:381)	LEAQ	type:map[int64][]int64(SB), AX
	0x0426 01062 (/home/xzl/work/golang-1.22/golang-1.22/test/codegen/mapaccess.go:381)	LEAQ	command-line-arguments..autotmp_5+376(SP), BX
	0x042e 01070 (/home/xzl/work/golang-1.22/golang-1.22/test/codegen/mapaccess.go:381)	XORL	CX, CX
	0x0430 01072 (/home/xzl/work/golang-1.22/golang-1.22/test/codegen/mapaccess.go:381)	PCDATA	$1, $4
	0x0430 01072 (/home/xzl/work/golang-1.22/golang-1.22/test/codegen/mapaccess.go:381)	CALL	runtime.mapaccess1_fast64(SB)
	0x0435 01077 (/home/xzl/work/golang-1.22/golang-1.22/test/codegen/mapaccess.go:381)	MOVQ	8(AX), BX
	0x0439 01081 (/home/xzl/work/golang-1.22/golang-1.22/test/codegen/mapaccess.go:381)	LEAQ	4(BX), DX
	0x043d 01085 (/home/xzl/work/golang-1.22/golang-1.22/test/codegen/mapaccess.go:381)	MOVQ	(AX), SI
	0x0440 01088 (/home/xzl/work/golang-1.22/golang-1.22/test/codegen/mapaccess.go:381)	CMPQ	DX, $4
	0x0444 01092 (/home/xzl/work/golang-1.22/golang-1.22/test/codegen/mapaccess.go:381)	JHI	1109
	0x0446 01094 (/home/xzl/work/golang-1.22/golang-1.22/test/codegen/mapaccess.go:381)	MOVQ	command-line-arguments..autotmp_46+432(SP), AX
	0x044e 01102 (/home/xzl/work/golang-1.22/golang-1.22/test/codegen/mapaccess.go:381)	MOVL	$4, CX
	0x0453 01107 (/home/xzl/work/golang-1.22/golang-1.22/test/codegen/mapaccess.go:381)	JMP	1173
	0x0455 01109 (/home/xzl/work/golang-1.22/golang-1.22/test/codegen/mapaccess.go:381)	MOVQ	BX, command-line-arguments..autotmp_48+72(SP)
	0x045a 01114 (/home/xzl/work/golang-1.22/golang-1.22/test/codegen/mapaccess.go:381)	MOVQ	SI, command-line-arguments..autotmp_50+368(SP)
	0x0462 01122 (/home/xzl/work/golang-1.22/golang-1.22/test/codegen/mapaccess.go:381)	MOVQ	command-line-arguments..autotmp_46+432(SP), AX
	0x046a 01130 (/home/xzl/work/golang-1.22/golang-1.22/test/codegen/mapaccess.go:381)	MOVL	$4, CX
	0x046f 01135 (/home/xzl/work/golang-1.22/golang-1.22/test/codegen/mapaccess.go:381)	MOVQ	BX, DI
	0x0472 01138 (/home/xzl/work/golang-1.22/golang-1.22/test/codegen/mapaccess.go:381)	LEAQ	type:int64(SB), SI
	0x0479 01145 (/home/xzl/work/golang-1.22/golang-1.22/test/codegen/mapaccess.go:381)	MOVQ	DX, BX
	0x047c 01148 (/home/xzl/work/golang-1.22/golang-1.22/test/codegen/mapaccess.go:381)	PCDATA	$1, $11
	0x047c 01148 (/home/xzl/work/golang-1.22/golang-1.22/test/codegen/mapaccess.go:381)	NOP
	0x0480 01152 (/home/xzl/work/golang-1.22/golang-1.22/test/codegen/mapaccess.go:381)	CALL	runtime.growslice(SB)
	0x0485 01157 (/home/xzl/work/golang-1.22/golang-1.22/test/codegen/mapaccess.go:381)	MOVQ	command-line-arguments..autotmp_50+368(SP), SI
	0x048d 01165 (/home/xzl/work/golang-1.22/golang-1.22/test/codegen/mapaccess.go:381)	MOVQ	BX, DX
	0x0490 01168 (/home/xzl/work/golang-1.22/golang-1.22/test/codegen/mapaccess.go:381)	MOVQ	command-line-arguments..autotmp_48+72(SP), BX
	0x0495 01173 (/home/xzl/work/golang-1.22/golang-1.22/test/codegen/mapaccess.go:381)	MOVQ	CX, command-line-arguments..autotmp_48+72(SP)
	0x049a 01178 (/home/xzl/work/golang-1.22/golang-1.22/test/codegen/mapaccess.go:381)	MOVQ	DX, command-line-arguments..autotmp_49+64(SP)
	0x049f 01183 (/home/xzl/work/golang-1.22/golang-1.22/test/codegen/mapaccess.go:381)	MOVQ	AX, command-line-arguments..autotmp_50+368(SP)
	0x04a7 01191 (/home/xzl/work/golang-1.22/golang-1.22/test/codegen/mapaccess.go:381)	SHLQ	$3, BX
	0x04ab 01195 (/home/xzl/work/golang-1.22/golang-1.22/test/codegen/mapaccess.go:381)	LEAQ	32(AX), DI
	0x04af 01199 (/home/xzl/work/golang-1.22/golang-1.22/test/codegen/mapaccess.go:381)	MOVQ	DI, AX
	0x04b2 01202 (/home/xzl/work/golang-1.22/golang-1.22/test/codegen/mapaccess.go:381)	MOVQ	BX, R9
	0x04b5 01205 (/home/xzl/work/golang-1.22/golang-1.22/test/codegen/mapaccess.go:381)	MOVQ	SI, BX
	0x04b8 01208 (/home/xzl/work/golang-1.22/golang-1.22/test/codegen/mapaccess.go:381)	MOVQ	R9, CX
	0x04bb 01211 (/home/xzl/work/golang-1.22/golang-1.22/test/codegen/mapaccess.go:381)	NOP
	0x04c0 01216 (/home/xzl/work/golang-1.22/golang-1.22/test/codegen/mapaccess.go:381)	CALL	runtime.memmove(SB)
	0x04c5 01221 (/home/xzl/work/golang-1.22/golang-1.22/test/codegen/mapaccess.go:381)	LEAQ	type:map[int64][]int64(SB), AX
	0x04cc 01228 (/home/xzl/work/golang-1.22/golang-1.22/test/codegen/mapaccess.go:381)	LEAQ	command-line-arguments..autotmp_5+376(SP), BX
	0x04d4 01236 (/home/xzl/work/golang-1.22/golang-1.22/test/codegen/mapaccess.go:381)	XORL	CX, CX
	0x04d6 01238 (/home/xzl/work/golang-1.22/golang-1.22/test/codegen/mapaccess.go:381)	CALL	runtime.mapassign_fast64(SB)
	0x04db 01243 (/home/xzl/work/golang-1.22/golang-1.22/test/codegen/mapaccess.go:381)	MOVQ	command-line-arguments..autotmp_49+64(SP), DX
	0x04e0 01248 (/home/xzl/work/golang-1.22/golang-1.22/test/codegen/mapaccess.go:381)	MOVQ	DX, 8(AX)
	0x04e4 01252 (/home/xzl/work/golang-1.22/golang-1.22/test/codegen/mapaccess.go:381)	MOVQ	command-line-arguments..autotmp_48+72(SP), DX
	0x04e9 01257 (/home/xzl/work/golang-1.22/golang-1.22/test/codegen/mapaccess.go:381)	MOVQ	DX, 16(AX)
	0x04ed 01261 (/home/xzl/work/golang-1.22/golang-1.22/test/codegen/mapaccess.go:381)	CMPL	runtime.writeBarrier(SB), $0
	0x04f4 01268 (/home/xzl/work/golang-1.22/golang-1.22/test/codegen/mapaccess.go:381)	PCDATA	$0, $-2
	0x04f4 01268 (/home/xzl/work/golang-1.22/golang-1.22/test/codegen/mapaccess.go:381)	JNE	1282
	0x04f6 01270 (/home/xzl/work/golang-1.22/golang-1.22/test/codegen/mapaccess.go:381)	MOVQ	command-line-arguments..autotmp_50+368(SP), DX
	0x04fe 01278 (/home/xzl/work/golang-1.22/golang-1.22/test/codegen/mapaccess.go:381)	NOP
	0x0500 01280 (/home/xzl/work/golang-1.22/golang-1.22/test/codegen/mapaccess.go:381)	JMP	1305
	0x0502 01282 (/home/xzl/work/golang-1.22/golang-1.22/test/codegen/mapaccess.go:381)	CALL	runtime.gcWriteBarrier2(SB)
	0x0507 01287 (/home/xzl/work/golang-1.22/golang-1.22/test/codegen/mapaccess.go:381)	MOVQ	command-line-arguments..autotmp_50+368(SP), DX
	0x050f 01295 (/home/xzl/work/golang-1.22/golang-1.22/test/codegen/mapaccess.go:381)	MOVQ	DX, (R11)
	0x0512 01298 (/home/xzl/work/golang-1.22/golang-1.22/test/codegen/mapaccess.go:381)	MOVQ	(AX), SI
	0x0515 01301 (/home/xzl/work/golang-1.22/golang-1.22/test/codegen/mapaccess.go:381)	MOVQ	SI, 8(R11)
	0x0519 01305 (/home/xzl/work/golang-1.22/golang-1.22/test/codegen/mapaccess.go:381)	MOVQ	DX, (AX)
	0x051c 01308 (/home/xzl/work/golang-1.22/golang-1.22/test/codegen/mapaccess.go:387)	PCDATA	$0, $-1
	0x051c 01308 (/home/xzl/work/golang-1.22/golang-1.22/test/codegen/mapaccess.go:387)	LEAQ	type:map[int64][]int64(SB), AX
	0x0523 01315 (/home/xzl/work/golang-1.22/golang-1.22/test/codegen/mapaccess.go:387)	LEAQ	command-line-arguments..autotmp_5+376(SP), BX
	0x052b 01323 (/home/xzl/work/golang-1.22/golang-1.22/test/codegen/mapaccess.go:387)	XORL	CX, CX
	0x052d 01325 (/home/xzl/work/golang-1.22/golang-1.22/test/codegen/mapaccess.go:387)	PCDATA	$1, $1
	0x052d 01325 (/home/xzl/work/golang-1.22/golang-1.22/test/codegen/mapaccess.go:387)	CALL	runtime.mapaccess1_fast64(SB)
	0x0532 01330 (/home/xzl/work/golang-1.22/golang-1.22/test/codegen/mapaccess.go:387)	MOVQ	16(AX), CX
	0x0536 01334 (/home/xzl/work/golang-1.22/golang-1.22/test/codegen/mapaccess.go:387)	MOVQ	8(AX), BX
	0x053a 01338 (/home/xzl/work/golang-1.22/golang-1.22/test/codegen/mapaccess.go:387)	INCQ	BX
	0x053d 01341 (/home/xzl/work/golang-1.22/golang-1.22/test/codegen/mapaccess.go:387)	MOVQ	(AX), AX
	0x0540 01344 (/home/xzl/work/golang-1.22/golang-1.22/test/codegen/mapaccess.go:387)	CMPQ	CX, BX
	0x0543 01347 (/home/xzl/work/golang-1.22/golang-1.22/test/codegen/mapaccess.go:387)	JCC	1366
	0x0545 01349 (/home/xzl/work/golang-1.22/golang-1.22/test/codegen/mapaccess.go:387)	MOVL	$1, DI
	0x054a 01354 (/home/xzl/work/golang-1.22/golang-1.22/test/codegen/mapaccess.go:387)	LEAQ	type:int64(SB), SI
	0x0551 01361 (/home/xzl/work/golang-1.22/golang-1.22/test/codegen/mapaccess.go:387)	CALL	runtime.growslice(SB)
	0x0556 01366 (/home/xzl/work/golang-1.22/golang-1.22/test/codegen/mapaccess.go:387)	MOVQ	AX, command-line-arguments..autotmp_50+368(SP)
	0x055e 01374 (/home/xzl/work/golang-1.22/golang-1.22/test/codegen/mapaccess.go:387)	MOVQ	BX, command-line-arguments..autotmp_48+72(SP)
	0x0563 01379 (/home/xzl/work/golang-1.22/golang-1.22/test/codegen/mapaccess.go:387)	MOVQ	CX, command-line-arguments..autotmp_49+64(SP)
	0x0568 01384 (/home/xzl/work/golang-1.22/golang-1.22/test/codegen/mapaccess.go:387)	MOVQ	$99, -8(AX)(BX*8)
	0x0571 01393 (/home/xzl/work/golang-1.22/golang-1.22/test/codegen/mapaccess.go:387)	MOVBLZX	command-line-arguments.sinkAppend(SB), DX
	0x0578 01400 (/home/xzl/work/golang-1.22/golang-1.22/test/codegen/mapaccess.go:387)	XORL	$1, DX
	0x057b 01403 (/home/xzl/work/golang-1.22/golang-1.22/test/codegen/mapaccess.go:387)	MOVB	DL, command-line-arguments.sinkAppend(SB)
	0x0581 01409 (/home/xzl/work/golang-1.22/golang-1.22/test/codegen/mapaccess.go:387)	LEAQ	type:map[int64][]int64(SB), AX
	0x0588 01416 (/home/xzl/work/golang-1.22/golang-1.22/test/codegen/mapaccess.go:387)	LEAQ	command-line-arguments..autotmp_5+376(SP), BX
	0x0590 01424 (/home/xzl/work/golang-1.22/golang-1.22/test/codegen/mapaccess.go:387)	XORL	CX, CX
	0x0592 01426 (/home/xzl/work/golang-1.22/golang-1.22/test/codegen/mapaccess.go:387)	PCDATA	$1, $11
	0x0592 01426 (/home/xzl/work/golang-1.22/golang-1.22/test/codegen/mapaccess.go:387)	CALL	runtime.mapassign_fast64(SB)
	0x0597 01431 (/home/xzl/work/golang-1.22/golang-1.22/test/codegen/mapaccess.go:387)	MOVQ	command-line-arguments..autotmp_48+72(SP), DX
	0x059c 01436 (/home/xzl/work/golang-1.22/golang-1.22/test/codegen/mapaccess.go:387)	MOVQ	DX, 8(AX)
	0x05a0 01440 (/home/xzl/work/golang-1.22/golang-1.22/test/codegen/mapaccess.go:387)	MOVQ	command-line-arguments..autotmp_49+64(SP), DX
	0x05a5 01445 (/home/xzl/work/golang-1.22/golang-1.22/test/codegen/mapaccess.go:387)	MOVQ	DX, 16(AX)
	0x05a9 01449 (/home/xzl/work/golang-1.22/golang-1.22/test/codegen/mapaccess.go:387)	CMPL	runtime.writeBarrier(SB), $0
	0x05b0 01456 (/home/xzl/work/golang-1.22/golang-1.22/test/codegen/mapaccess.go:387)	PCDATA	$0, $-2
	0x05b0 01456 (/home/xzl/work/golang-1.22/golang-1.22/test/codegen/mapaccess.go:387)	JNE	1472
	0x05b2 01458 (/home/xzl/work/golang-1.22/golang-1.22/test/codegen/mapaccess.go:387)	MOVQ	command-line-arguments..autotmp_50+368(SP), DX
	0x05ba 01466 (/home/xzl/work/golang-1.22/golang-1.22/test/codegen/mapaccess.go:387)	JMP	1495
	0x05bc 01468 (/home/xzl/work/golang-1.22/golang-1.22/test/codegen/mapaccess.go:387)	NOP
	0x05c0 01472 (/home/xzl/work/golang-1.22/golang-1.22/test/codegen/mapaccess.go:387)	CALL	runtime.gcWriteBarrier2(SB)
	0x05c5 01477 (/home/xzl/work/golang-1.22/golang-1.22/test/codegen/mapaccess.go:387)	MOVQ	command-line-arguments..autotmp_50+368(SP), DX
	0x05cd 01485 (/home/xzl/work/golang-1.22/golang-1.22/test/codegen/mapaccess.go:387)	MOVQ	DX, (R11)
	0x05d0 01488 (/home/xzl/work/golang-1.22/golang-1.22/test/codegen/mapaccess.go:387)	MOVQ	(AX), SI
	0x05d3 01491 (/home/xzl/work/golang-1.22/golang-1.22/test/codegen/mapaccess.go:387)	MOVQ	SI, 8(R11)
	0x05d7 01495 (/home/xzl/work/golang-1.22/golang-1.22/test/codegen/mapaccess.go:387)	MOVQ	DX, (AX)
	0x05da 01498 (/home/xzl/work/golang-1.22/golang-1.22/test/codegen/mapaccess.go:393)	PCDATA	$0, $-1
	0x05da 01498 (/home/xzl/work/golang-1.22/golang-1.22/test/codegen/mapaccess.go:393)	LEAQ	type:map[int64][]int64(SB), AX
	0x05e1 01505 (/home/xzl/work/golang-1.22/golang-1.22/test/codegen/mapaccess.go:393)	LEAQ	command-line-arguments..autotmp_5+376(SP), BX
	0x05e9 01513 (/home/xzl/work/golang-1.22/golang-1.22/test/codegen/mapaccess.go:393)	MOVL	$1, CX
	0x05ee 01518 (/home/xzl/work/golang-1.22/golang-1.22/test/codegen/mapaccess.go:393)	PCDATA	$1, $1
	0x05ee 01518 (/home/xzl/work/golang-1.22/golang-1.22/test/codegen/mapaccess.go:393)	CALL	runtime.mapaccess1_fast64(SB)
	0x05f3 01523 (/home/xzl/work/golang-1.22/golang-1.22/test/codegen/mapaccess.go:393)	MOVQ	16(AX), CX
	0x05f7 01527 (/home/xzl/work/golang-1.22/golang-1.22/test/codegen/mapaccess.go:393)	MOVQ	8(AX), BX
	0x05fb 01531 (/home/xzl/work/golang-1.22/golang-1.22/test/codegen/mapaccess.go:393)	INCQ	BX
	0x05fe 01534 (/home/xzl/work/golang-1.22/golang-1.22/test/codegen/mapaccess.go:393)	MOVQ	(AX), AX
	0x0601 01537 (/home/xzl/work/golang-1.22/golang-1.22/test/codegen/mapaccess.go:393)	CMPQ	CX, BX
	0x0604 01540 (/home/xzl/work/golang-1.22/golang-1.22/test/codegen/mapaccess.go:393)	JCC	1559
	0x0606 01542 (/home/xzl/work/golang-1.22/golang-1.22/test/codegen/mapaccess.go:393)	MOVL	$1, DI
	0x060b 01547 (/home/xzl/work/golang-1.22/golang-1.22/test/codegen/mapaccess.go:393)	LEAQ	type:int64(SB), SI
	0x0612 01554 (/home/xzl/work/golang-1.22/golang-1.22/test/codegen/mapaccess.go:393)	CALL	runtime.growslice(SB)
	0x0617 01559 (/home/xzl/work/golang-1.22/golang-1.22/test/codegen/mapaccess.go:393)	MOVQ	AX, command-line-arguments..autotmp_50+368(SP)
	0x061f 01567 (/home/xzl/work/golang-1.22/golang-1.22/test/codegen/mapaccess.go:393)	MOVQ	BX, command-line-arguments..autotmp_48+72(SP)
	0x0624 01572 (/home/xzl/work/golang-1.22/golang-1.22/test/codegen/mapaccess.go:393)	MOVQ	CX, command-line-arguments..autotmp_49+64(SP)
	0x0629 01577 (/home/xzl/work/golang-1.22/golang-1.22/test/codegen/mapaccess.go:393)	MOVQ	$100, -8(AX)(BX*8)
	0x0632 01586 (/home/xzl/work/golang-1.22/golang-1.22/test/codegen/mapaccess.go:393)	LEAQ	type:map[int64][]int64(SB), AX
	0x0639 01593 (/home/xzl/work/golang-1.22/golang-1.22/test/codegen/mapaccess.go:393)	LEAQ	command-line-arguments..autotmp_5+376(SP), BX
	0x0641 01601 (/home/xzl/work/golang-1.22/golang-1.22/test/codegen/mapaccess.go:393)	XORL	CX, CX
	0x0643 01603 (/home/xzl/work/golang-1.22/golang-1.22/test/codegen/mapaccess.go:393)	PCDATA	$1, $12
	0x0643 01603 (/home/xzl/work/golang-1.22/golang-1.22/test/codegen/mapaccess.go:393)	CALL	runtime.mapassign_fast64(SB)
	0x0648 01608 (/home/xzl/work/golang-1.22/golang-1.22/test/codegen/mapaccess.go:393)	MOVQ	command-line-arguments..autotmp_48+72(SP), DX
	0x064d 01613 (/home/xzl/work/golang-1.22/golang-1.22/test/codegen/mapaccess.go:393)	MOVQ	DX, 8(AX)
	0x0651 01617 (/home/xzl/work/golang-1.22/golang-1.22/test/codegen/mapaccess.go:393)	MOVQ	command-line-arguments..autotmp_49+64(SP), DX
	0x0656 01622 (/home/xzl/work/golang-1.22/golang-1.22/test/codegen/mapaccess.go:393)	MOVQ	DX, 16(AX)
	0x065a 01626 (/home/xzl/work/golang-1.22/golang-1.22/test/codegen/mapaccess.go:393)	CMPL	runtime.writeBarrier(SB), $0
	0x0661 01633 (/home/xzl/work/golang-1.22/golang-1.22/test/codegen/mapaccess.go:393)	PCDATA	$0, $-2
	0x0661 01633 (/home/xzl/work/golang-1.22/golang-1.22/test/codegen/mapaccess.go:393)	JNE	1645
	0x0663 01635 (/home/xzl/work/golang-1.22/golang-1.22/test/codegen/mapaccess.go:393)	MOVQ	command-line-arguments..autotmp_50+368(SP), CX
	0x066b 01643 (/home/xzl/work/golang-1.22/golang-1.22/test/codegen/mapaccess.go:393)	JMP	1668
	0x066d 01645 (/home/xzl/work/golang-1.22/golang-1.22/test/codegen/mapaccess.go:393)	CALL	runtime.gcWriteBarrier2(SB)
	0x0672 01650 (/home/xzl/work/golang-1.22/golang-1.22/test/codegen/mapaccess.go:393)	MOVQ	command-line-arguments..autotmp_50+368(SP), CX
	0x067a 01658 (/home/xzl/work/golang-1.22/golang-1.22/test/codegen/mapaccess.go:393)	MOVQ	CX, (R11)
	0x067d 01661 (/home/xzl/work/golang-1.22/golang-1.22/test/codegen/mapaccess.go:393)	MOVQ	(AX), DX
	0x0680 01664 (/home/xzl/work/golang-1.22/golang-1.22/test/codegen/mapaccess.go:393)	MOVQ	DX, 8(R11)
	0x0684 01668 (/home/xzl/work/golang-1.22/golang-1.22/test/codegen/mapaccess.go:393)	MOVQ	CX, (AX)
	0x0687 01671 (/home/xzl/work/golang-1.22/golang-1.22/test/codegen/mapaccess.go:394)	PCDATA	$0, $-1
	0x0687 01671 (/home/xzl/work/golang-1.22/golang-1.22/test/codegen/mapaccess.go:394)	ADDQ	$456, SP
	0x068e 01678 (/home/xzl/work/golang-1.22/golang-1.22/test/codegen/mapaccess.go:394)	POPQ	BP
	0x068f 01679 (/home/xzl/work/golang-1.22/golang-1.22/test/codegen/mapaccess.go:394)	RET
	0x0690 01680 (/home/xzl/work/golang-1.22/golang-1.22/test/codegen/mapaccess.go:394)	NOP
	0x0690 01680 (/home/xzl/work/golang-1.22/golang-1.22/test/codegen/mapaccess.go:339)	PCDATA	$1, $-1
	0x0690 01680 (/home/xzl/work/golang-1.22/golang-1.22/test/codegen/mapaccess.go:339)	PCDATA	$0, $-2
	0x0690 01680 (/home/xzl/work/golang-1.22/golang-1.22/test/codegen/mapaccess.go:339)	CALL	runtime.morestack_noctxt(SB)
	0x0695 01685 (/home/xzl/work/golang-1.22/golang-1.22/test/codegen/mapaccess.go:339)	PCDATA	$0, $-1
	0x0695 01685 (/home/xzl/work/golang-1.22/golang-1.22/test/codegen/mapaccess.go:339)	JMP	0
	0x0000 4c 8d a4 24 b0 fe ff ff 4d 3b 66 10 0f 86 7e 06  L..$....M;f...~.
	0x0010 00 00 55 48 89 e5 48 81 ec c8 01 00 00 44 0f 11  ..UH..H......D..
	0x0020 bc 24 78 01 00 00 44 0f 11 bc 24 88 01 00 00 44  .$x...D...$....D
	0x0030 0f 11 bc 24 98 01 00 00 48 8d 7c 24 50 48 8d 7f  ...$....H.|$PH..
	0x0040 d0 48 89 6c 24 f0 48 8d 6c 24 f0 e8 00 00 00 00  .H.l$.H.l$......
	0x0050 48 8b 6d 00 48 8d 44 24 50 48 89 84 24 88 01 00  H.m.H.D$PH..$...
	0x0060 00 e8 00 00 00 00 89 84 24 84 01 00 00 48 8d 05  ........$....H..
	0x0070 00 00 00 00 48 8d 9c 24 78 01 00 00 31 c9 66 90  ....H..$x...1.f.
	0x0080 e8 00 00 00 00 48 8b 48 10 48 8b 58 08 48 ff c3  .....H.H.H.X.H..
	0x0090 48 8b 10 48 39 d9 73 4c 48 89 84 24 c0 01 00 00  H..H9.sLH..$....
	0x00a0 48 89 d0 bf 01 00 00 00 48 8d 35 00 00 00 00 e8  H.......H.5.....
	0x00b0 00 00 00 00 48 8b 94 24 c0 01 00 00 48 89 4a 10  ....H..$....H.J.
	0x00c0 83 3d 00 00 00 00 00 74 0f e8 00 00 00 00 49 89  .=.....t......I.
	0x00d0 03 48 8b 32 49 89 73 08 48 89 02 48 89 c1 48 89  .H.2I.s.H..H..H.
	0x00e0 d0 48 89 ca 48 89 58 08 48 c7 44 da f8 01 00 00  .H..H.X.H.D.....
	0x00f0 00 48 8d 05 00 00 00 00 48 8d 9c 24 78 01 00 00  .H......H..$x...
	0x0100 31 c9 e8 00 00 00 00 48 8b 48 10 48 8b 58 08 48  1......H.H.H.X.H
	0x0110 83 c3 03 48 8b 10 48 39 d9 73 4c 48 89 84 24 b8  ...H..H9.sLH..$.
	0x0120 01 00 00 48 89 d0 bf 03 00 00 00 48 8d 35 00 00  ...H.......H.5..
	0x0130 00 00 e8 00 00 00 00 48 8b 94 24 b8 01 00 00 48  .......H..$....H
	0x0140 89 4a 10 83 3d 00 00 00 00 00 74 0f e8 00 00 00  .J..=.....t.....
	0x0150 00 49 89 03 48 8b 0a 49 89 4b 08 48 89 02 48 89  .I..H..I.K.H..H.
	0x0160 c1 48 89 d0 48 89 ca 48 89 58 08 48 c7 44 da e8  .H..H..H.X.H.D..
	0x0170 01 00 00 00 48 c7 44 da f0 02 00 00 00 48 c7 44  ....H.D......H.D
	0x0180 da f8 03 00 00 00 48 8d 05 00 00 00 00 e8 00 00  ......H.........
	0x0190 00 00 48 89 84 24 b0 01 00 00 48 c7 00 07 00 00  ..H..$....H.....
	0x01a0 00 48 c7 40 08 08 00 00 00 48 c7 40 10 09 00 00  .H.@.....H.@....
	0x01b0 00 48 c7 40 18 00 00 00 00 48 8d 9c 24 78 01 00  .H.@.....H..$x..
	0x01c0 00 31 c9 48 8d 05 00 00 00 00 e8 00 00 00 00 48  .1.H...........H
	0x01d0 89 84 24 a8 01 00 00 48 8b 48 10 48 8b 58 08 48  ..$....H.H.H.X.H
	0x01e0 8d 53 04 48 8b 30 48 39 d1 73 27 48 89 5c 24 48  .S.H.0H9.s'H.\$H
	0x01f0 48 89 f0 48 89 d3 bf 04 00 00 00 48 8d 35 00 00  H..H.......H.5..
	0x0200 00 00 e8 00 00 00 00 48 89 c6 48 89 da 48 8b 5c  .......H..H..H.\
	0x0210 24 48 48 89 4c 24 48 48 89 54 24 40 48 89 b4 24  $HH.L$HH.T$@H..$
	0x0220 70 01 00 00 48 8d 04 de 48 8b 9c 24 b0 01 00 00  p...H...H..$....
	0x0230 b9 20 00 00 00 e8 00 00 00 00 48 8b 54 24 40 48  . ........H.T$@H
	0x0240 8b b4 24 a8 01 00 00 48 89 56 08 48 8b 54 24 48  ..$....H.V.H.T$H
	0x0250 48 89 56 10 83 3d 00 00 00 00 00 75 0a 48 8b 94  H.V..=.....u.H..
	0x0260 24 70 01 00 00 eb 17 e8 00 00 00 00 48 8b 94 24  $p..........H..$
	0x0270 70 01 00 00 49 89 13 48 8b 3e 49 89 7b 08 48 89  p...I..H.>I.{.H.
	0x0280 16 48 8d 05 00 00 00 00 48 8d 9c 24 78 01 00 00  .H......H..$x...
	0x0290 b9 01 00 00 00 e8 00 00 00 00 48 89 84 24 68 01  ..........H..$h.
	0x02a0 00 00 48 8b 48 10 48 8b 58 08 48 8d 53 04 48 8b  ..H.H.H.X.H.S.H.
	0x02b0 30 48 39 d1 73 27 48 89 5c 24 48 48 89 f0 48 89  0H9.s'H.\$HH..H.
	0x02c0 d3 bf 04 00 00 00 48 8d 35 00 00 00 00 e8 00 00  ......H.5.......
	0x02d0 00 00 48 89 c6 48 89 da 48 8b 5c 24 48 48 89 b4  ..H..H..H.\$HH..
	0x02e0 24 70 01 00 00 48 89 54 24 48 48 89 4c 24 40 48  $p...H.T$HH.L$@H
	0x02f0 8d 04 de 48 8b 9c 24 b0 01 00 00 b9 20 00 00 00  ...H..$..... ...
	0x0300 e8 00 00 00 00 48 8b 54 24 48 48 8b b4 24 68 01  .....H.T$HH..$h.
	0x0310 00 00 48 89 56 08 48 8b 54 24 40 48 89 56 10 83  ..H.V.H.T$@H.V..
	0x0320 3d 00 00 00 00 00 75 0a 48 8b 94 24 70 01 00 00  =.....u.H..$p...
	0x0330 eb 17 e8 00 00 00 00 48 8b 94 24 70 01 00 00 49  .......H..$p...I
	0x0340 89 13 48 8b 3e 49 89 7b 08 48 89 16 48 8d 05 00  ..H.>I.{.H..H...
	0x0350 00 00 00 48 8d 9c 24 78 01 00 00 31 c9 0f 1f 00  ...H..$x...1....
	0x0360 e8 00 00 00 00 48 89 84 24 60 01 00 00 48 8b 48  .....H..$`...H.H
	0x0370 10 48 8b 58 08 48 8d 53 04 48 8b 30 0f 1f 40 00  .H.X.H.S.H.0..@.
	0x0380 48 39 d1 73 2b 48 89 5c 24 48 48 89 f0 48 89 d3  H9.s+H.\$HH..H..
	0x0390 bf 04 00 00 00 48 8d 35 00 00 00 00 0f 1f 40 00  .....H.5......@.
	0x03a0 e8 00 00 00 00 48 89 c6 48 89 da 48 8b 5c 24 48  .....H..H..H.\$H
	0x03b0 48 89 4c 24 48 48 89 54 24 40 48 89 b4 24 70 01  H.L$HH.T$@H..$p.
	0x03c0 00 00 48 8d 04 de 48 8b 9c 24 b0 01 00 00 b9 20  ..H...H..$..... 
	0x03d0 00 00 00 e8 00 00 00 00 48 8b 54 24 40 48 8b b4  ........H.T$@H..
	0x03e0 24 60 01 00 00 48 89 56 08 48 8b 54 24 48 48 89  $`...H.V.H.T$HH.
	0x03f0 56 10 83 3d 00 00 00 00 00 75 0a 48 8b 94 24 70  V..=.....u.H..$p
	0x0400 01 00 00 eb 17 e8 00 00 00 00 48 8b 94 24 70 01  ..........H..$p.
	0x0410 00 00 49 89 13 48 8b 3e 49 89 7b 08 48 89 16 48  ..I..H.>I.{.H..H
	0x0420 8d 05 00 00 00 00 48 8d 9c 24 78 01 00 00 31 c9  ......H..$x...1.
	0x0430 e8 00 00 00 00 48 8b 58 08 48 8d 53 04 48 8b 30  .....H.X.H.S.H.0
	0x0440 48 83 fa 04 77 0f 48 8b 84 24 b0 01 00 00 b9 04  H...w.H..$......
	0x0450 00 00 00 eb 40 48 89 5c 24 48 48 89 b4 24 70 01  ....@H.\$HH..$p.
	0x0460 00 00 48 8b 84 24 b0 01 00 00 b9 04 00 00 00 48  ..H..$.........H
	0x0470 89 df 48 8d 35 00 00 00 00 48 89 d3 0f 1f 40 00  ..H.5....H....@.
	0x0480 e8 00 00 00 00 48 8b b4 24 70 01 00 00 48 89 da  .....H..$p...H..
	0x0490 48 8b 5c 24 48 48 89 4c 24 48 48 89 54 24 40 48  H.\$HH.L$HH.T$@H
	0x04a0 89 84 24 70 01 00 00 48 c1 e3 03 48 8d 78 20 48  ..$p...H...H.x H
	0x04b0 89 f8 49 89 d9 48 89 f3 4c 89 c9 0f 1f 44 00 00  ..I..H..L....D..
	0x04c0 e8 00 00 00 00 48 8d 05 00 00 00 00 48 8d 9c 24  .....H......H..$
	0x04d0 78 01 00 00 31 c9 e8 00 00 00 00 48 8b 54 24 40  x...1......H.T$@
	0x04e0 48 89 50 08 48 8b 54 24 48 48 89 50 10 83 3d 00  H.P.H.T$HH.P..=.
	0x04f0 00 00 00 00 75 0c 48 8b 94 24 70 01 00 00 66 90  ....u.H..$p...f.
	0x0500 eb 17 e8 00 00 00 00 48 8b 94 24 70 01 00 00 49  .......H..$p...I
	0x0510 89 13 48 8b 30 49 89 73 08 48 89 10 48 8d 05 00  ..H.0I.s.H..H...
	0x0520 00 00 00 48 8d 9c 24 78 01 00 00 31 c9 e8 00 00  ...H..$x...1....
	0x0530 00 00 48 8b 48 10 48 8b 58 08 48 ff c3 48 8b 00  ..H.H.H.X.H..H..
	0x0540 48 39 d9 73 11 bf 01 00 00 00 48 8d 35 00 00 00  H9.s......H.5...
	0x0550 00 e8 00 00 00 00 48 89 84 24 70 01 00 00 48 89  ......H..$p...H.
	0x0560 5c 24 48 48 89 4c 24 40 48 c7 44 d8 f8 63 00 00  \$HH.L$@H.D..c..
	0x0570 00 0f b6 15 00 00 00 00 83 f2 01 88 15 00 00 00  ................
	0x0580 00 48 8d 05 00 00 00 00 48 8d 9c 24 78 01 00 00  .H......H..$x...
	0x0590 31 c9 e8 00 00 00 00 48 8b 54 24 48 48 89 50 08  1......H.T$HH.P.
	0x05a0 48 8b 54 24 40 48 89 50 10 83 3d 00 00 00 00 00  H.T$@H.P..=.....
	0x05b0 75 0e 48 8b 94 24 70 01 00 00 eb 1b 0f 1f 40 00  u.H..$p.......@.
	0x05c0 e8 00 00 00 00 48 8b 94 24 70 01 00 00 49 89 13  .....H..$p...I..
	0x05d0 48 8b 30 49 89 73 08 48 89 10 48 8d 05 00 00 00  H.0I.s.H..H.....
	0x05e0 00 48 8d 9c 24 78 01 00 00 b9 01 00 00 00 e8 00  .H..$x..........
	0x05f0 00 00 00 48 8b 48 10 48 8b 58 08 48 ff c3 48 8b  ...H.H.H.X.H..H.
	0x0600 00 48 39 d9 73 11 bf 01 00 00 00 48 8d 35 00 00  .H9.s......H.5..
	0x0610 00 00 e8 00 00 00 00 48 89 84 24 70 01 00 00 48  .......H..$p...H
	0x0620 89 5c 24 48 48 89 4c 24 40 48 c7 44 d8 f8 64 00  .\$HH.L$@H.D..d.
	0x0630 00 00 48 8d 05 00 00 00 00 48 8d 9c 24 78 01 00  ..H......H..$x..
	0x0640 00 31 c9 e8 00 00 00 00 48 8b 54 24 48 48 89 50  .1......H.T$HH.P
	0x0650 08 48 8b 54 24 40 48 89 50 10 83 3d 00 00 00 00  .H.T$@H.P..=....
	0x0660 00 75 0a 48 8b 8c 24 70 01 00 00 eb 17 e8 00 00  .u.H..$p........
	0x0670 00 00 48 8b 8c 24 70 01 00 00 49 89 0b 48 8b 10  ..H..$p...I..H..
	0x0680 49 89 53 08 48 89 08 48 81 c4 c8 01 00 00 5d c3  I.S.H..H......].
	0x0690 e8 00 00 00 00 e9 66 f9 ff ff                    ......f...
	rel 76+4 t=R_CALL runtime.duffzero<1>+267
	rel 98+4 t=R_CALL runtime.rand32<1>+0
	rel 112+4 t=R_PCREL type:map[int64][]int64<0>+0
	rel 129+4 t=R_CALL runtime.mapassign_fast64<1>+0
	rel 171+4 t=R_PCREL type:int64<0>+0
	rel 176+4 t=R_CALL runtime.growslice<1>+0
	rel 194+4 t=R_PCREL runtime.writeBarrier<0>+-1
	rel 202+4 t=R_CALL runtime.gcWriteBarrier2<1>+0
	rel 244+4 t=R_PCREL type:map[int64][]int64<0>+0
	rel 259+4 t=R_CALL runtime.mapassign_fast64<1>+0
	rel 302+4 t=R_PCREL type:int64<0>+0
	rel 307+4 t=R_CALL runtime.growslice<1>+0
	rel 325+4 t=R_PCREL runtime.writeBarrier<0>+-1
	rel 333+4 t=R_CALL runtime.gcWriteBarrier2<1>+0
	rel 393+4 t=R_PCREL type:[4]int64<0>+0
	rel 398+4 t=R_CALL runtime.newobject<1>+0
	rel 454+4 t=R_PCREL type:map[int64][]int64<0>+0
	rel 459+4 t=R_CALL runtime.mapassign_fast64<1>+0
	rel 510+4 t=R_PCREL type:int64<0>+0
	rel 515+4 t=R_CALL runtime.growslice<1>+0
	rel 566+4 t=R_CALL runtime.memmove<1>+0
	rel 598+4 t=R_PCREL runtime.writeBarrier<0>+-1
	rel 616+4 t=R_CALL runtime.gcWriteBarrier2<1>+0
	rel 644+4 t=R_PCREL type:map[int64][]int64<0>+0
	rel 662+4 t=R_CALL runtime.mapassign_fast64<1>+0
	rel 713+4 t=R_PCREL type:int64<0>+0
	rel 718+4 t=R_CALL runtime.growslice<1>+0
	rel 769+4 t=R_CALL runtime.memmove<1>+0
	rel 801+4 t=R_PCREL runtime.writeBarrier<0>+-1
	rel 819+4 t=R_CALL runtime.gcWriteBarrier2<1>+0
	rel 847+4 t=R_PCREL type:map[int64][]int64<0>+0
	rel 865+4 t=R_CALL runtime.mapassign_fast64<1>+0
	rel 920+4 t=R_PCREL type:int64<0>+0
	rel 929+4 t=R_CALL runtime.growslice<1>+0
	rel 980+4 t=R_CALL runtime.memmove<1>+0
	rel 1012+4 t=R_PCREL runtime.writeBarrier<0>+-1
	rel 1030+4 t=R_CALL runtime.gcWriteBarrier2<1>+0
	rel 1058+4 t=R_PCREL type:map[int64][]int64<0>+0
	rel 1073+4 t=R_CALL runtime.mapaccess1_fast64<1>+0
	rel 1141+4 t=R_PCREL type:int64<0>+0
	rel 1153+4 t=R_CALL runtime.growslice<1>+0
	rel 1217+4 t=R_CALL runtime.memmove<1>+0
	rel 1224+4 t=R_PCREL type:map[int64][]int64<0>+0
	rel 1239+4 t=R_CALL runtime.mapassign_fast64<1>+0
	rel 1263+4 t=R_PCREL runtime.writeBarrier<0>+-1
	rel 1283+4 t=R_CALL runtime.gcWriteBarrier2<1>+0
	rel 1311+4 t=R_PCREL type:map[int64][]int64<0>+0
	rel 1326+4 t=R_CALL runtime.mapaccess1_fast64<1>+0
	rel 1357+4 t=R_PCREL type:int64<0>+0
	rel 1362+4 t=R_CALL runtime.growslice<1>+0
	rel 1396+4 t=R_PCREL command-line-arguments.sinkAppend<0>+0
	rel 1405+4 t=R_PCREL command-line-arguments.sinkAppend<0>+0
	rel 1412+4 t=R_PCREL type:map[int64][]int64<0>+0
	rel 1427+4 t=R_CALL runtime.mapassign_fast64<1>+0
	rel 1451+4 t=R_PCREL runtime.writeBarrier<0>+-1
	rel 1473+4 t=R_CALL runtime.gcWriteBarrier2<1>+0
	rel 1501+4 t=R_PCREL type:map[int64][]int64<0>+0
	rel 1519+4 t=R_CALL runtime.mapaccess1_fast64<1>+0
	rel 1550+4 t=R_PCREL type:int64<0>+0
	rel 1555+4 t=R_CALL runtime.growslice<1>+0
	rel 1589+4 t=R_PCREL type:map[int64][]int64<0>+0
	rel 1604+4 t=R_CALL runtime.mapassign_fast64<1>+0
	rel 1628+4 t=R_PCREL runtime.writeBarrier<0>+-1
	rel 1646+4 t=R_CALL runtime.gcWriteBarrier2<1>+0
	rel 1681+4 t=R_CALL runtime.morestack_noctxt<0>+0
command-line-arguments.mapAppendAssignmentComplex128<1> STEXT size=1605 args=0x0 locals=0x250 funcid=0x0 align=0x0
	0x0000 00000 (/home/xzl/work/golang-1.22/golang-1.22/test/codegen/mapaccess.go:396)	TEXT	command-line-arguments.mapAppendAssignmentComplex128(SB), ABIInternal, $592-0
	0x0000 00000 (/home/xzl/work/golang-1.22/golang-1.22/test/codegen/mapaccess.go:396)	LEAQ	-464(SP), R12
	0x0008 00008 (/home/xzl/work/golang-1.22/golang-1.22/test/codegen/mapaccess.go:396)	CMPQ	R12, 16(R14)
	0x000c 00012 (/home/xzl/work/golang-1.22/golang-1.22/test/codegen/mapaccess.go:396)	PCDATA	$0, $-2
	0x000c 00012 (/home/xzl/work/golang-1.22/golang-1.22/test/codegen/mapaccess.go:396)	JLS	1594
	0x0012 00018 (/home/xzl/work/golang-1.22/golang-1.22/test/codegen/mapaccess.go:396)	PCDATA	$0, $-1
	0x0012 00018 (/home/xzl/work/golang-1.22/golang-1.22/test/codegen/mapaccess.go:396)	PUSHQ	BP
	0x0013 00019 (/home/xzl/work/golang-1.22/golang-1.22/test/codegen/mapaccess.go:396)	MOVQ	SP, BP
	0x0016 00022 (/home/xzl/work/golang-1.22/golang-1.22/test/codegen/mapaccess.go:396)	SUBQ	$584, SP
	0x001d 00029 (/home/xzl/work/golang-1.22/golang-1.22/test/codegen/mapaccess.go:396)	FUNCDATA	$0, gclocals·oC5IYUIQaeZahulcQD2bSg==(SB)
	0x001d 00029 (/home/xzl/work/golang-1.22/golang-1.22/test/codegen/mapaccess.go:396)	FUNCDATA	$1, gclocals·nRyUbHE6FokZF8uyShUmoQ==(SB)
	0x001d 00029 (/home/xzl/work/golang-1.22/golang-1.22/test/codegen/mapaccess.go:396)	FUNCDATA	$2, command-line-arguments.mapAppendAssignmentComplex128.stkobj(SB)
	0x001d 00029 (/home/xzl/work/golang-1.22/golang-1.22/test/codegen/mapaccess.go:397)	MOVUPS	X15, command-line-arguments..autotmp_6+464(SP)
	0x0026 00038 (/home/xzl/work/golang-1.22/golang-1.22/test/codegen/mapaccess.go:397)	MOVUPS	X15, command-line-arguments..autotmp_6+480(SP)
	0x002f 00047 (/home/xzl/work/golang-1.22/golang-1.22/test/codegen/mapaccess.go:397)	MOVUPS	X15, command-line-arguments..autotmp_6+496(SP)
	0x0038 00056 (/home/xzl/work/golang-1.22/golang-1.22/test/codegen/mapaccess.go:397)	LEAQ	command-line-arguments..autotmp_7+128(SP), DI
	0x0040 00064 (/home/xzl/work/golang-1.22/golang-1.22/test/codegen/mapaccess.go:397)	PCDATA	$0, $-2
	0x0040 00064 (/home/xzl/work/golang-1.22/golang-1.22/test/codegen/mapaccess.go:397)	LEAQ	-48(DI), DI
	0x0044 00068 (/home/xzl/work/golang-1.22/golang-1.22/test/codegen/mapaccess.go:397)	DUFFZERO	$244
	0x0057 00087 (/home/xzl/work/golang-1.22/golang-1.22/test/codegen/mapaccess.go:397)	PCDATA	$0, $-1
	0x0057 00087 (/home/xzl/work/golang-1.22/golang-1.22/test/codegen/mapaccess.go:397)	LEAQ	command-line-arguments..autotmp_7+128(SP), AX
	0x005f 00095 (/home/xzl/work/golang-1.22/golang-1.22/test/codegen/mapaccess.go:397)	MOVQ	AX, command-line-arguments..autotmp_6+480(SP)
	0x0067 00103 (/home/xzl/work/golang-1.22/golang-1.22/test/codegen/mapaccess.go:397)	PCDATA	$1, $1
	0x0067 00103 (/home/xzl/work/golang-1.22/golang-1.22/test/codegen/mapaccess.go:397)	CALL	runtime.rand32(SB)
	0x006c 00108 (/home/xzl/work/golang-1.22/golang-1.22/test/codegen/mapaccess.go:397)	MOVL	AX, command-line-arguments..autotmp_6+476(SP)
	0x0073 00115 (/home/xzl/work/golang-1.22/golang-1.22/test/codegen/mapaccess.go:404)	XORPS	X0, X0
	0x0076 00118 (/home/xzl/work/golang-1.22/golang-1.22/test/codegen/mapaccess.go:404)	MOVSD	X0, command-line-arguments..autotmp_3+96(SP)
	0x007c 00124 (/home/xzl/work/golang-1.22/golang-1.22/test/codegen/mapaccess.go:404)	MOVSD	X0, command-line-arguments..autotmp_3+104(SP)
	0x0082 00130 (/home/xzl/work/golang-1.22/golang-1.22/test/codegen/mapaccess.go:404)	LEAQ	type:map[complex128][]complex128(SB), AX
	0x0089 00137 (/home/xzl/work/golang-1.22/golang-1.22/test/codegen/mapaccess.go:404)	LEAQ	command-line-arguments..autotmp_6+464(SP), BX
	0x0091 00145 (/home/xzl/work/golang-1.22/golang-1.22/test/codegen/mapaccess.go:404)	LEAQ	command-line-arguments..autotmp_3+96(SP), CX
	0x0096 00150 (/home/xzl/work/golang-1.22/golang-1.22/test/codegen/mapaccess.go:404)	CALL	runtime.mapassign(SB)
	0x009b 00155 (/home/xzl/work/golang-1.22/golang-1.22/test/codegen/mapaccess.go:404)	MOVQ	16(AX), CX
	0x009f 00159 (/home/xzl/work/golang-1.22/golang-1.22/test/codegen/mapaccess.go:404)	MOVQ	8(AX), BX
	0x00a3 00163 (/home/xzl/work/golang-1.22/golang-1.22/test/codegen/mapaccess.go:404)	INCQ	BX
	0x00a6 00166 (/home/xzl/work/golang-1.22/golang-1.22/test/codegen/mapaccess.go:404)	MOVQ	(AX), DX
	0x00a9 00169 (/home/xzl/work/golang-1.22/golang-1.22/test/codegen/mapaccess.go:404)	CMPQ	CX, BX
	0x00ac 00172 (/home/xzl/work/golang-1.22/golang-1.22/test/codegen/mapaccess.go:404)	JCC	251
	0x00ae 00174 (/home/xzl/work/golang-1.22/golang-1.22/test/codegen/mapaccess.go:404)	MOVQ	AX, command-line-arguments..autotmp_33+576(SP)
	0x00b6 00182 (/home/xzl/work/golang-1.22/golang-1.22/test/codegen/mapaccess.go:404)	MOVQ	DX, AX
	0x00b9 00185 (/home/xzl/work/golang-1.22/golang-1.22/test/codegen/mapaccess.go:404)	MOVL	$1, DI
	0x00be 00190 (/home/xzl/work/golang-1.22/golang-1.22/test/codegen/mapaccess.go:404)	LEAQ	type:complex128(SB), SI
	0x00c5 00197 (/home/xzl/work/golang-1.22/golang-1.22/test/codegen/mapaccess.go:404)	PCDATA	$1, $2
	0x00c5 00197 (/home/xzl/work/golang-1.22/golang-1.22/test/codegen/mapaccess.go:404)	CALL	runtime.growslice(SB)
	0x00ca 00202 (/home/xzl/work/golang-1.22/golang-1.22/test/codegen/mapaccess.go:404)	MOVQ	command-line-arguments..autotmp_33+576(SP), DX
	0x00d2 00210 (/home/xzl/work/golang-1.22/golang-1.22/test/codegen/mapaccess.go:404)	MOVQ	CX, 16(DX)
	0x00d6 00214 (/home/xzl/work/golang-1.22/golang-1.22/test/codegen/mapaccess.go:404)	CMPL	runtime.writeBarrier(SB), $0
	0x00dd 00221 (/home/xzl/work/golang-1.22/golang-1.22/test/codegen/mapaccess.go:404)	PCDATA	$0, $-2
	0x00dd 00221 (/home/xzl/work/golang-1.22/golang-1.22/test/codegen/mapaccess.go:404)	JEQ	239
	0x00df 00223 (/home/xzl/work/golang-1.22/golang-1.22/test/codegen/mapaccess.go:404)	NOP
	0x00e0 00224 (/home/xzl/work/golang-1.22/golang-1.22/test/codegen/mapaccess.go:404)	CALL	runtime.gcWriteBarrier2(SB)
	0x00e5 00229 (/home/xzl/work/golang-1.22/golang-1.22/test/codegen/mapaccess.go:404)	MOVQ	AX, (R11)
	0x00e8 00232 (/home/xzl/work/golang-1.22/golang-1.22/test/codegen/mapaccess.go:404)	MOVQ	(DX), SI
	0x00eb 00235 (/home/xzl/work/golang-1.22/golang-1.22/test/codegen/mapaccess.go:404)	MOVQ	SI, 8(R11)
	0x00ef 00239 (/home/xzl/work/golang-1.22/golang-1.22/test/codegen/mapaccess.go:404)	MOVQ	AX, (DX)
	0x00f2 00242 (/home/xzl/work/golang-1.22/golang-1.22/test/codegen/mapaccess.go:404)	PCDATA	$0, $-1
	0x00f2 00242 (/home/xzl/work/golang-1.22/golang-1.22/test/codegen/mapaccess.go:404)	MOVQ	AX, CX
	0x00f5 00245 (/home/xzl/work/golang-1.22/golang-1.22/test/codegen/mapaccess.go:404)	MOVQ	DX, AX
	0x00f8 00248 (/home/xzl/work/golang-1.22/golang-1.22/test/codegen/mapaccess.go:404)	MOVQ	CX, DX
	0x00fb 00251 (/home/xzl/work/golang-1.22/golang-1.22/test/codegen/mapaccess.go:404)	MOVQ	BX, 8(AX)
	0x00ff 00255 (/home/xzl/work/golang-1.22/golang-1.22/test/codegen/mapaccess.go:404)	LEAQ	-1(BX), SI
	0x0103 00259 (/home/xzl/work/golang-1.22/golang-1.22/test/codegen/mapaccess.go:404)	SHLQ	$4, SI
	0x0107 00263 (/home/xzl/work/golang-1.22/golang-1.22/test/codegen/mapaccess.go:404)	MOVSD	$f64.3ff0000000000000(SB), X0
	0x010f 00271 (/home/xzl/work/golang-1.22/golang-1.22/test/codegen/mapaccess.go:404)	MOVSD	X0, (DX)(SI*1)
	0x0114 00276 (/home/xzl/work/golang-1.22/golang-1.22/test/codegen/mapaccess.go:404)	XORPS	X1, X1
	0x0117 00279 (/home/xzl/work/golang-1.22/golang-1.22/test/codegen/mapaccess.go:404)	MOVSD	X1, 8(DX)(SI*1)
	0x011d 00285 (/home/xzl/work/golang-1.22/golang-1.22/test/codegen/mapaccess.go:410)	MOVSD	X1, command-line-arguments..autotmp_3+96(SP)
	0x0123 00291 (/home/xzl/work/golang-1.22/golang-1.22/test/codegen/mapaccess.go:410)	MOVSD	X1, command-line-arguments..autotmp_3+104(SP)
	0x0129 00297 (/home/xzl/work/golang-1.22/golang-1.22/test/codegen/mapaccess.go:410)	LEAQ	type:map[complex128][]complex128(SB), AX
	0x0130 00304 (/home/xzl/work/golang-1.22/golang-1.22/test/codegen/mapaccess.go:410)	LEAQ	command-line-arguments..autotmp_6+464(SP), BX
	0x0138 00312 (/home/xzl/work/golang-1.22/golang-1.22/test/codegen/mapaccess.go:410)	LEAQ	command-line-arguments..autotmp_3+96(SP), CX
	0x013d 00317 (/home/xzl/work/golang-1.22/golang-1.22/test/codegen/mapaccess.go:410)	PCDATA	$1, $1
	0x013d 00317 (/home/xzl/work/golang-1.22/golang-1.22/test/codegen/mapaccess.go:410)	NOP
	0x0140 00320 (/home/xzl/work/golang-1.22/golang-1.22/test/codegen/mapaccess.go:410)	CALL	runtime.mapassign(SB)
	0x0145 00325 (/home/xzl/work/golang-1.22/golang-1.22/test/codegen/mapaccess.go:410)	MOVQ	16(AX), CX
	0x0149 00329 (/home/xzl/work/golang-1.22/golang-1.22/test/codegen/mapaccess.go:410)	MOVQ	8(AX), BX
	0x014d 00333 (/home/xzl/work/golang-1.22/golang-1.22/test/codegen/mapaccess.go:410)	ADDQ	$3, BX
	0x0151 00337 (/home/xzl/work/golang-1.22/golang-1.22/test/codegen/mapaccess.go:410)	MOVQ	(AX), DX
	0x0154 00340 (/home/xzl/work/golang-1.22/golang-1.22/test/codegen/mapaccess.go:410)	CMPQ	CX, BX
	0x0157 00343 (/home/xzl/work/golang-1.22/golang-1.22/test/codegen/mapaccess.go:410)	JCC	421
	0x0159 00345 (/home/xzl/work/golang-1.22/golang-1.22/test/codegen/mapaccess.go:410)	MOVQ	AX, command-line-arguments..autotmp_34+568(SP)
	0x0161 00353 (/home/xzl/work/golang-1.22/golang-1.22/test/codegen/mapaccess.go:410)	MOVQ	DX, AX
	0x0164 00356 (/home/xzl/work/golang-1.22/golang-1.22/test/codegen/mapaccess.go:410)	MOVL	$3, DI
	0x0169 00361 (/home/xzl/work/golang-1.22/golang-1.22/test/codegen/mapaccess.go:410)	LEAQ	type:complex128(SB), SI
	0x0170 00368 (/home/xzl/work/golang-1.22/golang-1.22/test/codegen/mapaccess.go:410)	PCDATA	$1, $3
	0x0170 00368 (/home/xzl/work/golang-1.22/golang-1.22/test/codegen/mapaccess.go:410)	CALL	runtime.growslice(SB)
	0x0175 00373 (/home/xzl/work/golang-1.22/golang-1.22/test/codegen/mapaccess.go:410)	MOVQ	command-line-arguments..autotmp_34+568(SP), DX
	0x017d 00381 (/home/xzl/work/golang-1.22/golang-1.22/test/codegen/mapaccess.go:410)	MOVQ	CX, 16(DX)
	0x0181 00385 (/home/xzl/work/golang-1.22/golang-1.22/test/codegen/mapaccess.go:410)	CMPL	runtime.writeBarrier(SB), $0
	0x0188 00392 (/home/xzl/work/golang-1.22/golang-1.22/test/codegen/mapaccess.go:410)	PCDATA	$0, $-2
	0x0188 00392 (/home/xzl/work/golang-1.22/golang-1.22/test/codegen/mapaccess.go:410)	JEQ	409
	0x018a 00394 (/home/xzl/work/golang-1.22/golang-1.22/test/codegen/mapaccess.go:410)	CALL	runtime.gcWriteBarrier2(SB)
	0x018f 00399 (/home/xzl/work/golang-1.22/golang-1.22/test/codegen/mapaccess.go:410)	MOVQ	AX, (R11)
	0x0192 00402 (/home/xzl/work/golang-1.22/golang-1.22/test/codegen/mapaccess.go:410)	MOVQ	(DX), CX
	0x0195 00405 (/home/xzl/work/golang-1.22/golang-1.22/test/codegen/mapaccess.go:410)	MOVQ	CX, 8(R11)
	0x0199 00409 (/home/xzl/work/golang-1.22/golang-1.22/test/codegen/mapaccess.go:410)	MOVQ	AX, (DX)
	0x019c 00412 (/home/xzl/work/golang-1.22/golang-1.22/test/codegen/mapaccess.go:410)	PCDATA	$0, $-1
	0x019c 00412 (/home/xzl/work/golang-1.22/golang-1.22/test/codegen/mapaccess.go:410)	MOVQ	AX, CX
	0x019f 00415 (/home/xzl/work/golang-1.22/golang-1.22/test/codegen/mapaccess.go:410)	MOVQ	DX, AX
	0x01a2 00418 (/home/xzl/work/golang-1.22/golang-1.22/test/codegen/mapaccess.go:410)	MOVQ	CX, DX
	0x01a5 00421 (/home/xzl/work/golang-1.22/golang-1.22/test/codegen/mapaccess.go:410)	MOVQ	BX, 8(AX)
	0x01a9 00425 (/home/xzl/work/golang-1.22/golang-1.22/test/codegen/mapaccess.go:410)	LEAQ	-3(BX), CX
	0x01ad 00429 (/home/xzl/work/golang-1.22/golang-1.22/test/codegen/mapaccess.go:410)	SHLQ	$4, CX
	0x01b1 00433 (/home/xzl/work/golang-1.22/golang-1.22/test/codegen/mapaccess.go:410)	MOVSD	$f64.3ff0000000000000(SB), X0
	0x01b9 00441 (/home/xzl/work/golang-1.22/golang-1.22/test/codegen/mapaccess.go:410)	MOVSD	X0, (DX)(CX*1)
	0x01be 00446 (/home/xzl/work/golang-1.22/golang-1.22/test/codegen/mapaccess.go:410)	XORPS	X1, X1
	0x01c1 00449 (/home/xzl/work/golang-1.22/golang-1.22/test/codegen/mapaccess.go:410)	MOVSD	X1, 8(DX)(CX*1)
	0x01c7 00455 (/home/xzl/work/golang-1.22/golang-1.22/test/codegen/mapaccess.go:410)	MOVSD	$f64.4000000000000000(SB), X2
	0x01cf 00463 (/home/xzl/work/golang-1.22/golang-1.22/test/codegen/mapaccess.go:410)	MOVSD	X2, 16(DX)(CX*1)
	0x01d5 00469 (/home/xzl/work/golang-1.22/golang-1.22/test/codegen/mapaccess.go:410)	MOVSD	X1, 24(DX)(CX*1)
	0x01db 00475 (/home/xzl/work/golang-1.22/golang-1.22/test/codegen/mapaccess.go:410)	MOVSD	$f64.4008000000000000(SB), X2
	0x01e3 00483 (/home/xzl/work/golang-1.22/golang-1.22/test/codegen/mapaccess.go:410)	MOVSD	X2, 32(DX)(CX*1)
	0x01e9 00489 (/home/xzl/work/golang-1.22/golang-1.22/test/codegen/mapaccess.go:410)	MOVSD	X1, 40(DX)(CX*1)
	0x01ef 00495 (/home/xzl/work/golang-1.22/golang-1.22/test/codegen/mapaccess.go:412)	LEAQ	type:[4]complex128(SB), AX
	0x01f6 00502 (/home/xzl/work/golang-1.22/golang-1.22/test/codegen/mapaccess.go:412)	PCDATA	$1, $1
	0x01f6 00502 (/home/xzl/work/golang-1.22/golang-1.22/test/codegen/mapaccess.go:412)	CALL	runtime.newobject(SB)
	0x01fb 00507 (/home/xzl/work/golang-1.22/golang-1.22/test/codegen/mapaccess.go:412)	MOVQ	AX, command-line-arguments..autotmp_35+560(SP)
	0x0203 00515 (/home/xzl/work/golang-1.22/golang-1.22/test/codegen/mapaccess.go:412)	MOVSD	$f64.401c000000000000(SB), X0
	0x020b 00523 (/home/xzl/work/golang-1.22/golang-1.22/test/codegen/mapaccess.go:412)	MOVSD	X0, (AX)
	0x020f 00527 (/home/xzl/work/golang-1.22/golang-1.22/test/codegen/mapaccess.go:412)	XORPS	X0, X0
	0x0212 00530 (/home/xzl/work/golang-1.22/golang-1.22/test/codegen/mapaccess.go:412)	MOVSD	X0, 8(AX)
	0x0217 00535 (/home/xzl/work/golang-1.22/golang-1.22/test/codegen/mapaccess.go:412)	MOVSD	$f64.4020000000000000(SB), X1
	0x021f 00543 (/home/xzl/work/golang-1.22/golang-1.22/test/codegen/mapaccess.go:412)	MOVSD	X1, 16(AX)
	0x0224 00548 (/home/xzl/work/golang-1.22/golang-1.22/test/codegen/mapaccess.go:412)	MOVSD	X0, 24(AX)
	0x0229 00553 (/home/xzl/work/golang-1.22/golang-1.22/test/codegen/mapaccess.go:412)	MOVSD	$f64.4022000000000000(SB), X1
	0x0231 00561 (/home/xzl/work/golang-1.22/golang-1.22/test/codegen/mapaccess.go:412)	MOVSD	X1, 32(AX)
	0x0236 00566 (/home/xzl/work/golang-1.22/golang-1.22/test/codegen/mapaccess.go:412)	MOVSD	X0, 40(AX)
	0x023b 00571 (/home/xzl/work/golang-1.22/golang-1.22/test/codegen/mapaccess.go:412)	MOVSD	X0, 48(AX)
	0x0240 00576 (/home/xzl/work/golang-1.22/golang-1.22/test/codegen/mapaccess.go:412)	MOVSD	X0, 56(AX)
	0x0245 00581 (/home/xzl/work/golang-1.22/golang-1.22/test/codegen/mapaccess.go:418)	MOVSD	X0, command-line-arguments..autotmp_3+96(SP)
	0x024b 00587 (/home/xzl/work/golang-1.22/golang-1.22/test/codegen/mapaccess.go:418)	MOVSD	X0, command-line-arguments..autotmp_3+104(SP)
	0x0251 00593 (/home/xzl/work/golang-1.22/golang-1.22/test/codegen/mapaccess.go:418)	LEAQ	command-line-arguments..autotmp_6+464(SP), BX
	0x0259 00601 (/home/xzl/work/golang-1.22/golang-1.22/test/codegen/mapaccess.go:418)	LEAQ	command-line-arguments..autotmp_3+96(SP), CX
	0x025e 00606 (/home/xzl/work/golang-1.22/golang-1.22/test/codegen/mapaccess.go:418)	LEAQ	type:map[complex128][]complex128(SB), AX
	0x0265 00613 (/home/xzl/work/golang-1.22/golang-1.22/test/codegen/mapaccess.go:418)	PCDATA	$1, $4
	0x0265 00613 (/home/xzl/work/golang-1.22/golang-1.22/test/codegen/mapaccess.go:418)	CALL	runtime.mapassign(SB)
	0x026a 00618 (/home/xzl/work/golang-1.22/golang-1.22/test/codegen/mapaccess.go:418)	MOVQ	AX, command-line-arguments..autotmp_36+552(SP)
	0x0272 00626 (/home/xzl/work/golang-1.22/golang-1.22/test/codegen/mapaccess.go:418)	MOVQ	16(AX), CX
	0x0276 00630 (/home/xzl/work/golang-1.22/golang-1.22/test/codegen/mapaccess.go:418)	MOVQ	8(AX), BX
	0x027a 00634 (/home/xzl/work/golang-1.22/golang-1.22/test/codegen/mapaccess.go:418)	LEAQ	4(BX), DX
	0x027e 00638 (/home/xzl/work/golang-1.22/golang-1.22/test/codegen/mapaccess.go:418)	MOVQ	(AX), SI
	0x0281 00641 (/home/xzl/work/golang-1.22/golang-1.22/test/codegen/mapaccess.go:418)	CMPQ	CX, DX
	0x0284 00644 (/home/xzl/work/golang-1.22/golang-1.22/test/codegen/mapaccess.go:418)	JCC	688
	0x0286 00646 (/home/xzl/work/golang-1.22/golang-1.22/test/codegen/mapaccess.go:418)	MOVQ	BX, command-line-arguments..autotmp_37+88(SP)
	0x028b 00651 (/home/xzl/work/golang-1.22/golang-1.22/test/codegen/mapaccess.go:418)	MOVQ	SI, AX
	0x028e 00654 (/home/xzl/work/golang-1.22/golang-1.22/test/codegen/mapaccess.go:418)	MOVQ	DX, BX
	0x0291 00657 (/home/xzl/work/golang-1.22/golang-1.22/test/codegen/mapaccess.go:418)	MOVL	$4, DI
	0x0296 00662 (/home/xzl/work/golang-1.22/golang-1.22/test/codegen/mapaccess.go:418)	LEAQ	type:complex128(SB), SI
	0x029d 00669 (/home/xzl/work/golang-1.22/golang-1.22/test/codegen/mapaccess.go:418)	PCDATA	$1, $5
	0x029d 00669 (/home/xzl/work/golang-1.22/golang-1.22/test/codegen/mapaccess.go:418)	NOP
	0x02a0 00672 (/home/xzl/work/golang-1.22/golang-1.22/test/codegen/mapaccess.go:418)	CALL	runtime.growslice(SB)
	0x02a5 00677 (/home/xzl/work/golang-1.22/golang-1.22/test/codegen/mapaccess.go:418)	MOVQ	AX, SI
	0x02a8 00680 (/home/xzl/work/golang-1.22/golang-1.22/test/codegen/mapaccess.go:418)	MOVQ	BX, DX
	0x02ab 00683 (/home/xzl/work/golang-1.22/golang-1.22/test/codegen/mapaccess.go:418)	MOVQ	command-line-arguments..autotmp_37+88(SP), BX
	0x02b0 00688 (/home/xzl/work/golang-1.22/golang-1.22/test/codegen/mapaccess.go:418)	MOVQ	CX, command-line-arguments..autotmp_37+88(SP)
	0x02b5 00693 (/home/xzl/work/golang-1.22/golang-1.22/test/codegen/mapaccess.go:418)	MOVQ	DX, command-line-arguments..autotmp_38+80(SP)
	0x02ba 00698 (/home/xzl/work/golang-1.22/golang-1.22/test/codegen/mapaccess.go:418)	MOVQ	SI, command-line-arguments..autotmp_39+544(SP)
	0x02c2 00706 (/home/xzl/work/golang-1.22/golang-1.22/test/codegen/mapaccess.go:418)	SHLQ	$4, BX
	0x02c6 00710 (/home/xzl/work/golang-1.22/golang-1.22/test/codegen/mapaccess.go:418)	LEAQ	(SI)(BX*1), AX
	0x02ca 00714 (/home/xzl/work/golang-1.22/golang-1.22/test/codegen/mapaccess.go:418)	MOVQ	command-line-arguments..autotmp_35+560(SP), BX
	0x02d2 00722 (/home/xzl/work/golang-1.22/golang-1.22/test/codegen/mapaccess.go:418)	MOVL	$64, CX
	0x02d7 00727 (/home/xzl/work/golang-1.22/golang-1.22/test/codegen/mapaccess.go:418)	PCDATA	$1, $6
	0x02d7 00727 (/home/xzl/work/golang-1.22/golang-1.22/test/codegen/mapaccess.go:418)	CALL	runtime.memmove(SB)
	0x02dc 00732 (/home/xzl/work/golang-1.22/golang-1.22/test/codegen/mapaccess.go:418)	MOVQ	command-line-arguments..autotmp_38+80(SP), DX
	0x02e1 00737 (/home/xzl/work/golang-1.22/golang-1.22/test/codegen/mapaccess.go:418)	MOVQ	command-line-arguments..autotmp_36+552(SP), SI
	0x02e9 00745 (/home/xzl/work/golang-1.22/golang-1.22/test/codegen/mapaccess.go:418)	MOVQ	DX, 8(SI)
	0x02ed 00749 (/home/xzl/work/golang-1.22/golang-1.22/test/codegen/mapaccess.go:418)	MOVQ	command-line-arguments..autotmp_37+88(SP), DX
	0x02f2 00754 (/home/xzl/work/golang-1.22/golang-1.22/test/codegen/mapaccess.go:418)	MOVQ	DX, 16(SI)
	0x02f6 00758 (/home/xzl/work/golang-1.22/golang-1.22/test/codegen/mapaccess.go:418)	CMPL	runtime.writeBarrier(SB), $0
	0x02fd 00765 (/home/xzl/work/golang-1.22/golang-1.22/test/codegen/mapaccess.go:418)	PCDATA	$0, $-2
	0x02fd 00765 (/home/xzl/work/golang-1.22/golang-1.22/test/codegen/mapaccess.go:418)	JNE	777
	0x02ff 00767 (/home/xzl/work/golang-1.22/golang-1.22/test/codegen/mapaccess.go:418)	MOVQ	command-line-arguments..autotmp_39+544(SP), DX
	0x0307 00775 (/home/xzl/work/golang-1.22/golang-1.22/test/codegen/mapaccess.go:418)	JMP	800
	0x0309 00777 (/home/xzl/work/golang-1.22/golang-1.22/test/codegen/mapaccess.go:418)	CALL	runtime.gcWriteBarrier2(SB)
	0x030e 00782 (/home/xzl/work/golang-1.22/golang-1.22/test/codegen/mapaccess.go:418)	MOVQ	command-line-arguments..autotmp_39+544(SP), DX
	0x0316 00790 (/home/xzl/work/golang-1.22/golang-1.22/test/codegen/mapaccess.go:418)	MOVQ	DX, (R11)
	0x0319 00793 (/home/xzl/work/golang-1.22/golang-1.22/test/codegen/mapaccess.go:418)	MOVQ	(SI), DI
	0x031c 00796 (/home/xzl/work/golang-1.22/golang-1.22/test/codegen/mapaccess.go:418)	MOVQ	DI, 8(R11)
	0x0320 00800 (/home/xzl/work/golang-1.22/golang-1.22/test/codegen/mapaccess.go:418)	MOVQ	DX, (SI)
	0x0323 00803 (/home/xzl/work/golang-1.22/golang-1.22/test/codegen/mapaccess.go:426)	PCDATA	$0, $-1
	0x0323 00803 (/home/xzl/work/golang-1.22/golang-1.22/test/codegen/mapaccess.go:426)	XORPS	X0, X0
	0x0326 00806 (/home/xzl/work/golang-1.22/golang-1.22/test/codegen/mapaccess.go:426)	MOVSD	X0, command-line-arguments..autotmp_3+96(SP)
	0x032c 00812 (/home/xzl/work/golang-1.22/golang-1.22/test/codegen/mapaccess.go:426)	MOVSD	X0, command-line-arguments..autotmp_3+104(SP)
	0x0332 00818 (/home/xzl/work/golang-1.22/golang-1.22/test/codegen/mapaccess.go:426)	MOVSD	X0, command-line-arguments..autotmp_4+64(SP)
	0x0338 00824 (/home/xzl/work/golang-1.22/golang-1.22/test/codegen/mapaccess.go:426)	MOVSD	X0, command-line-arguments..autotmp_4+72(SP)
	0x033e 00830 (/home/xzl/work/golang-1.22/golang-1.22/test/codegen/mapaccess.go:426)	LEAQ	type:map[complex128][]complex128(SB), AX
	0x0345 00837 (/home/xzl/work/golang-1.22/golang-1.22/test/codegen/mapaccess.go:426)	LEAQ	command-line-arguments..autotmp_6+464(SP), BX
	0x034d 00845 (/home/xzl/work/golang-1.22/golang-1.22/test/codegen/mapaccess.go:426)	LEAQ	command-line-arguments..autotmp_4+64(SP), CX
	0x0352 00850 (/home/xzl/work/golang-1.22/golang-1.22/test/codegen/mapaccess.go:426)	PCDATA	$1, $4
	0x0352 00850 (/home/xzl/work/golang-1.22/golang-1.22/test/codegen/mapaccess.go:426)	CALL	runtime.mapaccess1(SB)
	0x0357 00855 (/home/xzl/work/golang-1.22/golang-1.22/test/codegen/mapaccess.go:426)	MOVQ	8(AX), BX
	0x035b 00859 (/home/xzl/work/golang-1.22/golang-1.22/test/codegen/mapaccess.go:426)	LEAQ	4(BX), DX
	0x035f 00863 (/home/xzl/work/golang-1.22/golang-1.22/test/codegen/mapaccess.go:426)	MOVQ	(AX), SI
	0x0362 00866 (/home/xzl/work/golang-1.22/golang-1.22/test/codegen/mapaccess.go:426)	CMPQ	DX, $4
	0x0366 00870 (/home/xzl/work/golang-1.22/golang-1.22/test/codegen/mapaccess.go:426)	JHI	887
	0x0368 00872 (/home/xzl/work/golang-1.22/golang-1.22/test/codegen/mapaccess.go:426)	MOVQ	command-line-arguments..autotmp_35+560(SP), AX
	0x0370 00880 (/home/xzl/work/golang-1.22/golang-1.22/test/codegen/mapaccess.go:426)	MOVL	$4, CX
	0x0375 00885 (/home/xzl/work/golang-1.22/golang-1.22/test/codegen/mapaccess.go:426)	JMP	949
	0x0377 00887 (/home/xzl/work/golang-1.22/golang-1.22/test/codegen/mapaccess.go:426)	MOVQ	SI, command-line-arguments..autotmp_40+536(SP)
	0x037f 00895 (/home/xzl/work/golang-1.22/golang-1.22/test/codegen/mapaccess.go:426)	MOVQ	BX, command-line-arguments..autotmp_37+88(SP)
	0x0384 00900 (/home/xzl/work/golang-1.22/golang-1.22/test/codegen/mapaccess.go:426)	MOVQ	command-line-arguments..autotmp_35+560(SP), AX
	0x038c 00908 (/home/xzl/work/golang-1.22/golang-1.22/test/codegen/mapaccess.go:426)	MOVL	$4, CX
	0x0391 00913 (/home/xzl/work/golang-1.22/golang-1.22/test/codegen/mapaccess.go:426)	MOVQ	BX, DI
	0x0394 00916 (/home/xzl/work/golang-1.22/golang-1.22/test/codegen/mapaccess.go:426)	LEAQ	type:complex128(SB), SI
	0x039b 00923 (/home/xzl/work/golang-1.22/golang-1.22/test/codegen/mapaccess.go:426)	MOVQ	DX, BX
	0x039e 00926 (/home/xzl/work/golang-1.22/golang-1.22/test/codegen/mapaccess.go:426)	PCDATA	$1, $7
	0x039e 00926 (/home/xzl/work/golang-1.22/golang-1.22/test/codegen/mapaccess.go:426)	NOP
	0x03a0 00928 (/home/xzl/work/golang-1.22/golang-1.22/test/codegen/mapaccess.go:426)	CALL	runtime.growslice(SB)
	0x03a5 00933 (/home/xzl/work/golang-1.22/golang-1.22/test/codegen/mapaccess.go:426)	MOVQ	command-line-arguments..autotmp_40+536(SP), SI
	0x03ad 00941 (/home/xzl/work/golang-1.22/golang-1.22/test/codegen/mapaccess.go:426)	MOVQ	BX, DX
	0x03b0 00944 (/home/xzl/work/golang-1.22/golang-1.22/test/codegen/mapaccess.go:426)	MOVQ	command-line-arguments..autotmp_37+88(SP), BX
	0x03b5 00949 (/home/xzl/work/golang-1.22/golang-1.22/test/codegen/mapaccess.go:426)	MOVQ	AX, command-line-arguments..autotmp_41+528(SP)
	0x03bd 00957 (/home/xzl/work/golang-1.22/golang-1.22/test/codegen/mapaccess.go:426)	MOVQ	CX, command-line-arguments..autotmp_37+88(SP)
	0x03c2 00962 (/home/xzl/work/golang-1.22/golang-1.22/test/codegen/mapaccess.go:426)	MOVQ	DX, command-line-arguments..autotmp_38+80(SP)
	0x03c7 00967 (/home/xzl/work/golang-1.22/golang-1.22/test/codegen/mapaccess.go:426)	SHLQ	$4, BX
	0x03cb 00971 (/home/xzl/work/golang-1.22/golang-1.22/test/codegen/mapaccess.go:426)	LEAQ	64(AX), DI
	0x03cf 00975 (/home/xzl/work/golang-1.22/golang-1.22/test/codegen/mapaccess.go:426)	MOVQ	DI, AX
	0x03d2 00978 (/home/xzl/work/golang-1.22/golang-1.22/test/codegen/mapaccess.go:426)	MOVQ	BX, R9
	0x03d5 00981 (/home/xzl/work/golang-1.22/golang-1.22/test/codegen/mapaccess.go:426)	MOVQ	SI, BX
	0x03d8 00984 (/home/xzl/work/golang-1.22/golang-1.22/test/codegen/mapaccess.go:426)	MOVQ	R9, CX
	0x03db 00987 (/home/xzl/work/golang-1.22/golang-1.22/test/codegen/mapaccess.go:426)	PCDATA	$1, $8
	0x03db 00987 (/home/xzl/work/golang-1.22/golang-1.22/test/codegen/mapaccess.go:426)	NOP
	0x03e0 00992 (/home/xzl/work/golang-1.22/golang-1.22/test/codegen/mapaccess.go:426)	CALL	runtime.memmove(SB)
	0x03e5 00997 (/home/xzl/work/golang-1.22/golang-1.22/test/codegen/mapaccess.go:426)	LEAQ	type:map[complex128][]complex128(SB), AX
	0x03ec 01004 (/home/xzl/work/golang-1.22/golang-1.22/test/codegen/mapaccess.go:426)	LEAQ	command-line-arguments..autotmp_6+464(SP), BX
	0x03f4 01012 (/home/xzl/work/golang-1.22/golang-1.22/test/codegen/mapaccess.go:426)	LEAQ	command-line-arguments..autotmp_3+96(SP), CX
	0x03f9 01017 (/home/xzl/work/golang-1.22/golang-1.22/test/codegen/mapaccess.go:426)	CALL	runtime.mapassign(SB)
	0x03fe 01022 (/home/xzl/work/golang-1.22/golang-1.22/test/codegen/mapaccess.go:426)	MOVQ	command-line-arguments..autotmp_38+80(SP), DX
	0x0403 01027 (/home/xzl/work/golang-1.22/golang-1.22/test/codegen/mapaccess.go:426)	MOVQ	DX, 8(AX)
	0x0407 01031 (/home/xzl/work/golang-1.22/golang-1.22/test/codegen/mapaccess.go:426)	MOVQ	command-line-arguments..autotmp_37+88(SP), DX
	0x040c 01036 (/home/xzl/work/golang-1.22/golang-1.22/test/codegen/mapaccess.go:426)	MOVQ	DX, 16(AX)
	0x0410 01040 (/home/xzl/work/golang-1.22/golang-1.22/test/codegen/mapaccess.go:426)	CMPL	runtime.writeBarrier(SB), $0
	0x0417 01047 (/home/xzl/work/golang-1.22/golang-1.22/test/codegen/mapaccess.go:426)	PCDATA	$0, $-2
	0x0417 01047 (/home/xzl/work/golang-1.22/golang-1.22/test/codegen/mapaccess.go:426)	JNE	1059
	0x0419 01049 (/home/xzl/work/golang-1.22/golang-1.22/test/codegen/mapaccess.go:426)	MOVQ	command-line-arguments..autotmp_41+528(SP), DX
	0x0421 01057 (/home/xzl/work/golang-1.22/golang-1.22/test/codegen/mapaccess.go:426)	JMP	1082
	0x0423 01059 (/home/xzl/work/golang-1.22/golang-1.22/test/codegen/mapaccess.go:426)	CALL	runtime.gcWriteBarrier2(SB)
	0x0428 01064 (/home/xzl/work/golang-1.22/golang-1.22/test/codegen/mapaccess.go:426)	MOVQ	command-line-arguments..autotmp_41+528(SP), DX
	0x0430 01072 (/home/xzl/work/golang-1.22/golang-1.22/test/codegen/mapaccess.go:426)	MOVQ	DX, (R11)
	0x0433 01075 (/home/xzl/work/golang-1.22/golang-1.22/test/codegen/mapaccess.go:426)	MOVQ	(AX), SI
	0x0436 01078 (/home/xzl/work/golang-1.22/golang-1.22/test/codegen/mapaccess.go:426)	MOVQ	SI, 8(R11)
	0x043a 01082 (/home/xzl/work/golang-1.22/golang-1.22/test/codegen/mapaccess.go:426)	MOVQ	DX, (AX)
	0x043d 01085 (/home/xzl/work/golang-1.22/golang-1.22/test/codegen/mapaccess.go:432)	PCDATA	$0, $-1
	0x043d 01085 (/home/xzl/work/golang-1.22/golang-1.22/test/codegen/mapaccess.go:432)	XORPS	X0, X0
	0x0440 01088 (/home/xzl/work/golang-1.22/golang-1.22/test/codegen/mapaccess.go:432)	MOVSD	X0, command-line-arguments..autotmp_4+64(SP)
	0x0446 01094 (/home/xzl/work/golang-1.22/golang-1.22/test/codegen/mapaccess.go:432)	MOVSD	X0, command-line-arguments..autotmp_4+72(SP)
	0x044c 01100 (/home/xzl/work/golang-1.22/golang-1.22/test/codegen/mapaccess.go:432)	MOVSD	X0, command-line-arguments..autotmp_3+96(SP)
	0x0452 01106 (/home/xzl/work/golang-1.22/golang-1.22/test/codegen/mapaccess.go:432)	MOVSD	X0, command-line-arguments..autotmp_3+104(SP)
	0x0458 01112 (/home/xzl/work/golang-1.22/golang-1.22/test/codegen/mapaccess.go:432)	LEAQ	type:map[complex128][]complex128(SB), AX
	0x045f 01119 (/home/xzl/work/golang-1.22/golang-1.22/test/codegen/mapaccess.go:432)	LEAQ	command-line-arguments..autotmp_6+464(SP), BX
	0x0467 01127 (/home/xzl/work/golang-1.22/golang-1.22/test/codegen/mapaccess.go:432)	LEAQ	command-line-arguments..autotmp_3+96(SP), CX
	0x046c 01132 (/home/xzl/work/golang-1.22/golang-1.22/test/codegen/mapaccess.go:432)	PCDATA	$1, $1
	0x046c 01132 (/home/xzl/work/golang-1.22/golang-1.22/test/codegen/mapaccess.go:432)	CALL	runtime.mapaccess1(SB)
	0x0471 01137 (/home/xzl/work/golang-1.22/golang-1.22/test/codegen/mapaccess.go:432)	MOVQ	16(AX), CX
	0x0475 01141 (/home/xzl/work/golang-1.22/golang-1.22/test/codegen/mapaccess.go:432)	MOVQ	8(AX), BX
	0x0479 01145 (/home/xzl/work/golang-1.22/golang-1.22/test/codegen/mapaccess.go:432)	INCQ	BX
	0x047c 01148 (/home/xzl/work/golang-1.22/golang-1.22/test/codegen/mapaccess.go:432)	MOVQ	(AX), AX
	0x047f 01151 (/home/xzl/work/golang-1.22/golang-1.22/test/codegen/mapaccess.go:432)	NOP
	0x0480 01152 (/home/xzl/work/golang-1.22/golang-1.22/test/codegen/mapaccess.go:432)	CMPQ	CX, BX
	0x0483 01155 (/home/xzl/work/golang-1.22/golang-1.22/test/codegen/mapaccess.go:432)	JCC	1174
	0x0485 01157 (/home/xzl/work/golang-1.22/golang-1.22/test/codegen/mapaccess.go:432)	MOVL	$1, DI
	0x048a 01162 (/home/xzl/work/golang-1.22/golang-1.22/test/codegen/mapaccess.go:432)	LEAQ	type:complex128(SB), SI
	0x0491 01169 (/home/xzl/work/golang-1.22/golang-1.22/test/codegen/mapaccess.go:432)	CALL	runtime.growslice(SB)
	0x0496 01174 (/home/xzl/work/golang-1.22/golang-1.22/test/codegen/mapaccess.go:432)	MOVQ	AX, command-line-arguments..autotmp_42+520(SP)
	0x049e 01182 (/home/xzl/work/golang-1.22/golang-1.22/test/codegen/mapaccess.go:432)	MOVQ	BX, command-line-arguments..autotmp_37+88(SP)
	0x04a3 01187 (/home/xzl/work/golang-1.22/golang-1.22/test/codegen/mapaccess.go:432)	MOVQ	CX, command-line-arguments..autotmp_38+80(SP)
	0x04a8 01192 (/home/xzl/work/golang-1.22/golang-1.22/test/codegen/mapaccess.go:432)	LEAQ	-1(BX), DX
	0x04ac 01196 (/home/xzl/work/golang-1.22/golang-1.22/test/codegen/mapaccess.go:432)	SHLQ	$4, DX
	0x04b0 01200 (/home/xzl/work/golang-1.22/golang-1.22/test/codegen/mapaccess.go:432)	MOVSD	$f64.4058c00000000000(SB), X0
	0x04b8 01208 (/home/xzl/work/golang-1.22/golang-1.22/test/codegen/mapaccess.go:432)	MOVSD	X0, (AX)(DX*1)
	0x04bd 01213 (/home/xzl/work/golang-1.22/golang-1.22/test/codegen/mapaccess.go:432)	XORPS	X0, X0
	0x04c0 01216 (/home/xzl/work/golang-1.22/golang-1.22/test/codegen/mapaccess.go:432)	MOVSD	X0, 8(AX)(DX*1)
	0x04c6 01222 (/home/xzl/work/golang-1.22/golang-1.22/test/codegen/mapaccess.go:432)	MOVSD	command-line-arguments..autotmp_4+64(SP), X1
	0x04cc 01228 (/home/xzl/work/golang-1.22/golang-1.22/test/codegen/mapaccess.go:432)	MOVSD	command-line-arguments..autotmp_4+72(SP), X2
	0x04d2 01234 (/home/xzl/work/golang-1.22/golang-1.22/test/codegen/mapaccess.go:432)	MOVSD	X1, command-line-arguments..autotmp_25+112(SP)
	0x04d8 01240 (/home/xzl/work/golang-1.22/golang-1.22/test/codegen/mapaccess.go:432)	MOVSD	X2, command-line-arguments..autotmp_25+120(SP)
	0x04de 01246 (/home/xzl/work/golang-1.22/golang-1.22/test/codegen/mapaccess.go:432)	MOVBLZX	command-line-arguments.sinkAppend(SB), DX
	0x04e5 01253 (/home/xzl/work/golang-1.22/golang-1.22/test/codegen/mapaccess.go:432)	XORL	$1, DX
	0x04e8 01256 (/home/xzl/work/golang-1.22/golang-1.22/test/codegen/mapaccess.go:432)	MOVB	DL, command-line-arguments.sinkAppend(SB)
	0x04ee 01262 (/home/xzl/work/golang-1.22/golang-1.22/test/codegen/mapaccess.go:432)	LEAQ	type:map[complex128][]complex128(SB), AX
	0x04f5 01269 (/home/xzl/work/golang-1.22/golang-1.22/test/codegen/mapaccess.go:432)	LEAQ	command-line-arguments..autotmp_6+464(SP), BX
	0x04fd 01277 (/home/xzl/work/golang-1.22/golang-1.22/test/codegen/mapaccess.go:432)	LEAQ	command-line-arguments..autotmp_25+112(SP), CX
	0x0502 01282 (/home/xzl/work/golang-1.22/golang-1.22/test/codegen/mapaccess.go:432)	PCDATA	$1, $9
	0x0502 01282 (/home/xzl/work/golang-1.22/golang-1.22/test/codegen/mapaccess.go:432)	CALL	runtime.mapassign(SB)
	0x0507 01287 (/home/xzl/work/golang-1.22/golang-1.22/test/codegen/mapaccess.go:432)	MOVQ	command-line-arguments..autotmp_37+88(SP), DX
	0x050c 01292 (/home/xzl/work/golang-1.22/golang-1.22/test/codegen/mapaccess.go:432)	MOVQ	DX, 8(AX)
	0x0510 01296 (/home/xzl/work/golang-1.22/golang-1.22/test/codegen/mapaccess.go:432)	MOVQ	command-line-arguments..autotmp_38+80(SP), DX
	0x0515 01301 (/home/xzl/work/golang-1.22/golang-1.22/test/codegen/mapaccess.go:432)	MOVQ	DX, 16(AX)
	0x0519 01305 (/home/xzl/work/golang-1.22/golang-1.22/test/codegen/mapaccess.go:432)	CMPL	runtime.writeBarrier(SB), $0
	0x0520 01312 (/home/xzl/work/golang-1.22/golang-1.22/test/codegen/mapaccess.go:432)	PCDATA	$0, $-2
	0x0520 01312 (/home/xzl/work/golang-1.22/golang-1.22/test/codegen/mapaccess.go:432)	JNE	1324
	0x0522 01314 (/home/xzl/work/golang-1.22/golang-1.22/test/codegen/mapaccess.go:432)	MOVQ	command-line-arguments..autotmp_42+520(SP), DX
	0x052a 01322 (/home/xzl/work/golang-1.22/golang-1.22/test/codegen/mapaccess.go:432)	JMP	1347
	0x052c 01324 (/home/xzl/work/golang-1.22/golang-1.22/test/codegen/mapaccess.go:432)	CALL	runtime.gcWriteBarrier2(SB)
	0x0531 01329 (/home/xzl/work/golang-1.22/golang-1.22/test/codegen/mapaccess.go:432)	MOVQ	command-line-arguments..autotmp_42+520(SP), DX
	0x0539 01337 (/home/xzl/work/golang-1.22/golang-1.22/test/codegen/mapaccess.go:432)	MOVQ	DX, (R11)
	0x053c 01340 (/home/xzl/work/golang-1.22/golang-1.22/test/codegen/mapaccess.go:432)	MOVQ	(AX), SI
	0x053f 01343 (/home/xzl/work/golang-1.22/golang-1.22/test/codegen/mapaccess.go:432)	MOVQ	SI, 8(R11)
	0x0543 01347 (/home/xzl/work/golang-1.22/golang-1.22/test/codegen/mapaccess.go:432)	MOVQ	DX, (AX)
	0x0546 01350 (/home/xzl/work/golang-1.22/golang-1.22/test/codegen/mapaccess.go:438)	PCDATA	$0, $-1
	0x0546 01350 (/home/xzl/work/golang-1.22/golang-1.22/test/codegen/mapaccess.go:438)	XORPS	X0, X0
	0x0549 01353 (/home/xzl/work/golang-1.22/golang-1.22/test/codegen/mapaccess.go:438)	MOVSD	X0, command-line-arguments..autotmp_3+96(SP)
	0x054f 01359 (/home/xzl/work/golang-1.22/golang-1.22/test/codegen/mapaccess.go:438)	MOVSD	X0, command-line-arguments..autotmp_3+104(SP)
	0x0555 01365 (/home/xzl/work/golang-1.22/golang-1.22/test/codegen/mapaccess.go:438)	MOVSD	$f64.3ff0000000000000(SB), X1
	0x055d 01373 (/home/xzl/work/golang-1.22/golang-1.22/test/codegen/mapaccess.go:438)	MOVSD	X1, command-line-arguments..autotmp_4+64(SP)
	0x0563 01379 (/home/xzl/work/golang-1.22/golang-1.22/test/codegen/mapaccess.go:438)	MOVSD	X0, command-line-arguments..autotmp_4+72(SP)
	0x0569 01385 (/home/xzl/work/golang-1.22/golang-1.22/test/codegen/mapaccess.go:438)	LEAQ	type:map[complex128][]complex128(SB), AX
	0x0570 01392 (/home/xzl/work/golang-1.22/golang-1.22/test/codegen/mapaccess.go:438)	LEAQ	command-line-arguments..autotmp_6+464(SP), BX
	0x0578 01400 (/home/xzl/work/golang-1.22/golang-1.22/test/codegen/mapaccess.go:438)	LEAQ	command-line-arguments..autotmp_4+64(SP), CX
	0x057d 01405 (/home/xzl/work/golang-1.22/golang-1.22/test/codegen/mapaccess.go:438)	PCDATA	$1, $1
	0x057d 01405 (/home/xzl/work/golang-1.22/golang-1.22/test/codegen/mapaccess.go:438)	NOP
	0x0580 01408 (/home/xzl/work/golang-1.22/golang-1.22/test/codegen/mapaccess.go:438)	CALL	runtime.mapaccess1(SB)
	0x0585 01413 (/home/xzl/work/golang-1.22/golang-1.22/test/codegen/mapaccess.go:438)	MOVQ	16(AX), CX
	0x0589 01417 (/home/xzl/work/golang-1.22/golang-1.22/test/codegen/mapaccess.go:438)	MOVQ	8(AX), BX
	0x058d 01421 (/home/xzl/work/golang-1.22/golang-1.22/test/codegen/mapaccess.go:438)	INCQ	BX
	0x0590 01424 (/home/xzl/work/golang-1.22/golang-1.22/test/codegen/mapaccess.go:438)	MOVQ	(AX), AX
	0x0593 01427 (/home/xzl/work/golang-1.22/golang-1.22/test/codegen/mapaccess.go:438)	CMPQ	CX, BX
	0x0596 01430 (/home/xzl/work/golang-1.22/golang-1.22/test/codegen/mapaccess.go:438)	JCC	1449
	0x0598 01432 (/home/xzl/work/golang-1.22/golang-1.22/test/codegen/mapaccess.go:438)	MOVL	$1, DI
	0x059d 01437 (/home/xzl/work/golang-1.22/golang-1.22/test/codegen/mapaccess.go:438)	LEAQ	type:complex128(SB), SI
	0x05a4 01444 (/home/xzl/work/golang-1.22/golang-1.22/test/codegen/mapaccess.go:438)	CALL	runtime.growslice(SB)
	0x05a9 01449 (/home/xzl/work/golang-1.22/golang-1.22/test/codegen/mapaccess.go:438)	MOVQ	AX, command-line-arguments..autotmp_43+512(SP)
	0x05b1 01457 (/home/xzl/work/golang-1.22/golang-1.22/test/codegen/mapaccess.go:438)	MOVQ	BX, command-line-arguments..autotmp_37+88(SP)
	0x05b6 01462 (/home/xzl/work/golang-1.22/golang-1.22/test/codegen/mapaccess.go:438)	MOVQ	CX, command-line-arguments..autotmp_38+80(SP)
	0x05bb 01467 (/home/xzl/work/golang-1.22/golang-1.22/test/codegen/mapaccess.go:438)	LEAQ	-1(BX), DX
	0x05bf 01471 (/home/xzl/work/golang-1.22/golang-1.22/test/codegen/mapaccess.go:438)	SHLQ	$4, DX
	0x05c3 01475 (/home/xzl/work/golang-1.22/golang-1.22/test/codegen/mapaccess.go:438)	MOVSD	$f64.4059000000000000(SB), X0
	0x05cb 01483 (/home/xzl/work/golang-1.22/golang-1.22/test/codegen/mapaccess.go:438)	MOVSD	X0, (AX)(DX*1)
	0x05d0 01488 (/home/xzl/work/golang-1.22/golang-1.22/test/codegen/mapaccess.go:438)	XORPS	X0, X0
	0x05d3 01491 (/home/xzl/work/golang-1.22/golang-1.22/test/codegen/mapaccess.go:438)	MOVSD	X0, 8(AX)(DX*1)
	0x05d9 01497 (/home/xzl/work/golang-1.22/golang-1.22/test/codegen/mapaccess.go:438)	LEAQ	type:map[complex128][]complex128(SB), AX
	0x05e0 01504 (/home/xzl/work/golang-1.22/golang-1.22/test/codegen/mapaccess.go:438)	LEAQ	command-line-arguments..autotmp_6+464(SP), BX
	0x05e8 01512 (/home/xzl/work/golang-1.22/golang-1.22/test/codegen/mapaccess.go:438)	LEAQ	command-line-arguments..autotmp_3+96(SP), CX
	0x05ed 01517 (/home/xzl/work/golang-1.22/golang-1.22/test/codegen/mapaccess.go:438)	PCDATA	$1, $10
	0x05ed 01517 (/home/xzl/work/golang-1.22/golang-1.22/test/codegen/mapaccess.go:438)	CALL	runtime.mapassign(SB)
	0x05f2 01522 (/home/xzl/work/golang-1.22/golang-1.22/test/codegen/mapaccess.go:438)	MOVQ	command-line-arguments..autotmp_37+88(SP), DX
	0x05f7 01527 (/home/xzl/work/golang-1.22/golang-1.22/test/codegen/mapaccess.go:438)	MOVQ	DX, 8(AX)
	0x05fb 01531 (/home/xzl/work/golang-1.22/golang-1.22/test/codegen/mapaccess.go:438)	MOVQ	command-line-arguments..autotmp_38+80(SP), DX
	0x0600 01536 (/home/xzl/work/golang-1.22/golang-1.22/test/codegen/mapaccess.go:438)	MOVQ	DX, 16(AX)
	0x0604 01540 (/home/xzl/work/golang-1.22/golang-1.22/test/codegen/mapaccess.go:438)	CMPL	runtime.writeBarrier(SB), $0
	0x060b 01547 (/home/xzl/work/golang-1.22/golang-1.22/test/codegen/mapaccess.go:438)	PCDATA	$0, $-2
	0x060b 01547 (/home/xzl/work/golang-1.22/golang-1.22/test/codegen/mapaccess.go:438)	JNE	1559
	0x060d 01549 (/home/xzl/work/golang-1.22/golang-1.22/test/codegen/mapaccess.go:438)	MOVQ	command-line-arguments..autotmp_43+512(SP), CX
	0x0615 01557 (/home/xzl/work/golang-1.22/golang-1.22/test/codegen/mapaccess.go:438)	JMP	1582
	0x0617 01559 (/home/xzl/work/golang-1.22/golang-1.22/test/codegen/mapaccess.go:438)	CALL	runtime.gcWriteBarrier2(SB)
	0x061c 01564 (/home/xzl/work/golang-1.22/golang-1.22/test/codegen/mapaccess.go:438)	MOVQ	command-line-arguments..autotmp_43+512(SP), CX
	0x0624 01572 (/home/xzl/work/golang-1.22/golang-1.22/test/codegen/mapaccess.go:438)	MOVQ	CX, (R11)
	0x0627 01575 (/home/xzl/work/golang-1.22/golang-1.22/test/codegen/mapaccess.go:438)	MOVQ	(AX), DX
	0x062a 01578 (/home/xzl/work/golang-1.22/golang-1.22/test/codegen/mapaccess.go:438)	MOVQ	DX, 8(R11)
	0x062e 01582 (/home/xzl/work/golang-1.22/golang-1.22/test/codegen/mapaccess.go:438)	MOVQ	CX, (AX)
	0x0631 01585 (/home/xzl/work/golang-1.22/golang-1.22/test/codegen/mapaccess.go:439)	PCDATA	$0, $-1
	0x0631 01585 (/home/xzl/work/golang-1.22/golang-1.22/test/codegen/mapaccess.go:439)	ADDQ	$584, SP
	0x0638 01592 (/home/xzl/work/golang-1.22/golang-1.22/test/codegen/mapaccess.go:439)	POPQ	BP
	0x0639 01593 (/home/xzl/work/golang-1.22/golang-1.22/test/codegen/mapaccess.go:439)	RET
	0x063a 01594 (/home/xzl/work/golang-1.22/golang-1.22/test/codegen/mapaccess.go:439)	NOP
	0x063a 01594 (/home/xzl/work/golang-1.22/golang-1.22/test/codegen/mapaccess.go:396)	PCDATA	$1, $-1
	0x063a 01594 (/home/xzl/work/golang-1.22/golang-1.22/test/codegen/mapaccess.go:396)	PCDATA	$0, $-2
	0x063a 01594 (/home/xzl/work/golang-1.22/golang-1.22/test/codegen/mapaccess.go:396)	CALL	runtime.morestack_noctxt(SB)
	0x063f 01599 (/home/xzl/work/golang-1.22/golang-1.22/test/codegen/mapaccess.go:396)	PCDATA	$0, $-1
	0x063f 01599 (/home/xzl/work/golang-1.22/golang-1.22/test/codegen/mapaccess.go:396)	NOP
	0x0640 01600 (/home/xzl/work/golang-1.22/golang-1.22/test/codegen/mapaccess.go:396)	JMP	0
	0x0000 4c 8d a4 24 30 fe ff ff 4d 3b 66 10 0f 86 28 06  L..$0...M;f...(.
	0x0010 00 00 55 48 89 e5 48 81 ec 48 02 00 00 44 0f 11  ..UH..H..H...D..
	0x0020 bc 24 d0 01 00 00 44 0f 11 bc 24 e0 01 00 00 44  .$....D...$....D
	0x0030 0f 11 bc 24 f0 01 00 00 48 8d bc 24 80 00 00 00  ...$....H..$....
	0x0040 48 8d 7f d0 48 89 6c 24 f0 48 8d 6c 24 f0 e8 00  H...H.l$.H.l$...
	0x0050 00 00 00 48 8b 6d 00 48 8d 84 24 80 00 00 00 48  ...H.m.H..$....H
	0x0060 89 84 24 e0 01 00 00 e8 00 00 00 00 89 84 24 dc  ..$...........$.
	0x0070 01 00 00 0f 57 c0 f2 0f 11 44 24 60 f2 0f 11 44  ....W....D$`...D
	0x0080 24 68 48 8d 05 00 00 00 00 48 8d 9c 24 d0 01 00  $hH......H..$...
	0x0090 00 48 8d 4c 24 60 e8 00 00 00 00 48 8b 48 10 48  .H.L$`.....H.H.H
	0x00a0 8b 58 08 48 ff c3 48 8b 10 48 39 d9 73 4d 48 89  .X.H..H..H9.sMH.
	0x00b0 84 24 40 02 00 00 48 89 d0 bf 01 00 00 00 48 8d  .$@...H.......H.
	0x00c0 35 00 00 00 00 e8 00 00 00 00 48 8b 94 24 40 02  5.........H..$@.
	0x00d0 00 00 48 89 4a 10 83 3d 00 00 00 00 00 74 10 90  ..H.J..=.....t..
	0x00e0 e8 00 00 00 00 49 89 03 48 8b 32 49 89 73 08 48  .....I..H.2I.s.H
	0x00f0 89 02 48 89 c1 48 89 d0 48 89 ca 48 89 58 08 48  ..H..H..H..H.X.H
	0x0100 8d 73 ff 48 c1 e6 04 f2 0f 10 05 00 00 00 00 f2  .s.H............
	0x0110 0f 11 04 32 0f 57 c9 f2 0f 11 4c 32 08 f2 0f 11  ...2.W....L2....
	0x0120 4c 24 60 f2 0f 11 4c 24 68 48 8d 05 00 00 00 00  L$`...L$hH......
	0x0130 48 8d 9c 24 d0 01 00 00 48 8d 4c 24 60 0f 1f 00  H..$....H.L$`...
	0x0140 e8 00 00 00 00 48 8b 48 10 48 8b 58 08 48 83 c3  .....H.H.H.X.H..
	0x0150 03 48 8b 10 48 39 d9 73 4c 48 89 84 24 38 02 00  .H..H9.sLH..$8..
	0x0160 00 48 89 d0 bf 03 00 00 00 48 8d 35 00 00 00 00  .H.......H.5....
	0x0170 e8 00 00 00 00 48 8b 94 24 38 02 00 00 48 89 4a  .....H..$8...H.J
	0x0180 10 83 3d 00 00 00 00 00 74 0f e8 00 00 00 00 49  ..=.....t......I
	0x0190 89 03 48 8b 0a 49 89 4b 08 48 89 02 48 89 c1 48  ..H..I.K.H..H..H
	0x01a0 89 d0 48 89 ca 48 89 58 08 48 8d 4b fd 48 c1 e1  ..H..H.X.H.K.H..
	0x01b0 04 f2 0f 10 05 00 00 00 00 f2 0f 11 04 0a 0f 57  ...............W
	0x01c0 c9 f2 0f 11 4c 0a 08 f2 0f 10 15 00 00 00 00 f2  ....L...........
	0x01d0 0f 11 54 0a 10 f2 0f 11 4c 0a 18 f2 0f 10 15 00  ..T.....L.......
	0x01e0 00 00 00 f2 0f 11 54 0a 20 f2 0f 11 4c 0a 28 48  ......T. ...L.(H
	0x01f0 8d 05 00 00 00 00 e8 00 00 00 00 48 89 84 24 30  ...........H..$0
	0x0200 02 00 00 f2 0f 10 05 00 00 00 00 f2 0f 11 00 0f  ................
	0x0210 57 c0 f2 0f 11 40 08 f2 0f 10 0d 00 00 00 00 f2  W....@..........
	0x0220 0f 11 48 10 f2 0f 11 40 18 f2 0f 10 0d 00 00 00  ..H....@........
	0x0230 00 f2 0f 11 48 20 f2 0f 11 40 28 f2 0f 11 40 30  ....H ...@(...@0
	0x0240 f2 0f 11 40 38 f2 0f 11 44 24 60 f2 0f 11 44 24  ...@8...D$`...D$
	0x0250 68 48 8d 9c 24 d0 01 00 00 48 8d 4c 24 60 48 8d  hH..$....H.L$`H.
	0x0260 05 00 00 00 00 e8 00 00 00 00 48 89 84 24 28 02  ..........H..$(.
	0x0270 00 00 48 8b 48 10 48 8b 58 08 48 8d 53 04 48 8b  ..H.H.H.X.H.S.H.
	0x0280 30 48 39 d1 73 2a 48 89 5c 24 58 48 89 f0 48 89  0H9.s*H.\$XH..H.
	0x0290 d3 bf 04 00 00 00 48 8d 35 00 00 00 00 0f 1f 00  ......H.5.......
	0x02a0 e8 00 00 00 00 48 89 c6 48 89 da 48 8b 5c 24 58  .....H..H..H.\$X
	0x02b0 48 89 4c 24 58 48 89 54 24 50 48 89 b4 24 20 02  H.L$XH.T$PH..$ .
	0x02c0 00 00 48 c1 e3 04 48 8d 04 1e 48 8b 9c 24 30 02  ..H...H...H..$0.
	0x02d0 00 00 b9 40 00 00 00 e8 00 00 00 00 48 8b 54 24  ...@........H.T$
	0x02e0 50 48 8b b4 24 28 02 00 00 48 89 56 08 48 8b 54  PH..$(...H.V.H.T
	0x02f0 24 58 48 89 56 10 83 3d 00 00 00 00 00 75 0a 48  $XH.V..=.....u.H
	0x0300 8b 94 24 20 02 00 00 eb 17 e8 00 00 00 00 48 8b  ..$ ..........H.
	0x0310 94 24 20 02 00 00 49 89 13 48 8b 3e 49 89 7b 08  .$ ...I..H.>I.{.
	0x0320 48 89 16 0f 57 c0 f2 0f 11 44 24 60 f2 0f 11 44  H...W....D$`...D
	0x0330 24 68 f2 0f 11 44 24 40 f2 0f 11 44 24 48 48 8d  $h...D$@...D$HH.
	0x0340 05 00 00 00 00 48 8d 9c 24 d0 01 00 00 48 8d 4c  .....H..$....H.L
	0x0350 24 40 e8 00 00 00 00 48 8b 58 08 48 8d 53 04 48  $@.....H.X.H.S.H
	0x0360 8b 30 48 83 fa 04 77 0f 48 8b 84 24 30 02 00 00  .0H...w.H..$0...
	0x0370 b9 04 00 00 00 eb 3e 48 89 b4 24 18 02 00 00 48  ......>H..$....H
	0x0380 89 5c 24 58 48 8b 84 24 30 02 00 00 b9 04 00 00  .\$XH..$0.......
	0x0390 00 48 89 df 48 8d 35 00 00 00 00 48 89 d3 66 90  .H..H.5....H..f.
	0x03a0 e8 00 00 00 00 48 8b b4 24 18 02 00 00 48 89 da  .....H..$....H..
	0x03b0 48 8b 5c 24 58 48 89 84 24 10 02 00 00 48 89 4c  H.\$XH..$....H.L
	0x03c0 24 58 48 89 54 24 50 48 c1 e3 04 48 8d 78 40 48  $XH.T$PH...H.x@H
	0x03d0 89 f8 49 89 d9 48 89 f3 4c 89 c9 0f 1f 44 00 00  ..I..H..L....D..
	0x03e0 e8 00 00 00 00 48 8d 05 00 00 00 00 48 8d 9c 24  .....H......H..$
	0x03f0 d0 01 00 00 48 8d 4c 24 60 e8 00 00 00 00 48 8b  ....H.L$`.....H.
	0x0400 54 24 50 48 89 50 08 48 8b 54 24 58 48 89 50 10  T$PH.P.H.T$XH.P.
	0x0410 83 3d 00 00 00 00 00 75 0a 48 8b 94 24 10 02 00  .=.....u.H..$...
	0x0420 00 eb 17 e8 00 00 00 00 48 8b 94 24 10 02 00 00  ........H..$....
	0x0430 49 89 13 48 8b 30 49 89 73 08 48 89 10 0f 57 c0  I..H.0I.s.H...W.
	0x0440 f2 0f 11 44 24 40 f2 0f 11 44 24 48 f2 0f 11 44  ...D$@...D$H...D
	0x0450 24 60 f2 0f 11 44 24 68 48 8d 05 00 00 00 00 48  $`...D$hH......H
	0x0460 8d 9c 24 d0 01 00 00 48 8d 4c 24 60 e8 00 00 00  ..$....H.L$`....
	0x0470 00 48 8b 48 10 48 8b 58 08 48 ff c3 48 8b 00 90  .H.H.H.X.H..H...
	0x0480 48 39 d9 73 11 bf 01 00 00 00 48 8d 35 00 00 00  H9.s......H.5...
	0x0490 00 e8 00 00 00 00 48 89 84 24 08 02 00 00 48 89  ......H..$....H.
	0x04a0 5c 24 58 48 89 4c 24 50 48 8d 53 ff 48 c1 e2 04  \$XH.L$PH.S.H...
	0x04b0 f2 0f 10 05 00 00 00 00 f2 0f 11 04 10 0f 57 c0  ..............W.
	0x04c0 f2 0f 11 44 10 08 f2 0f 10 4c 24 40 f2 0f 10 54  ...D.....L$@...T
	0x04d0 24 48 f2 0f 11 4c 24 70 f2 0f 11 54 24 78 0f b6  $H...L$p...T$x..
	0x04e0 15 00 00 00 00 83 f2 01 88 15 00 00 00 00 48 8d  ..............H.
	0x04f0 05 00 00 00 00 48 8d 9c 24 d0 01 00 00 48 8d 4c  .....H..$....H.L
	0x0500 24 70 e8 00 00 00 00 48 8b 54 24 58 48 89 50 08  $p.....H.T$XH.P.
	0x0510 48 8b 54 24 50 48 89 50 10 83 3d 00 00 00 00 00  H.T$PH.P..=.....
	0x0520 75 0a 48 8b 94 24 08 02 00 00 eb 17 e8 00 00 00  u.H..$..........
	0x0530 00 48 8b 94 24 08 02 00 00 49 89 13 48 8b 30 49  .H..$....I..H.0I
	0x0540 89 73 08 48 89 10 0f 57 c0 f2 0f 11 44 24 60 f2  .s.H...W....D$`.
	0x0550 0f 11 44 24 68 f2 0f 10 0d 00 00 00 00 f2 0f 11  ..D$h...........
	0x0560 4c 24 40 f2 0f 11 44 24 48 48 8d 05 00 00 00 00  L$@...D$HH......
	0x0570 48 8d 9c 24 d0 01 00 00 48 8d 4c 24 40 0f 1f 00  H..$....H.L$@...
	0x0580 e8 00 00 00 00 48 8b 48 10 48 8b 58 08 48 ff c3  .....H.H.H.X.H..
	0x0590 48 8b 00 48 39 d9 73 11 bf 01 00 00 00 48 8d 35  H..H9.s......H.5
	0x05a0 00 00 00 00 e8 00 00 00 00 48 89 84 24 00 02 00  .........H..$...
	0x05b0 00 48 89 5c 24 58 48 89 4c 24 50 48 8d 53 ff 48  .H.\$XH.L$PH.S.H
	0x05c0 c1 e2 04 f2 0f 10 05 00 00 00 00 f2 0f 11 04 10  ................
	0x05d0 0f 57 c0 f2 0f 11 44 10 08 48 8d 05 00 00 00 00  .W....D..H......
	0x05e0 48 8d 9c 24 d0 01 00 00 48 8d 4c 24 60 e8 00 00  H..$....H.L$`...
	0x05f0 00 00 48 8b 54 24 58 48 89 50 08 48 8b 54 24 50  ..H.T$XH.P.H.T$P
	0x0600 48 89 50 10 83 3d 00 00 00 00 00 75 0a 48 8b 8c  H.P..=.....u.H..
	0x0610 24 00 02 00 00 eb 17 e8 00 00 00 00 48 8b 8c 24  $...........H..$
	0x0620 00 02 00 00 49 89 0b 48 8b 10 49 89 53 08 48 89  ....I..H..I.S.H.
	0x0630 08 48 81 c4 48 02 00 00 5d c3 e8 00 00 00 00 90  .H..H...].......
	0x0640 e9 bb f9 ff ff                                   .....
	rel 79+4 t=R_CALL runtime.duffzero<1>+244
	rel 104+4 t=R_CALL runtime.rand32<1>+0
	rel 133+4 t=R_PCREL type:map[complex128][]complex128<0>+0
	rel 151+4 t=R_CALL runtime.mapassign<1>+0
	rel 193+4 t=R_PCREL type:complex128<0>+0
	rel 198+4 t=R_CALL runtime.growslice<1>+0
	rel 216+4 t=R_PCREL runtime.writeBarrier<0>+-1
	rel 225+4 t=R_CALL runtime.gcWriteBarrier2<1>+0
	rel 267+4 t=R_PCREL $f64.3ff0000000000000<0>+0
	rel 300+4 t=R_PCREL type:map[complex128][]complex128<0>+0
	rel 321+4 t=R_CALL runtime.mapassign<1>+0
	rel 364+4 t=R_PCREL type:complex128<0>+0
	rel 369+4 t=R_CALL runtime.growslice<1>+0
	rel 387+4 t=R_PCREL runtime.writeBarrier<0>+-1
	rel 395+4 t=R_CALL runtime.gcWriteBarrier2<1>+0
	rel 437+4 t=R_PCREL $f64.3ff0000000000000<0>+0
	rel 459+4 t=R_PCREL $f64.4000000000000000<0>+0
	rel 479+4 t=R_PCREL $f64.4008000000000000<0>+0
	rel 498+4 t=R_PCREL type:[4]complex128<0>+0
	rel 503+4 t=R_CALL runtime.newobject<1>+0
	rel 519+4 t=R_PCREL $f64.401c000000000000<0>+0
	rel 539+4 t=R_PCREL $f64.4020000000000000<0>+0
	rel 557+4 t=R_PCREL $f64.4022000000000000<0>+0
	rel 609+4 t=R_PCREL type:map[complex128][]complex128<0>+0
	rel 614+4 t=R_CALL runtime.mapassign<1>+0
	rel 665+4 t=R_PCREL type:complex128<0>+0
	rel 673+4 t=R_CALL runtime.growslice<1>+0
	rel 728+4 t=R_CALL runtime.memmove<1>+0
	rel 760+4 t=R_PCREL runtime.writeBarrier<0>+-1
	rel 778+4 t=R_CALL runtime.gcWriteBarrier2<1>+0
	rel 833+4 t=R_PCREL type:map[complex128][]complex128<0>+0
	rel 851+4 t=R_CALL runtime.mapaccess1<1>+0
	rel 919+4 t=R_PCREL type:complex128<0>+0
	rel 929+4 t=R_CALL runtime.growslice<1>+0
	rel 993+4 t=R_CALL runtime.memmove<1>+0
	rel 1000+4 t=R_PCREL type:map[complex128][]complex128<0>+0
	rel 1018+4 t=R_CALL runtime.mapassign<1>+0
	rel 1042+4 t=R_PCREL runtime.writeBarrier<0>+-1
	rel 1060+4 t=R_CALL runtime.gcWriteBarrier2<1>+0
	rel 1115+4 t=R_PCREL type:map[complex128][]complex128<0>+0
	rel 1133+4 t=R_CALL runtime.mapaccess1<1>+0
	rel 1165+4 t=R_PCREL type:complex128<0>+0
	rel 1170+4 t=R_CALL runtime.growslice<1>+0
	rel 1204+4 t=R_PCREL $f64.4058c00000000000<0>+0
	rel 1249+4 t=R_PCREL command-line-arguments.sinkAppend<0>+0
	rel 1258+4 t=R_PCREL command-line-arguments.sinkAppend<0>+0
	rel 1265+4 t=R_PCREL type:map[complex128][]complex128<0>+0
	rel 1283+4 t=R_CALL runtime.mapassign<1>+0
	rel 1307+4 t=R_PCREL runtime.writeBarrier<0>+-1
	rel 1325+4 t=R_CALL runtime.gcWriteBarrier2<1>+0
	rel 1369+4 t=R_PCREL $f64.3ff0000000000000<0>+0
	rel 1388+4 t=R_PCREL type:map[complex128][]complex128<0>+0
	rel 1409+4 t=R_CALL runtime.mapaccess1<1>+0
	rel 1440+4 t=R_PCREL type:complex128<0>+0
	rel 1445+4 t=R_CALL runtime.growslice<1>+0
	rel 1479+4 t=R_PCREL $f64.4059000000000000<0>+0
	rel 1500+4 t=R_PCREL type:map[complex128][]complex128<0>+0
	rel 1518+4 t=R_CALL runtime.mapassign<1>+0
	rel 1542+4 t=R_PCREL runtime.writeBarrier<0>+-1
	rel 1560+4 t=R_CALL runtime.gcWriteBarrier2<1>+0
	rel 1595+4 t=R_CALL runtime.morestack_noctxt<0>+0
command-line-arguments.mapAppendAssignmentString<1> STEXT size=1689 args=0x0 locals=0x220 funcid=0x0 align=0x0
	0x0000 00000 (/home/xzl/work/golang-1.22/golang-1.22/test/codegen/mapaccess.go:441)	TEXT	command-line-arguments.mapAppendAssignmentString(SB), ABIInternal, $544-0
	0x0000 00000 (/home/xzl/work/golang-1.22/golang-1.22/test/codegen/mapaccess.go:441)	LEAQ	-416(SP), R12
	0x0008 00008 (/home/xzl/work/golang-1.22/golang-1.22/test/codegen/mapaccess.go:441)	CMPQ	R12, 16(R14)
	0x000c 00012 (/home/xzl/work/golang-1.22/golang-1.22/test/codegen/mapaccess.go:441)	PCDATA	$0, $-2
	0x000c 00012 (/home/xzl/work/golang-1.22/golang-1.22/test/codegen/mapaccess.go:441)	JLS	1679
	0x0012 00018 (/home/xzl/work/golang-1.22/golang-1.22/test/codegen/mapaccess.go:441)	PCDATA	$0, $-1
	0x0012 00018 (/home/xzl/work/golang-1.22/golang-1.22/test/codegen/mapaccess.go:441)	PUSHQ	BP
	0x0013 00019 (/home/xzl/work/golang-1.22/golang-1.22/test/codegen/mapaccess.go:441)	MOVQ	SP, BP
	0x0016 00022 (/home/xzl/work/golang-1.22/golang-1.22/test/codegen/mapaccess.go:441)	SUBQ	$536, SP
	0x001d 00029 (/home/xzl/work/golang-1.22/golang-1.22/test/codegen/mapaccess.go:441)	FUNCDATA	$0, gclocals·NEKgZvOsl7KFGa9L8DSpqQ==(SB)
	0x001d 00029 (/home/xzl/work/golang-1.22/golang-1.22/test/codegen/mapaccess.go:441)	FUNCDATA	$1, gclocals·wXl4z7ezpHCvJKiUPMD2cA==(SB)
	0x001d 00029 (/home/xzl/work/golang-1.22/golang-1.22/test/codegen/mapaccess.go:441)	FUNCDATA	$2, command-line-arguments.mapAppendAssignmentString.stkobj(SB)
	0x001d 00029 (/home/xzl/work/golang-1.22/golang-1.22/test/codegen/mapaccess.go:442)	MOVUPS	X15, command-line-arguments..autotmp_4+448(SP)
	0x0026 00038 (/home/xzl/work/golang-1.22/golang-1.22/test/codegen/mapaccess.go:442)	MOVUPS	X15, command-line-arguments..autotmp_4+464(SP)
	0x002f 00047 (/home/xzl/work/golang-1.22/golang-1.22/test/codegen/mapaccess.go:442)	MOVUPS	X15, command-line-arguments..autotmp_4+480(SP)
	0x0038 00056 (/home/xzl/work/golang-1.22/golang-1.22/test/codegen/mapaccess.go:442)	LEAQ	command-line-arguments..autotmp_5+112(SP), DI
	0x003d 00061 (/home/xzl/work/golang-1.22/golang-1.22/test/codegen/mapaccess.go:442)	PCDATA	$0, $-2
	0x003d 00061 (/home/xzl/work/golang-1.22/golang-1.22/test/codegen/mapaccess.go:442)	LEAQ	-48(DI), DI
	0x0041 00065 (/home/xzl/work/golang-1.22/golang-1.22/test/codegen/mapaccess.go:442)	DUFFZERO	$244
	0x0054 00084 (/home/xzl/work/golang-1.22/golang-1.22/test/codegen/mapaccess.go:442)	PCDATA	$0, $-1
	0x0054 00084 (/home/xzl/work/golang-1.22/golang-1.22/test/codegen/mapaccess.go:442)	LEAQ	command-line-arguments..autotmp_5+112(SP), AX
	0x0059 00089 (/home/xzl/work/golang-1.22/golang-1.22/test/codegen/mapaccess.go:442)	MOVQ	AX, command-line-arguments..autotmp_4+464(SP)
	0x0061 00097 (/home/xzl/work/golang-1.22/golang-1.22/test/codegen/mapaccess.go:442)	PCDATA	$1, $1
	0x0061 00097 (/home/xzl/work/golang-1.22/golang-1.22/test/codegen/mapaccess.go:442)	CALL	runtime.rand32(SB)
	0x0066 00102 (/home/xzl/work/golang-1.22/golang-1.22/test/codegen/mapaccess.go:442)	MOVL	AX, command-line-arguments..autotmp_4+460(SP)
	0x006d 00109 (/home/xzl/work/golang-1.22/golang-1.22/test/codegen/mapaccess.go:449)	LEAQ	type:map[string][]string(SB), AX
	0x0074 00116 (/home/xzl/work/golang-1.22/golang-1.22/test/codegen/mapaccess.go:449)	LEAQ	command-line-arguments..autotmp_4+448(SP), BX
	0x007c 00124 (/home/xzl/work/golang-1.22/golang-1.22/test/codegen/mapaccess.go:449)	LEAQ	go:string."key"(SB), CX
	0x0083 00131 (/home/xzl/work/golang-1.22/golang-1.22/test/codegen/mapaccess.go:449)	MOVL	$3, DI
	0x0088 00136 (/home/xzl/work/golang-1.22/golang-1.22/test/codegen/mapaccess.go:449)	CALL	runtime.mapassign_faststr(SB)
	0x008d 00141 (/home/xzl/work/golang-1.22/golang-1.22/test/codegen/mapaccess.go:449)	MOVQ	16(AX), CX
	0x0091 00145 (/home/xzl/work/golang-1.22/golang-1.22/test/codegen/mapaccess.go:449)	MOVQ	8(AX), BX
	0x0095 00149 (/home/xzl/work/golang-1.22/golang-1.22/test/codegen/mapaccess.go:449)	INCQ	BX
	0x0098 00152 (/home/xzl/work/golang-1.22/golang-1.22/test/codegen/mapaccess.go:449)	MOVQ	(AX), DX
	0x009b 00155 (/home/xzl/work/golang-1.22/golang-1.22/test/codegen/mapaccess.go:449)	NOP
	0x00a0 00160 (/home/xzl/work/golang-1.22/golang-1.22/test/codegen/mapaccess.go:449)	CMPQ	CX, BX
	0x00a3 00163 (/home/xzl/work/golang-1.22/golang-1.22/test/codegen/mapaccess.go:449)	JCC	245
	0x00a5 00165 (/home/xzl/work/golang-1.22/golang-1.22/test/codegen/mapaccess.go:449)	MOVQ	AX, command-line-arguments..autotmp_30+528(SP)
	0x00ad 00173 (/home/xzl/work/golang-1.22/golang-1.22/test/codegen/mapaccess.go:449)	MOVQ	DX, AX
	0x00b0 00176 (/home/xzl/work/golang-1.22/golang-1.22/test/codegen/mapaccess.go:449)	MOVL	$1, DI
	0x00b5 00181 (/home/xzl/work/golang-1.22/golang-1.22/test/codegen/mapaccess.go:449)	LEAQ	type:string(SB), SI
	0x00bc 00188 (/home/xzl/work/golang-1.22/golang-1.22/test/codegen/mapaccess.go:449)	PCDATA	$1, $2
	0x00bc 00188 (/home/xzl/work/golang-1.22/golang-1.22/test/codegen/mapaccess.go:449)	NOP
	0x00c0 00192 (/home/xzl/work/golang-1.22/golang-1.22/test/codegen/mapaccess.go:449)	CALL	runtime.growslice(SB)
	0x00c5 00197 (/home/xzl/work/golang-1.22/golang-1.22/test/codegen/mapaccess.go:449)	MOVQ	command-line-arguments..autotmp_30+528(SP), DX
	0x00cd 00205 (/home/xzl/work/golang-1.22/golang-1.22/test/codegen/mapaccess.go:449)	MOVQ	CX, 16(DX)
	0x00d1 00209 (/home/xzl/work/golang-1.22/golang-1.22/test/codegen/mapaccess.go:449)	CMPL	runtime.writeBarrier(SB), $0
	0x00d8 00216 (/home/xzl/work/golang-1.22/golang-1.22/test/codegen/mapaccess.go:449)	PCDATA	$0, $-2
	0x00d8 00216 (/home/xzl/work/golang-1.22/golang-1.22/test/codegen/mapaccess.go:449)	JEQ	233
	0x00da 00218 (/home/xzl/work/golang-1.22/golang-1.22/test/codegen/mapaccess.go:449)	CALL	runtime.gcWriteBarrier2(SB)
	0x00df 00223 (/home/xzl/work/golang-1.22/golang-1.22/test/codegen/mapaccess.go:449)	MOVQ	AX, (R11)
	0x00e2 00226 (/home/xzl/work/golang-1.22/golang-1.22/test/codegen/mapaccess.go:449)	MOVQ	(DX), SI
	0x00e5 00229 (/home/xzl/work/golang-1.22/golang-1.22/test/codegen/mapaccess.go:449)	MOVQ	SI, 8(R11)
	0x00e9 00233 (/home/xzl/work/golang-1.22/golang-1.22/test/codegen/mapaccess.go:449)	MOVQ	AX, (DX)
	0x00ec 00236 (/home/xzl/work/golang-1.22/golang-1.22/test/codegen/mapaccess.go:449)	PCDATA	$0, $-1
	0x00ec 00236 (/home/xzl/work/golang-1.22/golang-1.22/test/codegen/mapaccess.go:449)	MOVQ	AX, CX
	0x00ef 00239 (/home/xzl/work/golang-1.22/golang-1.22/test/codegen/mapaccess.go:449)	MOVQ	DX, AX
	0x00f2 00242 (/home/xzl/work/golang-1.22/golang-1.22/test/codegen/mapaccess.go:449)	MOVQ	CX, DX
	0x00f5 00245 (/home/xzl/work/golang-1.22/golang-1.22/test/codegen/mapaccess.go:449)	MOVQ	BX, 8(AX)
	0x00f9 00249 (/home/xzl/work/golang-1.22/golang-1.22/test/codegen/mapaccess.go:449)	LEAQ	-1(BX), SI
	0x00fd 00253 (/home/xzl/work/golang-1.22/golang-1.22/test/codegen/mapaccess.go:449)	SHLQ	$4, SI
	0x0101 00257 (/home/xzl/work/golang-1.22/golang-1.22/test/codegen/mapaccess.go:449)	MOVQ	$1, 8(DX)(SI*1)
	0x010a 00266 (/home/xzl/work/golang-1.22/golang-1.22/test/codegen/mapaccess.go:449)	CMPL	runtime.writeBarrier(SB), $0
	0x0111 00273 (/home/xzl/work/golang-1.22/golang-1.22/test/codegen/mapaccess.go:449)	PCDATA	$0, $-2
	0x0111 00273 (/home/xzl/work/golang-1.22/golang-1.22/test/codegen/mapaccess.go:449)	JEQ	287
	0x0113 00275 (/home/xzl/work/golang-1.22/golang-1.22/test/codegen/mapaccess.go:449)	MOVQ	(DX)(SI*1), R8
	0x0117 00279 (/home/xzl/work/golang-1.22/golang-1.22/test/codegen/mapaccess.go:449)	CALL	runtime.gcWriteBarrier1(SB)
	0x011c 00284 (/home/xzl/work/golang-1.22/golang-1.22/test/codegen/mapaccess.go:449)	MOVQ	R8, (R11)
	0x011f 00287 (/home/xzl/work/golang-1.22/golang-1.22/test/codegen/mapaccess.go:449)	LEAQ	go:string."1"(SB), R8
	0x0126 00294 (/home/xzl/work/golang-1.22/golang-1.22/test/codegen/mapaccess.go:449)	MOVQ	R8, (DX)(SI*1)
	0x012a 00298 (/home/xzl/work/golang-1.22/golang-1.22/test/codegen/mapaccess.go:455)	PCDATA	$0, $-1
	0x012a 00298 (/home/xzl/work/golang-1.22/golang-1.22/test/codegen/mapaccess.go:455)	LEAQ	type:map[string][]string(SB), AX
	0x0131 00305 (/home/xzl/work/golang-1.22/golang-1.22/test/codegen/mapaccess.go:455)	LEAQ	command-line-arguments..autotmp_4+448(SP), BX
	0x0139 00313 (/home/xzl/work/golang-1.22/golang-1.22/test/codegen/mapaccess.go:455)	LEAQ	go:string."key"(SB), CX
	0x0140 00320 (/home/xzl/work/golang-1.22/golang-1.22/test/codegen/mapaccess.go:455)	MOVL	$3, DI
	0x0145 00325 (/home/xzl/work/golang-1.22/golang-1.22/test/codegen/mapaccess.go:455)	PCDATA	$1, $1
	0x0145 00325 (/home/xzl/work/golang-1.22/golang-1.22/test/codegen/mapaccess.go:455)	CALL	runtime.mapassign_faststr(SB)
	0x014a 00330 (/home/xzl/work/golang-1.22/golang-1.22/test/codegen/mapaccess.go:455)	MOVQ	16(AX), CX
	0x014e 00334 (/home/xzl/work/golang-1.22/golang-1.22/test/codegen/mapaccess.go:455)	MOVQ	8(AX), BX
	0x0152 00338 (/home/xzl/work/golang-1.22/golang-1.22/test/codegen/mapaccess.go:455)	ADDQ	$3, BX
	0x0156 00342 (/home/xzl/work/golang-1.22/golang-1.22/test/codegen/mapaccess.go:455)	MOVQ	(AX), DX
	0x0159 00345 (/home/xzl/work/golang-1.22/golang-1.22/test/codegen/mapaccess.go:455)	CMPQ	CX, BX
	0x015c 00348 (/home/xzl/work/golang-1.22/golang-1.22/test/codegen/mapaccess.go:455)	JCC	426
	0x015e 00350 (/home/xzl/work/golang-1.22/golang-1.22/test/codegen/mapaccess.go:455)	MOVQ	AX, command-line-arguments..autotmp_31+520(SP)
	0x0166 00358 (/home/xzl/work/golang-1.22/golang-1.22/test/codegen/mapaccess.go:455)	MOVQ	DX, AX
	0x0169 00361 (/home/xzl/work/golang-1.22/golang-1.22/test/codegen/mapaccess.go:455)	MOVL	$3, DI
	0x016e 00366 (/home/xzl/work/golang-1.22/golang-1.22/test/codegen/mapaccess.go:455)	LEAQ	type:string(SB), SI
	0x0175 00373 (/home/xzl/work/golang-1.22/golang-1.22/test/codegen/mapaccess.go:455)	PCDATA	$1, $3
	0x0175 00373 (/home/xzl/work/golang-1.22/golang-1.22/test/codegen/mapaccess.go:455)	CALL	runtime.growslice(SB)
	0x017a 00378 (/home/xzl/work/golang-1.22/golang-1.22/test/codegen/mapaccess.go:455)	MOVQ	command-line-arguments..autotmp_31+520(SP), DX
	0x0182 00386 (/home/xzl/work/golang-1.22/golang-1.22/test/codegen/mapaccess.go:455)	MOVQ	CX, 16(DX)
	0x0186 00390 (/home/xzl/work/golang-1.22/golang-1.22/test/codegen/mapaccess.go:455)	CMPL	runtime.writeBarrier(SB), $0
	0x018d 00397 (/home/xzl/work/golang-1.22/golang-1.22/test/codegen/mapaccess.go:455)	PCDATA	$0, $-2
	0x018d 00397 (/home/xzl/work/golang-1.22/golang-1.22/test/codegen/mapaccess.go:455)	JEQ	414
	0x018f 00399 (/home/xzl/work/golang-1.22/golang-1.22/test/codegen/mapaccess.go:455)	CALL	runtime.gcWriteBarrier2(SB)
	0x0194 00404 (/home/xzl/work/golang-1.22/golang-1.22/test/codegen/mapaccess.go:455)	MOVQ	AX, (R11)
	0x0197 00407 (/home/xzl/work/golang-1.22/golang-1.22/test/codegen/mapaccess.go:455)	MOVQ	(DX), CX
	0x019a 00410 (/home/xzl/work/golang-1.22/golang-1.22/test/codegen/mapaccess.go:455)	MOVQ	CX, 8(R11)
	0x019e 00414 (/home/xzl/work/golang-1.22/golang-1.22/test/codegen/mapaccess.go:455)	MOVQ	AX, (DX)
	0x01a1 00417 (/home/xzl/work/golang-1.22/golang-1.22/test/codegen/mapaccess.go:455)	PCDATA	$0, $-1
	0x01a1 00417 (/home/xzl/work/golang-1.22/golang-1.22/test/codegen/mapaccess.go:455)	MOVQ	AX, CX
	0x01a4 00420 (/home/xzl/work/golang-1.22/golang-1.22/test/codegen/mapaccess.go:455)	MOVQ	DX, AX
	0x01a7 00423 (/home/xzl/work/golang-1.22/golang-1.22/test/codegen/mapaccess.go:455)	MOVQ	CX, DX
	0x01aa 00426 (/home/xzl/work/golang-1.22/golang-1.22/test/codegen/mapaccess.go:455)	MOVQ	BX, 8(AX)
	0x01ae 00430 (/home/xzl/work/golang-1.22/golang-1.22/test/codegen/mapaccess.go:455)	LEAQ	-3(BX), CX
	0x01b2 00434 (/home/xzl/work/golang-1.22/golang-1.22/test/codegen/mapaccess.go:455)	SHLQ	$4, CX
	0x01b6 00438 (/home/xzl/work/golang-1.22/golang-1.22/test/codegen/mapaccess.go:455)	MOVQ	$1, 8(DX)(CX*1)
	0x01bf 00447 (/home/xzl/work/golang-1.22/golang-1.22/test/codegen/mapaccess.go:455)	CMPL	runtime.writeBarrier(SB), $0
	0x01c6 00454 (/home/xzl/work/golang-1.22/golang-1.22/test/codegen/mapaccess.go:455)	PCDATA	$0, $-2
	0x01c6 00454 (/home/xzl/work/golang-1.22/golang-1.22/test/codegen/mapaccess.go:455)	JEQ	486
	0x01c8 00456 (/home/xzl/work/golang-1.22/golang-1.22/test/codegen/mapaccess.go:455)	MOVQ	(DX)(CX*1), BX
	0x01cc 00460 (/home/xzl/work/golang-1.22/golang-1.22/test/codegen/mapaccess.go:455)	CALL	runtime.gcWriteBarrier3(SB)
	0x01d1 00465 (/home/xzl/work/golang-1.22/golang-1.22/test/codegen/mapaccess.go:455)	MOVQ	BX, (R11)
	0x01d4 00468 (/home/xzl/work/golang-1.22/golang-1.22/test/codegen/mapaccess.go:455)	MOVQ	16(DX)(CX*1), BX
	0x01d9 00473 (/home/xzl/work/golang-1.22/golang-1.22/test/codegen/mapaccess.go:455)	MOVQ	BX, 8(R11)
	0x01dd 00477 (/home/xzl/work/golang-1.22/golang-1.22/test/codegen/mapaccess.go:455)	MOVQ	32(DX)(CX*1), BX
	0x01e2 00482 (/home/xzl/work/golang-1.22/golang-1.22/test/codegen/mapaccess.go:455)	MOVQ	BX, 16(R11)
	0x01e6 00486 (/home/xzl/work/golang-1.22/golang-1.22/test/codegen/mapaccess.go:455)	LEAQ	go:string."1"(SB), BX
	0x01ed 00493 (/home/xzl/work/golang-1.22/golang-1.22/test/codegen/mapaccess.go:455)	MOVQ	BX, (DX)(CX*1)
	0x01f1 00497 (/home/xzl/work/golang-1.22/golang-1.22/test/codegen/mapaccess.go:455)	MOVQ	$1, 24(DX)(CX*1)
	0x01fa 00506 (/home/xzl/work/golang-1.22/golang-1.22/test/codegen/mapaccess.go:455)	LEAQ	go:string."2"(SB), SI
	0x0201 00513 (/home/xzl/work/golang-1.22/golang-1.22/test/codegen/mapaccess.go:455)	MOVQ	SI, 16(DX)(CX*1)
	0x0206 00518 (/home/xzl/work/golang-1.22/golang-1.22/test/codegen/mapaccess.go:455)	MOVQ	$1, 40(DX)(CX*1)
	0x020f 00527 (/home/xzl/work/golang-1.22/golang-1.22/test/codegen/mapaccess.go:455)	LEAQ	go:string."3"(SB), SI
	0x0216 00534 (/home/xzl/work/golang-1.22/golang-1.22/test/codegen/mapaccess.go:455)	MOVQ	SI, 32(DX)(CX*1)
	0x021b 00539 (/home/xzl/work/golang-1.22/golang-1.22/test/codegen/mapaccess.go:457)	PCDATA	$0, $-1
	0x021b 00539 (/home/xzl/work/golang-1.22/golang-1.22/test/codegen/mapaccess.go:457)	LEAQ	type:[4]string(SB), AX
	0x0222 00546 (/home/xzl/work/golang-1.22/golang-1.22/test/codegen/mapaccess.go:457)	PCDATA	$1, $1
	0x0222 00546 (/home/xzl/work/golang-1.22/golang-1.22/test/codegen/mapaccess.go:457)	CALL	runtime.newobject(SB)
	0x0227 00551 (/home/xzl/work/golang-1.22/golang-1.22/test/codegen/mapaccess.go:457)	MOVQ	AX, command-line-arguments..autotmp_32+512(SP)
	0x022f 00559 (/home/xzl/work/golang-1.22/golang-1.22/test/codegen/mapaccess.go:457)	MOVQ	$1, 8(AX)
	0x0237 00567 (/home/xzl/work/golang-1.22/golang-1.22/test/codegen/mapaccess.go:457)	LEAQ	go:string."7"(SB), CX
	0x023e 00574 (/home/xzl/work/golang-1.22/golang-1.22/test/codegen/mapaccess.go:457)	MOVQ	CX, (AX)
	0x0241 00577 (/home/xzl/work/golang-1.22/golang-1.22/test/codegen/mapaccess.go:457)	MOVQ	$1, 24(AX)
	0x0249 00585 (/home/xzl/work/golang-1.22/golang-1.22/test/codegen/mapaccess.go:457)	LEAQ	go:string."8"(SB), CX
	0x0250 00592 (/home/xzl/work/golang-1.22/golang-1.22/test/codegen/mapaccess.go:457)	MOVQ	CX, 16(AX)
	0x0254 00596 (/home/xzl/work/golang-1.22/golang-1.22/test/codegen/mapaccess.go:457)	MOVQ	$1, 40(AX)
	0x025c 00604 (/home/xzl/work/golang-1.22/golang-1.22/test/codegen/mapaccess.go:457)	LEAQ	go:string."9"(SB), CX
	0x0263 00611 (/home/xzl/work/golang-1.22/golang-1.22/test/codegen/mapaccess.go:457)	MOVQ	CX, 32(AX)
	0x0267 00615 (/home/xzl/work/golang-1.22/golang-1.22/test/codegen/mapaccess.go:457)	MOVQ	$1, 56(AX)
	0x026f 00623 (/home/xzl/work/golang-1.22/golang-1.22/test/codegen/mapaccess.go:457)	LEAQ	go:string."0"(SB), CX
	0x0276 00630 (/home/xzl/work/golang-1.22/golang-1.22/test/codegen/mapaccess.go:457)	MOVQ	CX, 48(AX)
	0x027a 00634 (/home/xzl/work/golang-1.22/golang-1.22/test/codegen/mapaccess.go:463)	LEAQ	command-line-arguments..autotmp_4+448(SP), BX
	0x0282 00642 (/home/xzl/work/golang-1.22/golang-1.22/test/codegen/mapaccess.go:463)	LEAQ	go:string."key"(SB), CX
	0x0289 00649 (/home/xzl/work/golang-1.22/golang-1.22/test/codegen/mapaccess.go:463)	MOVL	$3, DI
	0x028e 00654 (/home/xzl/work/golang-1.22/golang-1.22/test/codegen/mapaccess.go:463)	LEAQ	type:map[string][]string(SB), AX
	0x0295 00661 (/home/xzl/work/golang-1.22/golang-1.22/test/codegen/mapaccess.go:463)	PCDATA	$1, $4
	0x0295 00661 (/home/xzl/work/golang-1.22/golang-1.22/test/codegen/mapaccess.go:463)	CALL	runtime.mapassign_faststr(SB)
	0x029a 00666 (/home/xzl/work/golang-1.22/golang-1.22/test/codegen/mapaccess.go:463)	MOVQ	AX, command-line-arguments..autotmp_33+504(SP)
	0x02a2 00674 (/home/xzl/work/golang-1.22/golang-1.22/test/codegen/mapaccess.go:463)	MOVQ	8(AX), BX
	0x02a6 00678 (/home/xzl/work/golang-1.22/golang-1.22/test/codegen/mapaccess.go:463)	MOVQ	16(AX), CX
	0x02aa 00682 (/home/xzl/work/golang-1.22/golang-1.22/test/codegen/mapaccess.go:463)	LEAQ	4(BX), DX
	0x02ae 00686 (/home/xzl/work/golang-1.22/golang-1.22/test/codegen/mapaccess.go:463)	MOVQ	(AX), SI
	0x02b1 00689 (/home/xzl/work/golang-1.22/golang-1.22/test/codegen/mapaccess.go:463)	CMPQ	CX, DX
	0x02b4 00692 (/home/xzl/work/golang-1.22/golang-1.22/test/codegen/mapaccess.go:463)	JCC	733
	0x02b6 00694 (/home/xzl/work/golang-1.22/golang-1.22/test/codegen/mapaccess.go:463)	MOVQ	BX, command-line-arguments..autotmp_34+104(SP)
	0x02bb 00699 (/home/xzl/work/golang-1.22/golang-1.22/test/codegen/mapaccess.go:463)	MOVQ	SI, AX
	0x02be 00702 (/home/xzl/work/golang-1.22/golang-1.22/test/codegen/mapaccess.go:463)	MOVQ	DX, BX
	0x02c1 00705 (/home/xzl/work/golang-1.22/golang-1.22/test/codegen/mapaccess.go:463)	MOVL	$4, DI
	0x02c6 00710 (/home/xzl/work/golang-1.22/golang-1.22/test/codegen/mapaccess.go:463)	LEAQ	type:string(SB), SI
	0x02cd 00717 (/home/xzl/work/golang-1.22/golang-1.22/test/codegen/mapaccess.go:463)	PCDATA	$1, $5
	0x02cd 00717 (/home/xzl/work/golang-1.22/golang-1.22/test/codegen/mapaccess.go:463)	CALL	runtime.growslice(SB)
	0x02d2 00722 (/home/xzl/work/golang-1.22/golang-1.22/test/codegen/mapaccess.go:463)	MOVQ	AX, SI
	0x02d5 00725 (/home/xzl/work/golang-1.22/golang-1.22/test/codegen/mapaccess.go:463)	MOVQ	BX, DX
	0x02d8 00728 (/home/xzl/work/golang-1.22/golang-1.22/test/codegen/mapaccess.go:463)	MOVQ	command-line-arguments..autotmp_34+104(SP), BX
	0x02dd 00733 (/home/xzl/work/golang-1.22/golang-1.22/test/codegen/mapaccess.go:463)	MOVQ	DX, command-line-arguments..autotmp_34+104(SP)
	0x02e2 00738 (/home/xzl/work/golang-1.22/golang-1.22/test/codegen/mapaccess.go:463)	MOVQ	CX, command-line-arguments..autotmp_35+96(SP)
	0x02e7 00743 (/home/xzl/work/golang-1.22/golang-1.22/test/codegen/mapaccess.go:463)	MOVQ	SI, command-line-arguments..autotmp_36+496(SP)
	0x02ef 00751 (/home/xzl/work/golang-1.22/golang-1.22/test/codegen/mapaccess.go:463)	MOVQ	BX, R8
	0x02f2 00754 (/home/xzl/work/golang-1.22/golang-1.22/test/codegen/mapaccess.go:463)	SUBQ	CX, BX
	0x02f5 00757 (/home/xzl/work/golang-1.22/golang-1.22/test/codegen/mapaccess.go:463)	SUBQ	R8, DX
	0x02f8 00760 (/home/xzl/work/golang-1.22/golang-1.22/test/codegen/mapaccess.go:463)	SHLQ	$4, R8
	0x02fc 00764 (/home/xzl/work/golang-1.22/golang-1.22/test/codegen/mapaccess.go:463)	SARQ	$63, BX
	0x0300 00768 (/home/xzl/work/golang-1.22/golang-1.22/test/codegen/mapaccess.go:463)	ANDQ	R8, BX
	0x0303 00771 (/home/xzl/work/golang-1.22/golang-1.22/test/codegen/mapaccess.go:463)	ADDQ	SI, BX
	0x0306 00774 (/home/xzl/work/golang-1.22/golang-1.22/test/codegen/mapaccess.go:463)	LEAQ	type:string(SB), AX
	0x030d 00781 (/home/xzl/work/golang-1.22/golang-1.22/test/codegen/mapaccess.go:463)	MOVQ	command-line-arguments..autotmp_32+512(SP), DI
	0x0315 00789 (/home/xzl/work/golang-1.22/golang-1.22/test/codegen/mapaccess.go:463)	MOVQ	DX, CX
	0x0318 00792 (/home/xzl/work/golang-1.22/golang-1.22/test/codegen/mapaccess.go:463)	MOVL	$4, SI
	0x031d 00797 (/home/xzl/work/golang-1.22/golang-1.22/test/codegen/mapaccess.go:463)	PCDATA	$1, $6
	0x031d 00797 (/home/xzl/work/golang-1.22/golang-1.22/test/codegen/mapaccess.go:463)	NOP
	0x0320 00800 (/home/xzl/work/golang-1.22/golang-1.22/test/codegen/mapaccess.go:463)	CALL	runtime.typedslicecopy(SB)
	0x0325 00805 (/home/xzl/work/golang-1.22/golang-1.22/test/codegen/mapaccess.go:463)	MOVQ	command-line-arguments..autotmp_34+104(SP), DX
	0x032a 00810 (/home/xzl/work/golang-1.22/golang-1.22/test/codegen/mapaccess.go:463)	MOVQ	command-line-arguments..autotmp_33+504(SP), R8
	0x0332 00818 (/home/xzl/work/golang-1.22/golang-1.22/test/codegen/mapaccess.go:463)	MOVQ	DX, 8(R8)
	0x0336 00822 (/home/xzl/work/golang-1.22/golang-1.22/test/codegen/mapaccess.go:463)	MOVQ	command-line-arguments..autotmp_35+96(SP), DX
	0x033b 00827 (/home/xzl/work/golang-1.22/golang-1.22/test/codegen/mapaccess.go:463)	MOVQ	DX, 16(R8)
	0x033f 00831 (/home/xzl/work/golang-1.22/golang-1.22/test/codegen/mapaccess.go:463)	CMPL	runtime.writeBarrier(SB), $0
	0x0346 00838 (/home/xzl/work/golang-1.22/golang-1.22/test/codegen/mapaccess.go:463)	PCDATA	$0, $-2
	0x0346 00838 (/home/xzl/work/golang-1.22/golang-1.22/test/codegen/mapaccess.go:463)	JNE	850
	0x0348 00840 (/home/xzl/work/golang-1.22/golang-1.22/test/codegen/mapaccess.go:463)	MOVQ	command-line-arguments..autotmp_36+496(SP), DX
	0x0350 00848 (/home/xzl/work/golang-1.22/golang-1.22/test/codegen/mapaccess.go:463)	JMP	873
	0x0352 00850 (/home/xzl/work/golang-1.22/golang-1.22/test/codegen/mapaccess.go:463)	CALL	runtime.gcWriteBarrier2(SB)
	0x0357 00855 (/home/xzl/work/golang-1.22/golang-1.22/test/codegen/mapaccess.go:463)	MOVQ	command-line-arguments..autotmp_36+496(SP), DX
	0x035f 00863 (/home/xzl/work/golang-1.22/golang-1.22/test/codegen/mapaccess.go:463)	MOVQ	DX, (R11)
	0x0362 00866 (/home/xzl/work/golang-1.22/golang-1.22/test/codegen/mapaccess.go:463)	MOVQ	(R8), SI
	0x0365 00869 (/home/xzl/work/golang-1.22/golang-1.22/test/codegen/mapaccess.go:463)	MOVQ	SI, 8(R11)
	0x0369 00873 (/home/xzl/work/golang-1.22/golang-1.22/test/codegen/mapaccess.go:463)	MOVQ	DX, (R8)
	0x036c 00876 (/home/xzl/work/golang-1.22/golang-1.22/test/codegen/mapaccess.go:471)	PCDATA	$0, $-1
	0x036c 00876 (/home/xzl/work/golang-1.22/golang-1.22/test/codegen/mapaccess.go:471)	LEAQ	type:map[string][]string(SB), AX
	0x0373 00883 (/home/xzl/work/golang-1.22/golang-1.22/test/codegen/mapaccess.go:471)	LEAQ	command-line-arguments..autotmp_4+448(SP), BX
	0x037b 00891 (/home/xzl/work/golang-1.22/golang-1.22/test/codegen/mapaccess.go:471)	LEAQ	go:string."key"(SB), CX
	0x0382 00898 (/home/xzl/work/golang-1.22/golang-1.22/test/codegen/mapaccess.go:471)	MOVL	$3, DI
	0x0387 00903 (/home/xzl/work/golang-1.22/golang-1.22/test/codegen/mapaccess.go:471)	PCDATA	$1, $4
	0x0387 00903 (/home/xzl/work/golang-1.22/golang-1.22/test/codegen/mapaccess.go:471)	CALL	runtime.mapaccess1_faststr(SB)
	0x038c 00908 (/home/xzl/work/golang-1.22/golang-1.22/test/codegen/mapaccess.go:471)	MOVQ	8(AX), BX
	0x0390 00912 (/home/xzl/work/golang-1.22/golang-1.22/test/codegen/mapaccess.go:471)	LEAQ	4(BX), DX
	0x0394 00916 (/home/xzl/work/golang-1.22/golang-1.22/test/codegen/mapaccess.go:471)	MOVQ	(AX), DI
	0x0397 00919 (/home/xzl/work/golang-1.22/golang-1.22/test/codegen/mapaccess.go:471)	CMPQ	DX, $4
	0x039b 00923 (/home/xzl/work/golang-1.22/golang-1.22/test/codegen/mapaccess.go:471)	JHI	940
	0x039d 00925 (/home/xzl/work/golang-1.22/golang-1.22/test/codegen/mapaccess.go:471)	MOVQ	command-line-arguments..autotmp_32+512(SP), AX
	0x03a5 00933 (/home/xzl/work/golang-1.22/golang-1.22/test/codegen/mapaccess.go:471)	MOVL	$4, CX
	0x03aa 00938 (/home/xzl/work/golang-1.22/golang-1.22/test/codegen/mapaccess.go:471)	JMP	1000
	0x03ac 00940 (/home/xzl/work/golang-1.22/golang-1.22/test/codegen/mapaccess.go:471)	MOVQ	BX, command-line-arguments..autotmp_34+104(SP)
	0x03b1 00945 (/home/xzl/work/golang-1.22/golang-1.22/test/codegen/mapaccess.go:471)	MOVQ	DI, command-line-arguments..autotmp_36+496(SP)
	0x03b9 00953 (/home/xzl/work/golang-1.22/golang-1.22/test/codegen/mapaccess.go:471)	MOVQ	command-line-arguments..autotmp_32+512(SP), AX
	0x03c1 00961 (/home/xzl/work/golang-1.22/golang-1.22/test/codegen/mapaccess.go:471)	MOVL	$4, CX
	0x03c6 00966 (/home/xzl/work/golang-1.22/golang-1.22/test/codegen/mapaccess.go:471)	MOVQ	BX, DI
	0x03c9 00969 (/home/xzl/work/golang-1.22/golang-1.22/test/codegen/mapaccess.go:471)	LEAQ	type:string(SB), SI
	0x03d0 00976 (/home/xzl/work/golang-1.22/golang-1.22/test/codegen/mapaccess.go:471)	MOVQ	DX, BX
	0x03d3 00979 (/home/xzl/work/golang-1.22/golang-1.22/test/codegen/mapaccess.go:471)	PCDATA	$1, $7
	0x03d3 00979 (/home/xzl/work/golang-1.22/golang-1.22/test/codegen/mapaccess.go:471)	CALL	runtime.growslice(SB)
	0x03d8 00984 (/home/xzl/work/golang-1.22/golang-1.22/test/codegen/mapaccess.go:471)	MOVQ	command-line-arguments..autotmp_36+496(SP), DI
	0x03e0 00992 (/home/xzl/work/golang-1.22/golang-1.22/test/codegen/mapaccess.go:471)	MOVQ	BX, DX
	0x03e3 00995 (/home/xzl/work/golang-1.22/golang-1.22/test/codegen/mapaccess.go:471)	MOVQ	command-line-arguments..autotmp_34+104(SP), BX
	0x03e8 01000 (/home/xzl/work/golang-1.22/golang-1.22/test/codegen/mapaccess.go:471)	MOVQ	CX, command-line-arguments..autotmp_34+104(SP)
	0x03ed 01005 (/home/xzl/work/golang-1.22/golang-1.22/test/codegen/mapaccess.go:471)	MOVQ	DX, command-line-arguments..autotmp_35+96(SP)
	0x03f2 01010 (/home/xzl/work/golang-1.22/golang-1.22/test/codegen/mapaccess.go:471)	MOVQ	AX, command-line-arguments..autotmp_36+496(SP)
	0x03fa 01018 (/home/xzl/work/golang-1.22/golang-1.22/test/codegen/mapaccess.go:471)	LEAQ	-4(DX), R8
	0x03fe 01022 (/home/xzl/work/golang-1.22/golang-1.22/test/codegen/mapaccess.go:471)	LEAQ	-4(CX), R9
	0x0402 01026 (/home/xzl/work/golang-1.22/golang-1.22/test/codegen/mapaccess.go:471)	NEGQ	R9
	0x0405 01029 (/home/xzl/work/golang-1.22/golang-1.22/test/codegen/mapaccess.go:471)	SARQ	$63, R9
	0x0409 01033 (/home/xzl/work/golang-1.22/golang-1.22/test/codegen/mapaccess.go:471)	ANDL	$64, R9
	0x040d 01037 (/home/xzl/work/golang-1.22/golang-1.22/test/codegen/mapaccess.go:471)	ADDQ	AX, R9
	0x0410 01040 (/home/xzl/work/golang-1.22/golang-1.22/test/codegen/mapaccess.go:471)	MOVQ	BX, SI
	0x0413 01043 (/home/xzl/work/golang-1.22/golang-1.22/test/codegen/mapaccess.go:471)	MOVQ	R9, BX
	0x0416 01046 (/home/xzl/work/golang-1.22/golang-1.22/test/codegen/mapaccess.go:471)	LEAQ	type:string(SB), AX
	0x041d 01053 (/home/xzl/work/golang-1.22/golang-1.22/test/codegen/mapaccess.go:471)	MOVQ	R8, CX
	0x0420 01056 (/home/xzl/work/golang-1.22/golang-1.22/test/codegen/mapaccess.go:471)	CALL	runtime.typedslicecopy(SB)
	0x0425 01061 (/home/xzl/work/golang-1.22/golang-1.22/test/codegen/mapaccess.go:471)	LEAQ	type:map[string][]string(SB), AX
	0x042c 01068 (/home/xzl/work/golang-1.22/golang-1.22/test/codegen/mapaccess.go:471)	LEAQ	command-line-arguments..autotmp_4+448(SP), BX
	0x0434 01076 (/home/xzl/work/golang-1.22/golang-1.22/test/codegen/mapaccess.go:471)	LEAQ	go:string."key"(SB), CX
	0x043b 01083 (/home/xzl/work/golang-1.22/golang-1.22/test/codegen/mapaccess.go:471)	MOVL	$3, DI
	0x0440 01088 (/home/xzl/work/golang-1.22/golang-1.22/test/codegen/mapaccess.go:471)	CALL	runtime.mapassign_faststr(SB)
	0x0445 01093 (/home/xzl/work/golang-1.22/golang-1.22/test/codegen/mapaccess.go:471)	MOVQ	command-line-arguments..autotmp_35+96(SP), DX
	0x044a 01098 (/home/xzl/work/golang-1.22/golang-1.22/test/codegen/mapaccess.go:471)	MOVQ	DX, 8(AX)
	0x044e 01102 (/home/xzl/work/golang-1.22/golang-1.22/test/codegen/mapaccess.go:471)	MOVQ	command-line-arguments..autotmp_34+104(SP), DX
	0x0453 01107 (/home/xzl/work/golang-1.22/golang-1.22/test/codegen/mapaccess.go:471)	MOVQ	DX, 16(AX)
	0x0457 01111 (/home/xzl/work/golang-1.22/golang-1.22/test/codegen/mapaccess.go:471)	CMPL	runtime.writeBarrier(SB), $0
	0x045e 01118 (/home/xzl/work/golang-1.22/golang-1.22/test/codegen/mapaccess.go:471)	PCDATA	$0, $-2
	0x045e 01118 (/home/xzl/work/golang-1.22/golang-1.22/test/codegen/mapaccess.go:471)	NOP
	0x0460 01120 (/home/xzl/work/golang-1.22/golang-1.22/test/codegen/mapaccess.go:471)	JNE	1132
	0x0462 01122 (/home/xzl/work/golang-1.22/golang-1.22/test/codegen/mapaccess.go:471)	MOVQ	command-line-arguments..autotmp_36+496(SP), DX
	0x046a 01130 (/home/xzl/work/golang-1.22/golang-1.22/test/codegen/mapaccess.go:471)	JMP	1155
	0x046c 01132 (/home/xzl/work/golang-1.22/golang-1.22/test/codegen/mapaccess.go:471)	CALL	runtime.gcWriteBarrier2(SB)
	0x0471 01137 (/home/xzl/work/golang-1.22/golang-1.22/test/codegen/mapaccess.go:471)	MOVQ	command-line-arguments..autotmp_36+496(SP), DX
	0x0479 01145 (/home/xzl/work/golang-1.22/golang-1.22/test/codegen/mapaccess.go:471)	MOVQ	DX, (R11)
	0x047c 01148 (/home/xzl/work/golang-1.22/golang-1.22/test/codegen/mapaccess.go:471)	MOVQ	(AX), SI
	0x047f 01151 (/home/xzl/work/golang-1.22/golang-1.22/test/codegen/mapaccess.go:471)	MOVQ	SI, 8(R11)
	0x0483 01155 (/home/xzl/work/golang-1.22/golang-1.22/test/codegen/mapaccess.go:471)	MOVQ	DX, (AX)
	0x0486 01158 (/home/xzl/work/golang-1.22/golang-1.22/test/codegen/mapaccess.go:477)	PCDATA	$0, $-1
	0x0486 01158 (/home/xzl/work/golang-1.22/golang-1.22/test/codegen/mapaccess.go:477)	LEAQ	type:map[string][]string(SB), AX
	0x048d 01165 (/home/xzl/work/golang-1.22/golang-1.22/test/codegen/mapaccess.go:477)	LEAQ	command-line-arguments..autotmp_4+448(SP), BX
	0x0495 01173 (/home/xzl/work/golang-1.22/golang-1.22/test/codegen/mapaccess.go:477)	LEAQ	go:string."key"(SB), CX
	0x049c 01180 (/home/xzl/work/golang-1.22/golang-1.22/test/codegen/mapaccess.go:477)	MOVL	$3, DI
	0x04a1 01185 (/home/xzl/work/golang-1.22/golang-1.22/test/codegen/mapaccess.go:477)	PCDATA	$1, $1
	0x04a1 01185 (/home/xzl/work/golang-1.22/golang-1.22/test/codegen/mapaccess.go:477)	CALL	runtime.mapaccess1_faststr(SB)
	0x04a6 01190 (/home/xzl/work/golang-1.22/golang-1.22/test/codegen/mapaccess.go:477)	MOVQ	16(AX), CX
	0x04aa 01194 (/home/xzl/work/golang-1.22/golang-1.22/test/codegen/mapaccess.go:477)	MOVQ	8(AX), BX
	0x04ae 01198 (/home/xzl/work/golang-1.22/golang-1.22/test/codegen/mapaccess.go:477)	INCQ	BX
	0x04b1 01201 (/home/xzl/work/golang-1.22/golang-1.22/test/codegen/mapaccess.go:477)	MOVQ	(AX), AX
	0x04b4 01204 (/home/xzl/work/golang-1.22/golang-1.22/test/codegen/mapaccess.go:477)	CMPQ	CX, BX
	0x04b7 01207 (/home/xzl/work/golang-1.22/golang-1.22/test/codegen/mapaccess.go:477)	JCC	1226
	0x04b9 01209 (/home/xzl/work/golang-1.22/golang-1.22/test/codegen/mapaccess.go:477)	MOVL	$1, DI
	0x04be 01214 (/home/xzl/work/golang-1.22/golang-1.22/test/codegen/mapaccess.go:477)	LEAQ	type:string(SB), SI
	0x04c5 01221 (/home/xzl/work/golang-1.22/golang-1.22/test/codegen/mapaccess.go:477)	CALL	runtime.growslice(SB)
	0x04ca 01226 (/home/xzl/work/golang-1.22/golang-1.22/test/codegen/mapaccess.go:477)	MOVQ	BX, command-line-arguments..autotmp_34+104(SP)
	0x04cf 01231 (/home/xzl/work/golang-1.22/golang-1.22/test/codegen/mapaccess.go:477)	MOVQ	CX, command-line-arguments..autotmp_35+96(SP)
	0x04d4 01236 (/home/xzl/work/golang-1.22/golang-1.22/test/codegen/mapaccess.go:477)	LEAQ	-1(BX), DX
	0x04d8 01240 (/home/xzl/work/golang-1.22/golang-1.22/test/codegen/mapaccess.go:477)	SHLQ	$4, DX
	0x04dc 01244 (/home/xzl/work/golang-1.22/golang-1.22/test/codegen/mapaccess.go:477)	MOVQ	$2, 8(AX)(DX*1)
	0x04e5 01253 (/home/xzl/work/golang-1.22/golang-1.22/test/codegen/mapaccess.go:477)	CMPL	runtime.writeBarrier(SB), $0
	0x04ec 01260 (/home/xzl/work/golang-1.22/golang-1.22/test/codegen/mapaccess.go:477)	PCDATA	$0, $-2
	0x04ec 01260 (/home/xzl/work/golang-1.22/golang-1.22/test/codegen/mapaccess.go:477)	JEQ	1274
	0x04ee 01262 (/home/xzl/work/golang-1.22/golang-1.22/test/codegen/mapaccess.go:477)	MOVQ	(AX)(DX*1), SI
	0x04f2 01266 (/home/xzl/work/golang-1.22/golang-1.22/test/codegen/mapaccess.go:477)	CALL	runtime.gcWriteBarrier1(SB)
	0x04f7 01271 (/home/xzl/work/golang-1.22/golang-1.22/test/codegen/mapaccess.go:477)	MOVQ	SI, (R11)
	0x04fa 01274 (/home/xzl/work/golang-1.22/golang-1.22/test/codegen/mapaccess.go:477)	MOVQ	AX, command-line-arguments..autotmp_36+496(SP)
	0x0502 01282 (/home/xzl/work/golang-1.22/golang-1.22/test/codegen/mapaccess.go:477)	LEAQ	go:string."99"(SB), SI
	0x0509 01289 (/home/xzl/work/golang-1.22/golang-1.22/test/codegen/mapaccess.go:477)	MOVQ	SI, (AX)(DX*1)
	0x050d 01293 (/home/xzl/work/golang-1.22/golang-1.22/test/codegen/mapaccess.go:477)	PCDATA	$0, $-1
	0x050d 01293 (/home/xzl/work/golang-1.22/golang-1.22/test/codegen/mapaccess.go:477)	MOVBLZX	command-line-arguments.sinkAppend(SB), DX
	0x0514 01300 (/home/xzl/work/golang-1.22/golang-1.22/test/codegen/mapaccess.go:477)	XORL	$1, DX
	0x0517 01303 (/home/xzl/work/golang-1.22/golang-1.22/test/codegen/mapaccess.go:477)	MOVB	DL, command-line-arguments.sinkAppend(SB)
	0x051d 01309 (/home/xzl/work/golang-1.22/golang-1.22/test/codegen/mapaccess.go:477)	LEAQ	command-line-arguments..autotmp_4+448(SP), BX
	0x0525 01317 (/home/xzl/work/golang-1.22/golang-1.22/test/codegen/mapaccess.go:477)	LEAQ	go:string."key"(SB), CX
	0x052c 01324 (/home/xzl/work/golang-1.22/golang-1.22/test/codegen/mapaccess.go:477)	MOVL	$3, DI
	0x0531 01329 (/home/xzl/work/golang-1.22/golang-1.22/test/codegen/mapaccess.go:477)	LEAQ	type:map[string][]string(SB), AX
	0x0538 01336 (/home/xzl/work/golang-1.22/golang-1.22/test/codegen/mapaccess.go:477)	PCDATA	$1, $7
	0x0538 01336 (/home/xzl/work/golang-1.22/golang-1.22/test/codegen/mapaccess.go:477)	CALL	runtime.mapassign_faststr(SB)
	0x053d 01341 (/home/xzl/work/golang-1.22/golang-1.22/test/codegen/mapaccess.go:477)	MOVQ	command-line-arguments..autotmp_34+104(SP), DX
	0x0542 01346 (/home/xzl/work/golang-1.22/golang-1.22/test/codegen/mapaccess.go:477)	MOVQ	DX, 8(AX)
	0x0546 01350 (/home/xzl/work/golang-1.22/golang-1.22/test/codegen/mapaccess.go:477)	MOVQ	command-line-arguments..autotmp_35+96(SP), DX
	0x054b 01355 (/home/xzl/work/golang-1.22/golang-1.22/test/codegen/mapaccess.go:477)	MOVQ	DX, 16(AX)
	0x054f 01359 (/home/xzl/work/golang-1.22/golang-1.22/test/codegen/mapaccess.go:477)	CMPL	runtime.writeBarrier(SB), $0
	0x0556 01366 (/home/xzl/work/golang-1.22/golang-1.22/test/codegen/mapaccess.go:477)	PCDATA	$0, $-2
	0x0556 01366 (/home/xzl/work/golang-1.22/golang-1.22/test/codegen/mapaccess.go:477)	JNE	1378
	0x0558 01368 (/home/xzl/work/golang-1.22/golang-1.22/test/codegen/mapaccess.go:477)	MOVQ	command-line-arguments..autotmp_36+496(SP), DX
	0x0560 01376 (/home/xzl/work/golang-1.22/golang-1.22/test/codegen/mapaccess.go:477)	JMP	1401
	0x0562 01378 (/home/xzl/work/golang-1.22/golang-1.22/test/codegen/mapaccess.go:477)	CALL	runtime.gcWriteBarrier2(SB)
	0x0567 01383 (/home/xzl/work/golang-1.22/golang-1.22/test/codegen/mapaccess.go:477)	MOVQ	command-line-arguments..autotmp_36+496(SP), DX
	0x056f 01391 (/home/xzl/work/golang-1.22/golang-1.22/test/codegen/mapaccess.go:477)	MOVQ	DX, (R11)
	0x0572 01394 (/home/xzl/work/golang-1.22/golang-1.22/test/codegen/mapaccess.go:477)	MOVQ	(AX), R8
	0x0575 01397 (/home/xzl/work/golang-1.22/golang-1.22/test/codegen/mapaccess.go:477)	MOVQ	R8, 8(R11)
	0x0579 01401 (/home/xzl/work/golang-1.22/golang-1.22/test/codegen/mapaccess.go:477)	MOVQ	DX, (AX)
	0x057c 01404 (/home/xzl/work/golang-1.22/golang-1.22/test/codegen/mapaccess.go:483)	PCDATA	$0, $-1
	0x057c 01404 (/home/xzl/work/golang-1.22/golang-1.22/test/codegen/mapaccess.go:483)	LEAQ	command-line-arguments..autotmp_23+64(SP), AX
	0x0581 01409 (/home/xzl/work/golang-1.22/golang-1.22/test/codegen/mapaccess.go:483)	LEAQ	go:string."key"(SB), BX
	0x0588 01416 (/home/xzl/work/golang-1.22/golang-1.22/test/codegen/mapaccess.go:483)	MOVL	$3, CX
	0x058d 01421 (/home/xzl/work/golang-1.22/golang-1.22/test/codegen/mapaccess.go:483)	LEAQ	go:string."1"(SB), DI
	0x0594 01428 (/home/xzl/work/golang-1.22/golang-1.22/test/codegen/mapaccess.go:483)	MOVL	$1, SI
	0x0599 01433 (/home/xzl/work/golang-1.22/golang-1.22/test/codegen/mapaccess.go:483)	PCDATA	$1, $1
	0x0599 01433 (/home/xzl/work/golang-1.22/golang-1.22/test/codegen/mapaccess.go:483)	CALL	runtime.concatstring2(SB)
	0x059e 01438 (/home/xzl/work/golang-1.22/golang-1.22/test/codegen/mapaccess.go:483)	MOVQ	AX, CX
	0x05a1 01441 (/home/xzl/work/golang-1.22/golang-1.22/test/codegen/mapaccess.go:483)	MOVQ	BX, DI
	0x05a4 01444 (/home/xzl/work/golang-1.22/golang-1.22/test/codegen/mapaccess.go:483)	LEAQ	type:map[string][]string(SB), AX
	0x05ab 01451 (/home/xzl/work/golang-1.22/golang-1.22/test/codegen/mapaccess.go:483)	LEAQ	command-line-arguments..autotmp_4+448(SP), BX
	0x05b3 01459 (/home/xzl/work/golang-1.22/golang-1.22/test/codegen/mapaccess.go:483)	CALL	runtime.mapaccess1_faststr(SB)
	0x05b8 01464 (/home/xzl/work/golang-1.22/golang-1.22/test/codegen/mapaccess.go:483)	MOVQ	16(AX), CX
	0x05bc 01468 (/home/xzl/work/golang-1.22/golang-1.22/test/codegen/mapaccess.go:483)	MOVQ	8(AX), BX
	0x05c0 01472 (/home/xzl/work/golang-1.22/golang-1.22/test/codegen/mapaccess.go:483)	INCQ	BX
	0x05c3 01475 (/home/xzl/work/golang-1.22/golang-1.22/test/codegen/mapaccess.go:483)	MOVQ	(AX), AX
	0x05c6 01478 (/home/xzl/work/golang-1.22/golang-1.22/test/codegen/mapaccess.go:483)	CMPQ	CX, BX
	0x05c9 01481 (/home/xzl/work/golang-1.22/golang-1.22/test/codegen/mapaccess.go:483)	JCC	1500
	0x05cb 01483 (/home/xzl/work/golang-1.22/golang-1.22/test/codegen/mapaccess.go:483)	MOVL	$1, DI
	0x05d0 01488 (/home/xzl/work/golang-1.22/golang-1.22/test/codegen/mapaccess.go:483)	LEAQ	type:string(SB), SI
	0x05d7 01495 (/home/xzl/work/golang-1.22/golang-1.22/test/codegen/mapaccess.go:483)	CALL	runtime.growslice(SB)
	0x05dc 01500 (/home/xzl/work/golang-1.22/golang-1.22/test/codegen/mapaccess.go:483)	MOVQ	BX, command-line-arguments..autotmp_34+104(SP)
	0x05e1 01505 (/home/xzl/work/golang-1.22/golang-1.22/test/codegen/mapaccess.go:483)	MOVQ	CX, command-line-arguments..autotmp_35+96(SP)
	0x05e6 01510 (/home/xzl/work/golang-1.22/golang-1.22/test/codegen/mapaccess.go:483)	LEAQ	-1(BX), DX
	0x05ea 01514 (/home/xzl/work/golang-1.22/golang-1.22/test/codegen/mapaccess.go:483)	SHLQ	$4, DX
	0x05ee 01518 (/home/xzl/work/golang-1.22/golang-1.22/test/codegen/mapaccess.go:483)	MOVQ	$3, 8(AX)(DX*1)
	0x05f7 01527 (/home/xzl/work/golang-1.22/golang-1.22/test/codegen/mapaccess.go:483)	CMPL	runtime.writeBarrier(SB), $0
	0x05fe 01534 (/home/xzl/work/golang-1.22/golang-1.22/test/codegen/mapaccess.go:483)	PCDATA	$0, $-2
	0x05fe 01534 (/home/xzl/work/golang-1.22/golang-1.22/test/codegen/mapaccess.go:483)	NOP
	0x0600 01536 (/home/xzl/work/golang-1.22/golang-1.22/test/codegen/mapaccess.go:483)	JEQ	1550
	0x0602 01538 (/home/xzl/work/golang-1.22/golang-1.22/test/codegen/mapaccess.go:483)	MOVQ	(AX)(DX*1), SI
	0x0606 01542 (/home/xzl/work/golang-1.22/golang-1.22/test/codegen/mapaccess.go:483)	CALL	runtime.gcWriteBarrier1(SB)
	0x060b 01547 (/home/xzl/work/golang-1.22/golang-1.22/test/codegen/mapaccess.go:483)	MOVQ	SI, (R11)
	0x060e 01550 (/home/xzl/work/golang-1.22/golang-1.22/test/codegen/mapaccess.go:483)	MOVQ	AX, command-line-arguments..autotmp_36+496(SP)
	0x0616 01558 (/home/xzl/work/golang-1.22/golang-1.22/test/codegen/mapaccess.go:483)	LEAQ	go:string."100"(SB), SI
	0x061d 01565 (/home/xzl/work/golang-1.22/golang-1.22/test/codegen/mapaccess.go:483)	MOVQ	SI, (AX)(DX*1)
	0x0621 01569 (/home/xzl/work/golang-1.22/golang-1.22/test/codegen/mapaccess.go:483)	PCDATA	$0, $-1
	0x0621 01569 (/home/xzl/work/golang-1.22/golang-1.22/test/codegen/mapaccess.go:483)	LEAQ	command-line-arguments..autotmp_4+448(SP), BX
	0x0629 01577 (/home/xzl/work/golang-1.22/golang-1.22/test/codegen/mapaccess.go:483)	LEAQ	go:string."key"(SB), CX
	0x0630 01584 (/home/xzl/work/golang-1.22/golang-1.22/test/codegen/mapaccess.go:483)	MOVL	$3, DI
	0x0635 01589 (/home/xzl/work/golang-1.22/golang-1.22/test/codegen/mapaccess.go:483)	LEAQ	type:map[string][]string(SB), AX
	0x063c 01596 (/home/xzl/work/golang-1.22/golang-1.22/test/codegen/mapaccess.go:483)	PCDATA	$1, $8
	0x063c 01596 (/home/xzl/work/golang-1.22/golang-1.22/test/codegen/mapaccess.go:483)	NOP
	0x0640 01600 (/home/xzl/work/golang-1.22/golang-1.22/test/codegen/mapaccess.go:483)	CALL	runtime.mapassign_faststr(SB)
	0x0645 01605 (/home/xzl/work/golang-1.22/golang-1.22/test/codegen/mapaccess.go:483)	MOVQ	command-line-arguments..autotmp_34+104(SP), DX
	0x064a 01610 (/home/xzl/work/golang-1.22/golang-1.22/test/codegen/mapaccess.go:483)	MOVQ	DX, 8(AX)
	0x064e 01614 (/home/xzl/work/golang-1.22/golang-1.22/test/codegen/mapaccess.go:483)	MOVQ	command-line-arguments..autotmp_35+96(SP), DX
	0x0653 01619 (/home/xzl/work/golang-1.22/golang-1.22/test/codegen/mapaccess.go:483)	MOVQ	DX, 16(AX)
	0x0657 01623 (/home/xzl/work/golang-1.22/golang-1.22/test/codegen/mapaccess.go:483)	CMPL	runtime.writeBarrier(SB), $0
	0x065e 01630 (/home/xzl/work/golang-1.22/golang-1.22/test/codegen/mapaccess.go:483)	PCDATA	$0, $-2
	0x065e 01630 (/home/xzl/work/golang-1.22/golang-1.22/test/codegen/mapaccess.go:483)	NOP
	0x0660 01632 (/home/xzl/work/golang-1.22/golang-1.22/test/codegen/mapaccess.go:483)	JNE	1644
	0x0662 01634 (/home/xzl/work/golang-1.22/golang-1.22/test/codegen/mapaccess.go:483)	MOVQ	command-line-arguments..autotmp_36+496(SP), CX
	0x066a 01642 (/home/xzl/work/golang-1.22/golang-1.22/test/codegen/mapaccess.go:483)	JMP	1667
	0x066c 01644 (/home/xzl/work/golang-1.22/golang-1.22/test/codegen/mapaccess.go:483)	CALL	runtime.gcWriteBarrier2(SB)
	0x0671 01649 (/home/xzl/work/golang-1.22/golang-1.22/test/codegen/mapaccess.go:483)	MOVQ	command-line-arguments..autotmp_36+496(SP), CX
	0x0679 01657 (/home/xzl/work/golang-1.22/golang-1.22/test/codegen/mapaccess.go:483)	MOVQ	CX, (R11)
	0x067c 01660 (/home/xzl/work/golang-1.22/golang-1.22/test/codegen/mapaccess.go:483)	MOVQ	(AX), DX
	0x067f 01663 (/home/xzl/work/golang-1.22/golang-1.22/test/codegen/mapaccess.go:483)	MOVQ	DX, 8(R11)
	0x0683 01667 (/home/xzl/work/golang-1.22/golang-1.22/test/codegen/mapaccess.go:483)	MOVQ	CX, (AX)
	0x0686 01670 (/home/xzl/work/golang-1.22/golang-1.22/test/codegen/mapaccess.go:484)	PCDATA	$0, $-1
	0x0686 01670 (/home/xzl/work/golang-1.22/golang-1.22/test/codegen/mapaccess.go:484)	ADDQ	$536, SP
	0x068d 01677 (/home/xzl/work/golang-1.22/golang-1.22/test/codegen/mapaccess.go:484)	POPQ	BP
	0x068e 01678 (/home/xzl/work/golang-1.22/golang-1.22/test/codegen/mapaccess.go:484)	RET
	0x068f 01679 (/home/xzl/work/golang-1.22/golang-1.22/test/codegen/mapaccess.go:484)	NOP
	0x068f 01679 (/home/xzl/work/golang-1.22/golang-1.22/test/codegen/mapaccess.go:441)	PCDATA	$1, $-1
	0x068f 01679 (/home/xzl/work/golang-1.22/golang-1.22/test/codegen/mapaccess.go:441)	PCDATA	$0, $-2
	0x068f 01679 (/home/xzl/work/golang-1.22/golang-1.22/test/codegen/mapaccess.go:441)	CALL	runtime.morestack_noctxt(SB)
	0x0694 01684 (/home/xzl/work/golang-1.22/golang-1.22/test/codegen/mapaccess.go:441)	PCDATA	$0, $-1
	0x0694 01684 (/home/xzl/work/golang-1.22/golang-1.22/test/codegen/mapaccess.go:441)	JMP	0
	0x0000 4c 8d a4 24 60 fe ff ff 4d 3b 66 10 0f 86 7d 06  L..$`...M;f...}.
	0x0010 00 00 55 48 89 e5 48 81 ec 18 02 00 00 44 0f 11  ..UH..H......D..
	0x0020 bc 24 c0 01 00 00 44 0f 11 bc 24 d0 01 00 00 44  .$....D...$....D
	0x0030 0f 11 bc 24 e0 01 00 00 48 8d 7c 24 70 48 8d 7f  ...$....H.|$pH..
	0x0040 d0 48 89 6c 24 f0 48 8d 6c 24 f0 e8 00 00 00 00  .H.l$.H.l$......
	0x0050 48 8b 6d 00 48 8d 44 24 70 48 89 84 24 d0 01 00  H.m.H.D$pH..$...
	0x0060 00 e8 00 00 00 00 89 84 24 cc 01 00 00 48 8d 05  ........$....H..
	0x0070 00 00 00 00 48 8d 9c 24 c0 01 00 00 48 8d 0d 00  ....H..$....H...
	0x0080 00 00 00 bf 03 00 00 00 e8 00 00 00 00 48 8b 48  .............H.H
	0x0090 10 48 8b 58 08 48 ff c3 48 8b 10 0f 1f 44 00 00  .H.X.H..H....D..
	0x00a0 48 39 d9 73 50 48 89 84 24 10 02 00 00 48 89 d0  H9.sPH..$....H..
	0x00b0 bf 01 00 00 00 48 8d 35 00 00 00 00 0f 1f 40 00  .....H.5......@.
	0x00c0 e8 00 00 00 00 48 8b 94 24 10 02 00 00 48 89 4a  .....H..$....H.J
	0x00d0 10 83 3d 00 00 00 00 00 74 0f e8 00 00 00 00 49  ..=.....t......I
	0x00e0 89 03 48 8b 32 49 89 73 08 48 89 02 48 89 c1 48  ..H.2I.s.H..H..H
	0x00f0 89 d0 48 89 ca 48 89 58 08 48 8d 73 ff 48 c1 e6  ..H..H.X.H.s.H..
	0x0100 04 48 c7 44 32 08 01 00 00 00 83 3d 00 00 00 00  .H.D2......=....
	0x0110 00 74 0c 4c 8b 04 32 e8 00 00 00 00 4d 89 03 4c  .t.L..2.....M..L
	0x0120 8d 05 00 00 00 00 4c 89 04 32 48 8d 05 00 00 00  ......L..2H.....
	0x0130 00 48 8d 9c 24 c0 01 00 00 48 8d 0d 00 00 00 00  .H..$....H......
	0x0140 bf 03 00 00 00 e8 00 00 00 00 48 8b 48 10 48 8b  ..........H.H.H.
	0x0150 58 08 48 83 c3 03 48 8b 10 48 39 d9 73 4c 48 89  X.H...H..H9.sLH.
	0x0160 84 24 08 02 00 00 48 89 d0 bf 03 00 00 00 48 8d  .$....H.......H.
	0x0170 35 00 00 00 00 e8 00 00 00 00 48 8b 94 24 08 02  5.........H..$..
	0x0180 00 00 48 89 4a 10 83 3d 00 00 00 00 00 74 0f e8  ..H.J..=.....t..
	0x0190 00 00 00 00 49 89 03 48 8b 0a 49 89 4b 08 48 89  ....I..H..I.K.H.
	0x01a0 02 48 89 c1 48 89 d0 48 89 ca 48 89 58 08 48 8d  .H..H..H..H.X.H.
	0x01b0 4b fd 48 c1 e1 04 48 c7 44 0a 08 01 00 00 00 83  K.H...H.D.......
	0x01c0 3d 00 00 00 00 00 74 1e 48 8b 1c 0a e8 00 00 00  =.....t.H.......
	0x01d0 00 49 89 1b 48 8b 5c 0a 10 49 89 5b 08 48 8b 5c  .I..H.\..I.[.H.\
	0x01e0 0a 20 49 89 5b 10 48 8d 1d 00 00 00 00 48 89 1c  . I.[.H......H..
	0x01f0 0a 48 c7 44 0a 18 01 00 00 00 48 8d 35 00 00 00  .H.D......H.5...
	0x0200 00 48 89 74 0a 10 48 c7 44 0a 28 01 00 00 00 48  .H.t..H.D.(....H
	0x0210 8d 35 00 00 00 00 48 89 74 0a 20 48 8d 05 00 00  .5....H.t. H....
	0x0220 00 00 e8 00 00 00 00 48 89 84 24 00 02 00 00 48  .......H..$....H
	0x0230 c7 40 08 01 00 00 00 48 8d 0d 00 00 00 00 48 89  .@.....H......H.
	0x0240 08 48 c7 40 18 01 00 00 00 48 8d 0d 00 00 00 00  .H.@.....H......
	0x0250 48 89 48 10 48 c7 40 28 01 00 00 00 48 8d 0d 00  H.H.H.@(....H...
	0x0260 00 00 00 48 89 48 20 48 c7 40 38 01 00 00 00 48  ...H.H H.@8....H
	0x0270 8d 0d 00 00 00 00 48 89 48 30 48 8d 9c 24 c0 01  ......H.H0H..$..
	0x0280 00 00 48 8d 0d 00 00 00 00 bf 03 00 00 00 48 8d  ..H...........H.
	0x0290 05 00 00 00 00 e8 00 00 00 00 48 89 84 24 f8 01  ..........H..$..
	0x02a0 00 00 48 8b 58 08 48 8b 48 10 48 8d 53 04 48 8b  ..H.X.H.H.H.S.H.
	0x02b0 30 48 39 d1 73 27 48 89 5c 24 68 48 89 f0 48 89  0H9.s'H.\$hH..H.
	0x02c0 d3 bf 04 00 00 00 48 8d 35 00 00 00 00 e8 00 00  ......H.5.......
	0x02d0 00 00 48 89 c6 48 89 da 48 8b 5c 24 68 48 89 54  ..H..H..H.\$hH.T
	0x02e0 24 68 48 89 4c 24 60 48 89 b4 24 f0 01 00 00 49  $hH.L$`H..$....I
	0x02f0 89 d8 48 29 cb 4c 29 c2 49 c1 e0 04 48 c1 fb 3f  ..H).L).I...H..?
	0x0300 4c 21 c3 48 01 f3 48 8d 05 00 00 00 00 48 8b bc  L!.H..H......H..
	0x0310 24 00 02 00 00 48 89 d1 be 04 00 00 00 0f 1f 00  $....H..........
	0x0320 e8 00 00 00 00 48 8b 54 24 68 4c 8b 84 24 f8 01  .....H.T$hL..$..
	0x0330 00 00 49 89 50 08 48 8b 54 24 60 49 89 50 10 83  ..I.P.H.T$`I.P..
	0x0340 3d 00 00 00 00 00 75 0a 48 8b 94 24 f0 01 00 00  =.....u.H..$....
	0x0350 eb 17 e8 00 00 00 00 48 8b 94 24 f0 01 00 00 49  .......H..$....I
	0x0360 89 13 49 8b 30 49 89 73 08 49 89 10 48 8d 05 00  ..I.0I.s.I..H...
	0x0370 00 00 00 48 8d 9c 24 c0 01 00 00 48 8d 0d 00 00  ...H..$....H....
	0x0380 00 00 bf 03 00 00 00 e8 00 00 00 00 48 8b 58 08  ............H.X.
	0x0390 48 8d 53 04 48 8b 38 48 83 fa 04 77 0f 48 8b 84  H.S.H.8H...w.H..
	0x03a0 24 00 02 00 00 b9 04 00 00 00 eb 3c 48 89 5c 24  $..........<H.\$
	0x03b0 68 48 89 bc 24 f0 01 00 00 48 8b 84 24 00 02 00  hH..$....H..$...
	0x03c0 00 b9 04 00 00 00 48 89 df 48 8d 35 00 00 00 00  ......H..H.5....
	0x03d0 48 89 d3 e8 00 00 00 00 48 8b bc 24 f0 01 00 00  H.......H..$....
	0x03e0 48 89 da 48 8b 5c 24 68 48 89 4c 24 68 48 89 54  H..H.\$hH.L$hH.T
	0x03f0 24 60 48 89 84 24 f0 01 00 00 4c 8d 42 fc 4c 8d  $`H..$....L.B.L.
	0x0400 49 fc 49 f7 d9 49 c1 f9 3f 41 83 e1 40 49 01 c1  I.I..I..?A..@I..
	0x0410 48 89 de 4c 89 cb 48 8d 05 00 00 00 00 4c 89 c1  H..L..H......L..
	0x0420 e8 00 00 00 00 48 8d 05 00 00 00 00 48 8d 9c 24  .....H......H..$
	0x0430 c0 01 00 00 48 8d 0d 00 00 00 00 bf 03 00 00 00  ....H...........
	0x0440 e8 00 00 00 00 48 8b 54 24 60 48 89 50 08 48 8b  .....H.T$`H.P.H.
	0x0450 54 24 68 48 89 50 10 83 3d 00 00 00 00 00 66 90  T$hH.P..=.....f.
	0x0460 75 0a 48 8b 94 24 f0 01 00 00 eb 17 e8 00 00 00  u.H..$..........
	0x0470 00 48 8b 94 24 f0 01 00 00 49 89 13 48 8b 30 49  .H..$....I..H.0I
	0x0480 89 73 08 48 89 10 48 8d 05 00 00 00 00 48 8d 9c  .s.H..H......H..
	0x0490 24 c0 01 00 00 48 8d 0d 00 00 00 00 bf 03 00 00  $....H..........
	0x04a0 00 e8 00 00 00 00 48 8b 48 10 48 8b 58 08 48 ff  ......H.H.H.X.H.
	0x04b0 c3 48 8b 00 48 39 d9 73 11 bf 01 00 00 00 48 8d  .H..H9.s......H.
	0x04c0 35 00 00 00 00 e8 00 00 00 00 48 89 5c 24 68 48  5.........H.\$hH
	0x04d0 89 4c 24 60 48 8d 53 ff 48 c1 e2 04 48 c7 44 10  .L$`H.S.H...H.D.
	0x04e0 08 02 00 00 00 83 3d 00 00 00 00 00 74 0c 48 8b  ......=.....t.H.
	0x04f0 34 10 e8 00 00 00 00 49 89 33 48 89 84 24 f0 01  4......I.3H..$..
	0x0500 00 00 48 8d 35 00 00 00 00 48 89 34 10 0f b6 15  ..H.5....H.4....
	0x0510 00 00 00 00 83 f2 01 88 15 00 00 00 00 48 8d 9c  .............H..
	0x0520 24 c0 01 00 00 48 8d 0d 00 00 00 00 bf 03 00 00  $....H..........
	0x0530 00 48 8d 05 00 00 00 00 e8 00 00 00 00 48 8b 54  .H...........H.T
	0x0540 24 68 48 89 50 08 48 8b 54 24 60 48 89 50 10 83  $hH.P.H.T$`H.P..
	0x0550 3d 00 00 00 00 00 75 0a 48 8b 94 24 f0 01 00 00  =.....u.H..$....
	0x0560 eb 17 e8 00 00 00 00 48 8b 94 24 f0 01 00 00 49  .......H..$....I
	0x0570 89 13 4c 8b 00 4d 89 43 08 48 89 10 48 8d 44 24  ..L..M.C.H..H.D$
	0x0580 40 48 8d 1d 00 00 00 00 b9 03 00 00 00 48 8d 3d  @H...........H.=
	0x0590 00 00 00 00 be 01 00 00 00 e8 00 00 00 00 48 89  ..............H.
	0x05a0 c1 48 89 df 48 8d 05 00 00 00 00 48 8d 9c 24 c0  .H..H......H..$.
	0x05b0 01 00 00 e8 00 00 00 00 48 8b 48 10 48 8b 58 08  ........H.H.H.X.
	0x05c0 48 ff c3 48 8b 00 48 39 d9 73 11 bf 01 00 00 00  H..H..H9.s......
	0x05d0 48 8d 35 00 00 00 00 e8 00 00 00 00 48 89 5c 24  H.5.........H.\$
	0x05e0 68 48 89 4c 24 60 48 8d 53 ff 48 c1 e2 04 48 c7  hH.L$`H.S.H...H.
	0x05f0 44 10 08 03 00 00 00 83 3d 00 00 00 00 00 66 90  D.......=.....f.
	0x0600 74 0c 48 8b 34 10 e8 00 00 00 00 49 89 33 48 89  t.H.4......I.3H.
	0x0610 84 24 f0 01 00 00 48 8d 35 00 00 00 00 48 89 34  .$....H.5....H.4
	0x0620 10 48 8d 9c 24 c0 01 00 00 48 8d 0d 00 00 00 00  .H..$....H......
	0x0630 bf 03 00 00 00 48 8d 05 00 00 00 00 0f 1f 40 00  .....H........@.
	0x0640 e8 00 00 00 00 48 8b 54 24 68 48 89 50 08 48 8b  .....H.T$hH.P.H.
	0x0650 54 24 60 48 89 50 10 83 3d 00 00 00 00 00 66 90  T$`H.P..=.....f.
	0x0660 75 0a 48 8b 8c 24 f0 01 00 00 eb 17 e8 00 00 00  u.H..$..........
	0x0670 00 48 8b 8c 24 f0 01 00 00 49 89 0b 48 8b 10 49  .H..$....I..H..I
	0x0680 89 53 08 48 89 08 48 81 c4 18 02 00 00 5d c3 e8  .S.H..H......]..
	0x0690 00 00 00 00 e9 67 f9 ff ff                       .....g...
	rel 76+4 t=R_CALL runtime.duffzero<1>+244
	rel 98+4 t=R_CALL runtime.rand32<1>+0
	rel 112+4 t=R_PCREL type:map[string][]string<0>+0
	rel 127+4 t=R_PCREL go:string."key"<0>+0
	rel 137+4 t=R_CALL runtime.mapassign_faststr<1>+0
	rel 184+4 t=R_PCREL type:string<0>+0
	rel 193+4 t=R_CALL runtime.growslice<1>+0
	rel 211+4 t=R_PCREL runtime.writeBarrier<0>+-1
	rel 219+4 t=R_CALL runtime.gcWriteBarrier2<1>+0
	rel 268+4 t=R_PCREL runtime.writeBarrier<0>+-1
	rel 280+4 t=R_CALL runtime.gcWriteBarrier1<1>+0
	rel 290+4 t=R_PCREL go:string."1"<0>+0
	rel 301+4 t=R_PCREL type:map[string][]string<0>+0
	rel 316+4 t=R_PCREL go:string."key"<0>+0
	rel 326+4 t=R_CALL runtime.mapassign_faststr<1>+0
	rel 369+4 t=R_PCREL type:string<0>+0
	rel 374+4 t=R_CALL runtime.growslice<1>+0
	rel 392+4 t=R_PCREL runtime.writeBarrier<0>+-1
	rel 400+4 t=R_CALL runtime.gcWriteBarrier2<1>+0
	rel 449+4 t=R_PCREL runtime.writeBarrier<0>+-1
	rel 461+4 t=R_CALL runtime.gcWriteBarrier3<1>+0
	rel 489+4 t=R_PCREL go:string."1"<0>+0
	rel 509+4 t=R_PCREL go:string."2"<0>+0
	rel 530+4 t=R_PCREL go:string."3"<0>+0
	rel 542+4 t=R_PCREL type:[4]string<0>+0
	rel 547+4 t=R_CALL runtime.newobject<1>+0
	rel 570+4 t=R_PCREL go:string."7"<0>+0
	rel 588+4 t=R_PCREL go:string."8"<0>+0
	rel 607+4 t=R_PCREL go:string."9"<0>+0
	rel 626+4 t=R_PCREL go:string."0"<0>+0
	rel 645+4 t=R_PCREL go:string."key"<0>+0
	rel 657+4 t=R_PCREL type:map[string][]string<0>+0
	rel 662+4 t=R_CALL runtime.mapassign_faststr<1>+0
	rel 713+4 t=R_PCREL type:string<0>+0
	rel 718+4 t=R_CALL runtime.growslice<1>+0
	rel 777+4 t=R_PCREL type:string<0>+0
	rel 801+4 t=R_CALL runtime.typedslicecopy<1>+0
	rel 833+4 t=R_PCREL runtime.writeBarrier<0>+-1
	rel 851+4 t=R_CALL runtime.gcWriteBarrier2<1>+0
	rel 879+4 t=R_PCREL type:map[string][]string<0>+0
	rel 894+4 t=R_PCREL go:string."key"<0>+0
	rel 904+4 t=R_CALL runtime.mapaccess1_faststr<1>+0
	rel 972+4 t=R_PCREL type:string<0>+0
	rel 980+4 t=R_CALL runtime.growslice<1>+0
	rel 1049+4 t=R_PCREL type:string<0>+0
	rel 1057+4 t=R_CALL runtime.typedslicecopy<1>+0
	rel 1064+4 t=R_PCREL type:map[string][]string<0>+0
	rel 1079+4 t=R_PCREL go:string."key"<0>+0
	rel 1089+4 t=R_CALL runtime.mapassign_faststr<1>+0
	rel 1113+4 t=R_PCREL runtime.writeBarrier<0>+-1
	rel 1133+4 t=R_CALL runtime.gcWriteBarrier2<1>+0
	rel 1161+4 t=R_PCREL type:map[string][]string<0>+0
	rel 1176+4 t=R_PCREL go:string."key"<0>+0
	rel 1186+4 t=R_CALL runtime.mapaccess1_faststr<1>+0
	rel 1217+4 t=R_PCREL type:string<0>+0
	rel 1222+4 t=R_CALL runtime.growslice<1>+0
	rel 1255+4 t=R_PCREL runtime.writeBarrier<0>+-1
	rel 1267+4 t=R_CALL runtime.gcWriteBarrier1<1>+0
	rel 1285+4 t=R_PCREL go:string."99"<0>+0
	rel 1296+4 t=R_PCREL command-line-arguments.sinkAppend<0>+0
	rel 1305+4 t=R_PCREL command-line-arguments.sinkAppend<0>+0
	rel 1320+4 t=R_PCREL go:string."key"<0>+0
	rel 1332+4 t=R_PCREL type:map[string][]string<0>+0
	rel 1337+4 t=R_CALL runtime.mapassign_faststr<1>+0
	rel 1361+4 t=R_PCREL runtime.writeBarrier<0>+-1
	rel 1379+4 t=R_CALL runtime.gcWriteBarrier2<1>+0
	rel 1412+4 t=R_PCREL go:string."key"<0>+0
	rel 1424+4 t=R_PCREL go:string."1"<0>+0
	rel 1434+4 t=R_CALL runtime.concatstring2<1>+0
	rel 1447+4 t=R_PCREL type:map[string][]string<0>+0
	rel 1460+4 t=R_CALL runtime.mapaccess1_faststr<1>+0
	rel 1491+4 t=R_PCREL type:string<0>+0
	rel 1496+4 t=R_CALL runtime.growslice<1>+0
	rel 1529+4 t=R_PCREL runtime.writeBarrier<0>+-1
	rel 1543+4 t=R_CALL runtime.gcWriteBarrier1<1>+0
	rel 1561+4 t=R_PCREL go:string."100"<0>+0
	rel 1580+4 t=R_PCREL go:string."key"<0>+0
	rel 1592+4 t=R_PCREL type:map[string][]string<0>+0
	rel 1601+4 t=R_CALL runtime.mapassign_faststr<1>+0
	rel 1625+4 t=R_PCREL runtime.writeBarrier<0>+-1
	rel 1645+4 t=R_CALL runtime.gcWriteBarrier2<1>+0
	rel 1680+4 t=R_CALL runtime.morestack_noctxt<0>+0
type:.eq.[4]complex128<1> STEXT dupok nosplit size=85 args=0x10 locals=0x0 funcid=0x0 align=0x0
	0x0000 00000 (<autogenerated>:1)	TEXT	type:.eq.[4]complex128(SB), DUPOK|NOSPLIT|NOFRAME|ABIInternal, $0-16
	0x0000 00000 (<autogenerated>:1)	FUNCDATA	$0, gclocals·TjPuuCwdlCpTaRQGRKTrYw==(SB)
	0x0000 00000 (<autogenerated>:1)	FUNCDATA	$1, gclocals·J5F+7Qw7O7ve2QcWC7DpeQ==(SB)
	0x0000 00000 (<autogenerated>:1)	FUNCDATA	$5, type:.eq.[4]complex128.arginfo1(SB)
	0x0000 00000 (<autogenerated>:1)	FUNCDATA	$6, type:.eq.[4]complex128.argliveinfo(SB)
	0x0000 00000 (<autogenerated>:1)	PCDATA	$3, $1
	0x0000 00000 (<autogenerated>:1)	XORL	CX, CX
	0x0002 00002 (<autogenerated>:1)	JMP	8
	0x0004 00004 (<autogenerated>:1)	LEAQ	1(DX), CX
	0x0008 00008 (<autogenerated>:1)	CMPQ	CX, $4
	0x000c 00012 (<autogenerated>:1)	JGE	79
	0x000e 00014 (<autogenerated>:1)	MOVQ	CX, DX
	0x0011 00017 (<autogenerated>:1)	SHLQ	$4, CX
	0x0015 00021 (<autogenerated>:1)	MOVSD	(BX)(CX*1), X0
	0x001a 00026 (<autogenerated>:1)	MOVSD	(AX)(CX*1), X1
	0x001f 00031 (<autogenerated>:1)	MOVSD	8(BX)(CX*1), X2
	0x0025 00037 (<autogenerated>:1)	MOVSD	8(AX)(CX*1), X3
	0x002b 00043 (<autogenerated>:1)	UCOMISD	X2, X3
	0x002f 00047 (<autogenerated>:1)	SETEQ	SIB
	0x0033 00051 (<autogenerated>:1)	SETPC	CL
	0x0036 00054 (<autogenerated>:1)	ANDL	CX, SI
	0x0038 00056 (<autogenerated>:1)	UCOMISD	X0, X1
	0x003c 00060 (<autogenerated>:1)	SETEQ	DIB
	0x0040 00064 (<autogenerated>:1)	SETPC	CL
	0x0043 00067 (<autogenerated>:1)	ANDL	CX, DI
	0x0045 00069 (<autogenerated>:1)	ANDL	SI, DI
	0x0047 00071 (<autogenerated>:1)	TESTB	DIB, DIB
	0x004a 00074 (<autogenerated>:1)	JNE	4
	0x004c 00076 (<autogenerated>:1)	XORL	AX, AX
	0x004e 00078 (<autogenerated>:1)	RET
	0x004f 00079 (<autogenerated>:1)	MOVL	$1, AX
	0x0054 00084 (<autogenerated>:1)	RET
	0x0000 31 c9 eb 04 48 8d 4a 01 48 83 f9 04 7d 41 48 89  1...H.J.H...}AH.
	0x0010 ca 48 c1 e1 04 f2 0f 10 04 0b f2 0f 10 0c 08 f2  .H..............
	0x0020 0f 10 54 0b 08 f2 0f 10 5c 08 08 66 0f 2e da 40  ..T.....\..f...@
	0x0030 0f 94 c6 0f 9b c1 21 ce 66 0f 2e c8 40 0f 94 c7  ......!.f...@...
	0x0040 0f 9b c1 21 cf 21 f7 40 84 ff 75 b8 31 c0 c3 b8  ...!.!.@..u.1...
	0x0050 01 00 00 00 c3                                   .....
type:.eq.[4]string<1> STEXT dupok size=180 args=0x10 locals=0x28 funcid=0x0 align=0x0
	0x0000 00000 (<autogenerated>:1)	TEXT	type:.eq.[4]string(SB), DUPOK|ABIInternal, $40-16
	0x0000 00000 (<autogenerated>:1)	CMPQ	SP, 16(R14)
	0x0004 00004 (<autogenerated>:1)	PCDATA	$0, $-2
	0x0004 00004 (<autogenerated>:1)	JLS	150
	0x000a 00010 (<autogenerated>:1)	PCDATA	$0, $-1
	0x000a 00010 (<autogenerated>:1)	PUSHQ	BP
	0x000b 00011 (<autogenerated>:1)	MOVQ	SP, BP
	0x000e 00014 (<autogenerated>:1)	SUBQ	$32, SP
	0x0012 00018 (<autogenerated>:1)	FUNCDATA	$0, gclocals·TjPuuCwdlCpTaRQGRKTrYw==(SB)
	0x0012 00018 (<autogenerated>:1)	FUNCDATA	$1, gclocals·J5F+7Qw7O7ve2QcWC7DpeQ==(SB)
	0x0012 00018 (<autogenerated>:1)	FUNCDATA	$5, type:.eq.[4]string.arginfo1(SB)
	0x0012 00018 (<autogenerated>:1)	FUNCDATA	$6, type:.eq.[4]string.argliveinfo(SB)
	0x0012 00018 (<autogenerated>:1)	PCDATA	$3, $1
	0x0012 00018 (<autogenerated>:1)	MOVQ	8(AX), DX
	0x0016 00022 (<autogenerated>:1)	CMPQ	8(BX), DX
	0x001a 00026 (<autogenerated>:1)	JNE	72
	0x001c 00028 (<autogenerated>:1)	MOVQ	24(AX), DX
	0x0020 00032 (<autogenerated>:1)	CMPQ	24(BX), DX
	0x0024 00036 (<autogenerated>:1)	JNE	72
	0x0026 00038 (<autogenerated>:1)	MOVQ	40(BX), DX
	0x002a 00042 (<autogenerated>:1)	CMPQ	40(AX), DX
	0x002e 00046 (<autogenerated>:1)	JNE	72
	0x0030 00048 (<autogenerated>:1)	MOVQ	56(BX), DX
	0x0034 00052 (<autogenerated>:1)	CMPQ	56(AX), DX
	0x0038 00056 (<autogenerated>:1)	JNE	72
	0x003a 00058 (<autogenerated>:1)	MOVQ	AX, command-line-arguments.p+48(SP)
	0x003f 00063 (<autogenerated>:1)	MOVQ	BX, command-line-arguments.q+56(SP)
	0x0044 00068 (<autogenerated>:1)	PCDATA	$3, $-1
	0x0044 00068 (<autogenerated>:1)	XORL	CX, CX
	0x0046 00070 (<autogenerated>:1)	JMP	98
	0x0048 00072 (<autogenerated>:1)	PCDATA	$3, $1
	0x0048 00072 (<autogenerated>:1)	XORL	AX, AX
	0x004a 00074 (<autogenerated>:1)	ADDQ	$32, SP
	0x004e 00078 (<autogenerated>:1)	POPQ	BP
	0x004f 00079 (<autogenerated>:1)	RET
	0x0050 00080 (<autogenerated>:1)	PCDATA	$3, $-1
	0x0050 00080 (<autogenerated>:1)	MOVQ	command-line-arguments..autotmp_9+24(SP), CX
	0x0055 00085 (<autogenerated>:1)	INCQ	CX
	0x0058 00088 (<autogenerated>:1)	MOVQ	command-line-arguments.p+48(SP), AX
	0x005d 00093 (<autogenerated>:1)	MOVQ	command-line-arguments.q+56(SP), BX
	0x0062 00098 (<autogenerated>:1)	CMPQ	CX, $4
	0x0066 00102 (<autogenerated>:1)	JGE	143
	0x0068 00104 (<autogenerated>:1)	MOVQ	CX, command-line-arguments..autotmp_9+24(SP)
	0x006d 00109 (<autogenerated>:1)	SHLQ	$4, CX
	0x0071 00113 (<autogenerated>:1)	MOVQ	(CX)(AX*1), SI
	0x0075 00117 (<autogenerated>:1)	MOVQ	(CX)(BX*1), DI
	0x0079 00121 (<autogenerated>:1)	MOVQ	8(AX)(CX*1), CX
	0x007e 00126 (<autogenerated>:1)	MOVQ	SI, AX
	0x0081 00129 (<autogenerated>:1)	MOVQ	DI, BX
	0x0084 00132 (<autogenerated>:1)	PCDATA	$1, $0
	0x0084 00132 (<autogenerated>:1)	CALL	runtime.memequal(SB)
	0x0089 00137 (<autogenerated>:1)	TESTB	AL, AL
	0x008b 00139 (<autogenerated>:1)	JNE	80
	0x008d 00141 (<autogenerated>:1)	JMP	72
	0x008f 00143 (<autogenerated>:1)	MOVL	$1, AX
	0x0094 00148 (<autogenerated>:1)	JMP	74
	0x0096 00150 (<autogenerated>:1)	NOP
	0x0096 00150 (<autogenerated>:1)	PCDATA	$1, $-1
	0x0096 00150 (<autogenerated>:1)	PCDATA	$0, $-2
	0x0096 00150 (<autogenerated>:1)	MOVQ	AX, 8(SP)
	0x009b 00155 (<autogenerated>:1)	MOVQ	BX, 16(SP)
	0x00a0 00160 (<autogenerated>:1)	CALL	runtime.morestack_noctxt(SB)
	0x00a5 00165 (<autogenerated>:1)	PCDATA	$0, $-1
	0x00a5 00165 (<autogenerated>:1)	MOVQ	8(SP), AX
	0x00aa 00170 (<autogenerated>:1)	MOVQ	16(SP), BX
	0x00af 00175 (<autogenerated>:1)	JMP	0
	0x0000 49 3b 66 10 0f 86 8c 00 00 00 55 48 89 e5 48 83  I;f.......UH..H.
	0x0010 ec 20 48 8b 50 08 48 39 53 08 75 2c 48 8b 50 18  . H.P.H9S.u,H.P.
	0x0020 48 39 53 18 75 22 48 8b 53 28 48 39 50 28 75 18  H9S.u"H.S(H9P(u.
	0x0030 48 8b 53 38 48 39 50 38 75 0e 48 89 44 24 30 48  H.S8H9P8u.H.D$0H
	0x0040 89 5c 24 38 31 c9 eb 1a 31 c0 48 83 c4 20 5d c3  .\$81...1.H.. ].
	0x0050 48 8b 4c 24 18 48 ff c1 48 8b 44 24 30 48 8b 5c  H.L$.H..H.D$0H.\
	0x0060 24 38 48 83 f9 04 7d 27 48 89 4c 24 18 48 c1 e1  $8H...}'H.L$.H..
	0x0070 04 48 8b 34 01 48 8b 3c 19 48 8b 4c 08 08 48 89  .H.4.H.<.H.L..H.
	0x0080 f0 48 89 fb e8 00 00 00 00 84 c0 75 c3 eb b9 b8  .H.........u....
	0x0090 01 00 00 00 eb b4 48 89 44 24 08 48 89 5c 24 10  ......H.D$.H.\$.
	0x00a0 e8 00 00 00 00 48 8b 44 24 08 48 8b 5c 24 10 e9  .....H.D$.H.\$..
	0x00b0 4c ff ff ff                                      L...
	rel 133+4 t=R_CALL runtime.memequal<1>+0
	rel 161+4 t=R_CALL runtime.morestack_noctxt<0>+0
go:cuinfo.producer.command-line-arguments<0> SDWARFCUINFO dupok size=0
	0x0000 72 65 67 61 62 69                                regabi
go:cuinfo.packagename.command-line-arguments<0> SDWARFCUINFO dupok size=0
	0x0000 63 6f 64 65 67 65 6e                             codegen
runtime.memequal64·f<0> SRODATA dupok size=8
	0x0000 00 00 00 00 00 00 00 00                          ........
	rel 0+8 t=R_ADDR runtime.memequal64<1>+0
runtime.gcbits.0100000000000000<0> SRODATA dupok size=8
	0x0000 01 00 00 00 00 00 00 00                          ........
type:.namedata.*map[complex128][]complex128-<0> SRODATA dupok size=30
	0x0000 00 1c 2a 6d 61 70 5b 63 6f 6d 70 6c 65 78 31 32  ..*map[complex12
	0x0010 38 5d 5b 5d 63 6f 6d 70 6c 65 78 31 32 38        8][]complex128
type:*map[complex128][]complex128<0> SRODATA dupok size=56
	0x0000 08 00 00 00 00 00 00 00 08 00 00 00 00 00 00 00  ................
	0x0010 63 ec b4 a1 08 08 08 36 00 00 00 00 00 00 00 00  c......6........
	0x0020 00 00 00 00 00 00 00 00 00 00 00 00 00 00 00 00  ................
	0x0030 00 00 00 00 00 00 00 00                          ........
	rel 24+8 t=R_ADDR runtime.memequal64·f<0>+0
	rel 32+8 t=R_ADDR runtime.gcbits.0100000000000000<0>+0
	rel 40+4 t=R_ADDROFF type:.namedata.*map[complex128][]complex128-<0>+0
	rel 48+8 t=R_ADDR type:map[complex128][]complex128<0>+0
type:.namedata.*map.bucket[complex128][]complex128-<0> SRODATA dupok size=37
	0x0000 00 23 2a 6d 61 70 2e 62 75 63 6b 65 74 5b 63 6f  .#*map.bucket[co
	0x0010 6d 70 6c 65 78 31 32 38 5d 5b 5d 63 6f 6d 70 6c  mplex128][]compl
	0x0020 65 78 31 32 38                                   ex128
type:*map.bucket[complex128][]complex128<0> SRODATA dupok size=56
	0x0000 08 00 00 00 00 00 00 00 08 00 00 00 00 00 00 00  ................
	0x0010 cb 98 3a c5 08 08 08 36 00 00 00 00 00 00 00 00  ..:....6........
	0x0020 00 00 00 00 00 00 00 00 00 00 00 00 00 00 00 00  ................
	0x0030 00 00 00 00 00 00 00 00                          ........
	rel 24+8 t=R_ADDR runtime.memequal64·f<0>+0
	rel 32+8 t=R_ADDR runtime.gcbits.0100000000000000<0>+0
	rel 40+4 t=R_ADDROFF type:.namedata.*map.bucket[complex128][]complex128-<0>+0
	rel 48+8 t=R_ADDR type:noalg.map.bucket[complex128][]complex128<0>+0
runtime.gcbits.0000922449020000<0> SRODATA dupok size=8
	0x0000 00 00 92 24 49 02 00 00                          ...$I...
type:.namedata.*[8]uint8-<0> SRODATA dupok size=11
	0x0000 00 09 2a 5b 38 5d 75 69 6e 74 38                 ..*[8]uint8
type:*[8]uint8<0> SRODATA dupok size=56
	0x0000 08 00 00 00 00 00 00 00 08 00 00 00 00 00 00 00  ................
	0x0010 f8 9a 95 1a 08 08 08 36 00 00 00 00 00 00 00 00  .......6........
	0x0020 00 00 00 00 00 00 00 00 00 00 00 00 00 00 00 00  ................
	0x0030 00 00 00 00 00 00 00 00                          ........
	rel 24+8 t=R_ADDR runtime.memequal64·f<0>+0
	rel 32+8 t=R_ADDR runtime.gcbits.0100000000000000<0>+0
	rel 40+4 t=R_ADDROFF type:.namedata.*[8]uint8-<0>+0
	rel 48+8 t=R_ADDR type:[8]uint8<0>+0
runtime.gcbits.<0> SRODATA dupok size=0
type:[8]uint8<0> SRODATA dupok size=72
	0x0000 08 00 00 00 00 00 00 00 00 00 00 00 00 00 00 00  ................
	0x0010 89 18 9c b4 0a 01 01 11 00 00 00 00 00 00 00 00  ................
	0x0020 00 00 00 00 00 00 00 00 00 00 00 00 00 00 00 00  ................
	0x0030 00 00 00 00 00 00 00 00 00 00 00 00 00 00 00 00  ................
	0x0040 08 00 00 00 00 00 00 00                          ........
	rel 24+8 t=R_ADDR runtime.memequal64·f<0>+0
	rel 32+8 t=R_ADDR runtime.gcbits.<0>+0
	rel 40+4 t=R_ADDROFF type:.namedata.*[8]uint8-<0>+0
	rel 44+4 t=RelocType(-32763) type:*[8]uint8<0>+0
	rel 48+8 t=R_ADDR type:uint8<0>+0
	rel 56+8 t=R_ADDR type:[]uint8<0>+0
type:.namedata.*[8]complex128-<0> SRODATA dupok size=16
	0x0000 00 0e 2a 5b 38 5d 63 6f 6d 70 6c 65 78 31 32 38  ..*[8]complex128
type:*[8]complex128<0> SRODATA dupok size=56
	0x0000 08 00 00 00 00 00 00 00 08 00 00 00 00 00 00 00  ................
	0x0010 50 3a 5e aa 08 08 08 36 00 00 00 00 00 00 00 00  P:^....6........
	0x0020 00 00 00 00 00 00 00 00 00 00 00 00 00 00 00 00  ................
	0x0030 00 00 00 00 00 00 00 00                          ........
	rel 24+8 t=R_ADDR runtime.memequal64·f<0>+0
	rel 32+8 t=R_ADDR runtime.gcbits.0100000000000000<0>+0
	rel 40+4 t=R_ADDROFF type:.namedata.*[8]complex128-<0>+0
	rel 48+8 t=R_ADDR type:noalg.[8]complex128<0>+0
type:noalg.[8]complex128<0> SRODATA dupok size=72
	0x0000 80 00 00 00 00 00 00 00 00 00 00 00 00 00 00 00  ................
	0x0010 56 04 ea 22 02 08 08 11 00 00 00 00 00 00 00 00  V.."............
	0x0020 00 00 00 00 00 00 00 00 00 00 00 00 00 00 00 00  ................
	0x0030 00 00 00 00 00 00 00 00 00 00 00 00 00 00 00 00  ................
	0x0040 08 00 00 00 00 00 00 00                          ........
	rel 32+8 t=R_ADDR runtime.gcbits.<0>+0
	rel 40+4 t=R_ADDROFF type:.namedata.*[8]complex128-<0>+0
	rel 44+4 t=RelocType(-32763) type:*[8]complex128<0>+0
	rel 48+8 t=R_ADDR type:complex128<0>+0
	rel 56+8 t=R_ADDR type:[]complex128<0>+0
type:.namedata.*[8][]complex128-<0> SRODATA dupok size=18
	0x0000 00 10 2a 5b 38 5d 5b 5d 63 6f 6d 70 6c 65 78 31  ..*[8][]complex1
	0x0010 32 38                                            28
type:*[8][]complex128<0> SRODATA dupok size=56
	0x0000 08 00 00 00 00 00 00 00 08 00 00 00 00 00 00 00  ................
	0x0010 2f de ac 38 08 08 08 36 00 00 00 00 00 00 00 00  /..8...6........
	0x0020 00 00 00 00 00 00 00 00 00 00 00 00 00 00 00 00  ................
	0x0030 00 00 00 00 00 00 00 00                          ........
	rel 24+8 t=R_ADDR runtime.memequal64·f<0>+0
	rel 32+8 t=R_ADDR runtime.gcbits.0100000000000000<0>+0
	rel 40+4 t=R_ADDROFF type:.namedata.*[8][]complex128-<0>+0
	rel 48+8 t=R_ADDR type:noalg.[8][]complex128<0>+0
runtime.gcbits.4992240000000000<0> SRODATA dupok size=8
	0x0000 49 92 24 00 00 00 00 00                          I.$.....
type:.namedata.*[][]complex128-<0> SRODATA dupok size=17
	0x0000 00 0f 2a 5b 5d 5b 5d 63 6f 6d 70 6c 65 78 31 32  ..*[][]complex12
	0x0010 38                                               8
type:*[][]complex128<0> SRODATA dupok size=56
	0x0000 08 00 00 00 00 00 00 00 08 00 00 00 00 00 00 00  ................
	0x0010 47 d8 e2 0e 08 08 08 36 00 00 00 00 00 00 00 00  G......6........
	0x0020 00 00 00 00 00 00 00 00 00 00 00 00 00 00 00 00  ................
	0x0030 00 00 00 00 00 00 00 00                          ........
	rel 24+8 t=R_ADDR runtime.memequal64·f<0>+0
	rel 32+8 t=R_ADDR runtime.gcbits.0100000000000000<0>+0
	rel 40+4 t=R_ADDROFF type:.namedata.*[][]complex128-<0>+0
	rel 48+8 t=R_ADDR type:[][]complex128<0>+0
type:[][]complex128<0> SRODATA dupok size=56
	0x0000 18 00 00 00 00 00 00 00 08 00 00 00 00 00 00 00  ................
	0x0010 4e 19 fa 17 02 08 08 17 00 00 00 00 00 00 00 00  N...............
	0x0020 00 00 00 00 00 00 00 00 00 00 00 00 00 00 00 00  ................
	0x0030 00 00 00 00 00 00 00 00                          ........
	rel 32+8 t=R_ADDR runtime.gcbits.0100000000000000<0>+0
	rel 40+4 t=R_ADDROFF type:.namedata.*[][]complex128-<0>+0
	rel 44+4 t=RelocType(-32763) type:*[][]complex128<0>+0
	rel 48+8 t=R_ADDR type:[]complex128<0>+0
type:noalg.[8][]complex128<0> SRODATA dupok size=72
	0x0000 c0 00 00 00 00 00 00 00 b0 00 00 00 00 00 00 00  ................
	0x0010 3a 49 74 96 02 08 08 11 00 00 00 00 00 00 00 00  :It.............
	0x0020 00 00 00 00 00 00 00 00 00 00 00 00 00 00 00 00  ................
	0x0030 00 00 00 00 00 00 00 00 00 00 00 00 00 00 00 00  ................
	0x0040 08 00 00 00 00 00 00 00                          ........
	rel 32+8 t=R_ADDR runtime.gcbits.4992240000000000<0>+0
	rel 40+4 t=R_ADDROFF type:.namedata.*[8][]complex128-<0>+0
	rel 44+4 t=RelocType(-32763) type:*[8][]complex128<0>+0
	rel 48+8 t=R_ADDR type:[]complex128<0>+0
	rel 56+8 t=R_ADDR type:[][]complex128<0>+0
type:.importpath..<0> SRODATA dupok size=2
	0x0000 00 00                                            ..
type:.namedata.topbits-<0> SRODATA dupok size=9
	0x0000 00 07 74 6f 70 62 69 74 73                       ..topbits
type:.namedata.keys-<0> SRODATA dupok size=6
	0x0000 00 04 6b 65 79 73                                ..keys
type:.namedata.elems-<0> SRODATA dupok size=7
	0x0000 00 05 65 6c 65 6d 73                             ..elems
type:.namedata.overflow-<0> SRODATA dupok size=10
	0x0000 00 08 6f 76 65 72 66 6c 6f 77                    ..overflow
type:noalg.map.bucket[complex128][]complex128<0> SRODATA dupok size=176
	0x0000 50 01 00 00 00 00 00 00 50 01 00 00 00 00 00 00  P.......P.......
	0x0010 7c 63 5a 78 02 08 08 19 00 00 00 00 00 00 00 00  |cZx............
	0x0020 00 00 00 00 00 00 00 00 00 00 00 00 00 00 00 00  ................
	0x0030 00 00 00 00 00 00 00 00 00 00 00 00 00 00 00 00  ................
	0x0040 04 00 00 00 00 00 00 00 04 00 00 00 00 00 00 00  ................
	0x0050 00 00 00 00 00 00 00 00 00 00 00 00 00 00 00 00  ................
	0x0060 00 00 00 00 00 00 00 00 00 00 00 00 00 00 00 00  ................
	0x0070 00 00 00 00 00 00 00 00 08 00 00 00 00 00 00 00  ................
	0x0080 00 00 00 00 00 00 00 00 00 00 00 00 00 00 00 00  ................
	0x0090 88 00 00 00 00 00 00 00 00 00 00 00 00 00 00 00  ................
	0x00a0 00 00 00 00 00 00 00 00 48 01 00 00 00 00 00 00  ........H.......
	rel 32+8 t=R_ADDR runtime.gcbits.0000922449020000<0>+0
	rel 40+4 t=R_ADDROFF type:.namedata.*map.bucket[complex128][]complex128-<0>+0
	rel 44+4 t=RelocType(-32763) type:*map.bucket[complex128][]complex128<0>+0
	rel 48+8 t=R_ADDR type:.importpath..<0>+0
	rel 56+8 t=R_ADDR type:noalg.map.bucket[complex128][]complex128<0>+80
	rel 80+8 t=R_ADDR type:.namedata.topbits-<0>+0
	rel 88+8 t=R_ADDR type:[8]uint8<0>+0
	rel 104+8 t=R_ADDR type:.namedata.keys-<0>+0
	rel 112+8 t=R_ADDR type:noalg.[8]complex128<0>+0
	rel 128+8 t=R_ADDR type:.namedata.elems-<0>+0
	rel 136+8 t=R_ADDR type:noalg.[8][]complex128<0>+0
	rel 152+8 t=R_ADDR type:.namedata.overflow-<0>+0
	rel 160+8 t=R_ADDR type:unsafe.Pointer<0>+0
runtime.c128hash·f<0> SRODATA dupok size=8
	0x0000 00 00 00 00 00 00 00 00                          ........
	rel 0+8 t=R_ADDR runtime.c128hash<1>+0
type:map[complex128][]complex128<0> SRODATA dupok size=88
	0x0000 08 00 00 00 00 00 00 00 08 00 00 00 00 00 00 00  ................
	0x0010 e9 2c 42 b8 02 08 08 35 00 00 00 00 00 00 00 00  .,B....5........
	0x0020 00 00 00 00 00 00 00 00 00 00 00 00 00 00 00 00  ................
	0x0030 00 00 00 00 00 00 00 00 00 00 00 00 00 00 00 00  ................
	0x0040 00 00 00 00 00 00 00 00 00 00 00 00 00 00 00 00  ................
	0x0050 10 18 50 01 08 00 00 00                          ..P.....
	rel 32+8 t=R_ADDR runtime.gcbits.0100000000000000<0>+0
	rel 40+4 t=R_ADDROFF type:.namedata.*map[complex128][]complex128-<0>+0
	rel 44+4 t=RelocType(-32763) type:*map[complex128][]complex128<0>+0
	rel 48+8 t=R_ADDR type:complex128<0>+0
	rel 56+8 t=R_ADDR type:[]complex128<0>+0
	rel 64+8 t=R_ADDR type:noalg.map.bucket[complex128][]complex128<0>+0
	rel 72+8 t=R_ADDR runtime.c128hash·f<0>+0
type:.namedata.*map[complex128]complex128-<0> SRODATA dupok size=28
	0x0000 00 1a 2a 6d 61 70 5b 63 6f 6d 70 6c 65 78 31 32  ..*map[complex12
	0x0010 38 5d 63 6f 6d 70 6c 65 78 31 32 38              8]complex128
type:*map[complex128]complex128<0> SRODATA dupok size=56
	0x0000 08 00 00 00 00 00 00 00 08 00 00 00 00 00 00 00  ................
	0x0010 f7 8e af 8f 08 08 08 36 00 00 00 00 00 00 00 00  .......6........
	0x0020 00 00 00 00 00 00 00 00 00 00 00 00 00 00 00 00  ................
	0x0030 00 00 00 00 00 00 00 00                          ........
	rel 24+8 t=R_ADDR runtime.memequal64·f<0>+0
	rel 32+8 t=R_ADDR runtime.gcbits.0100000000000000<0>+0
	rel 40+4 t=R_ADDROFF type:.namedata.*map[complex128]complex128-<0>+0
	rel 48+8 t=R_ADDR type:map[complex128]complex128<0>+0
type:.namedata.*map.bucket[complex128]complex128-<0> SRODATA dupok size=35
	0x0000 00 21 2a 6d 61 70 2e 62 75 63 6b 65 74 5b 63 6f  .!*map.bucket[co
	0x0010 6d 70 6c 65 78 31 32 38 5d 63 6f 6d 70 6c 65 78  mplex128]complex
	0x0020 31 32 38                                         128
type:*map.bucket[complex128]complex128<0> SRODATA dupok size=56
	0x0000 08 00 00 00 00 00 00 00 08 00 00 00 00 00 00 00  ................
	0x0010 2a c0 26 ec 08 08 08 36 00 00 00 00 00 00 00 00  *.&....6........
	0x0020 00 00 00 00 00 00 00 00 00 00 00 00 00 00 00 00  ................
	0x0030 00 00 00 00 00 00 00 00                          ........
	rel 24+8 t=R_ADDR runtime.memequal64·f<0>+0
	rel 32+8 t=R_ADDR runtime.gcbits.0100000000000000<0>+0
	rel 40+4 t=R_ADDROFF type:.namedata.*map.bucket[complex128]complex128-<0>+0
	rel 48+8 t=R_ADDR type:noalg.map.bucket[complex128]complex128<0>+0
type:noalg.map.bucket[complex128]complex128<0> SRODATA dupok size=176
	0x0000 10 01 00 00 00 00 00 00 00 00 00 00 00 00 00 00  ................
	0x0010 7d 22 37 a2 02 08 08 19 00 00 00 00 00 00 00 00  }"7.............
	0x0020 00 00 00 00 00 00 00 00 00 00 00 00 00 00 00 00  ................
	0x0030 00 00 00 00 00 00 00 00 00 00 00 00 00 00 00 00  ................
	0x0040 04 00 00 00 00 00 00 00 04 00 00 00 00 00 00 00  ................
	0x0050 00 00 00 00 00 00 00 00 00 00 00 00 00 00 00 00  ................
	0x0060 00 00 00 00 00 00 00 00 00 00 00 00 00 00 00 00  ................
	0x0070 00 00 00 00 00 00 00 00 08 00 00 00 00 00 00 00  ................
	0x0080 00 00 00 00 00 00 00 00 00 00 00 00 00 00 00 00  ................
	0x0090 88 00 00 00 00 00 00 00 00 00 00 00 00 00 00 00  ................
	0x00a0 00 00 00 00 00 00 00 00 08 01 00 00 00 00 00 00  ................
	rel 32+8 t=R_ADDR runtime.gcbits.<0>+0
	rel 40+4 t=R_ADDROFF type:.namedata.*map.bucket[complex128]complex128-<0>+0
	rel 44+4 t=RelocType(-32763) type:*map.bucket[complex128]complex128<0>+0
	rel 48+8 t=R_ADDR type:.importpath..<0>+0
	rel 56+8 t=R_ADDR type:noalg.map.bucket[complex128]complex128<0>+80
	rel 80+8 t=R_ADDR type:.namedata.topbits-<0>+0
	rel 88+8 t=R_ADDR type:[8]uint8<0>+0
	rel 104+8 t=R_ADDR type:.namedata.keys-<0>+0
	rel 112+8 t=R_ADDR type:noalg.[8]complex128<0>+0
	rel 128+8 t=R_ADDR type:.namedata.elems-<0>+0
	rel 136+8 t=R_ADDR type:noalg.[8]complex128<0>+0
	rel 152+8 t=R_ADDR type:.namedata.overflow-<0>+0
	rel 160+8 t=R_ADDR type:uintptr<0>+0
type:map[complex128]complex128<0> SRODATA dupok size=88
	0x0000 08 00 00 00 00 00 00 00 08 00 00 00 00 00 00 00  ................
	0x0010 bc 1e 1d 05 02 08 08 35 00 00 00 00 00 00 00 00  .......5........
	0x0020 00 00 00 00 00 00 00 00 00 00 00 00 00 00 00 00  ................
	0x0030 00 00 00 00 00 00 00 00 00 00 00 00 00 00 00 00  ................
	0x0040 00 00 00 00 00 00 00 00 00 00 00 00 00 00 00 00  ................
	0x0050 10 10 10 01 08 00 00 00                          ........
	rel 32+8 t=R_ADDR runtime.gcbits.0100000000000000<0>+0
	rel 40+4 t=R_ADDROFF type:.namedata.*map[complex128]complex128-<0>+0
	rel 44+4 t=RelocType(-32763) type:*map[complex128]complex128<0>+0
	rel 48+8 t=R_ADDR type:complex128<0>+0
	rel 56+8 t=R_ADDR type:complex128<0>+0
	rel 64+8 t=R_ADDR type:noalg.map.bucket[complex128]complex128<0>+0
	rel 72+8 t=R_ADDR runtime.c128hash·f<0>+0
type:.namedata.*map[int32][]int32-<0> SRODATA dupok size=20
	0x0000 00 12 2a 6d 61 70 5b 69 6e 74 33 32 5d 5b 5d 69  ..*map[int32][]i
	0x0010 6e 74 33 32                                      nt32
type:*map[int32][]int32<0> SRODATA dupok size=56
	0x0000 08 00 00 00 00 00 00 00 08 00 00 00 00 00 00 00  ................
	0x0010 8d 1e a9 e4 08 08 08 36 00 00 00 00 00 00 00 00  .......6........
	0x0020 00 00 00 00 00 00 00 00 00 00 00 00 00 00 00 00  ................
	0x0030 00 00 00 00 00 00 00 00                          ........
	rel 24+8 t=R_ADDR runtime.memequal64·f<0>+0
	rel 32+8 t=R_ADDR runtime.gcbits.0100000000000000<0>+0
	rel 40+4 t=R_ADDROFF type:.namedata.*map[int32][]int32-<0>+0
	rel 48+8 t=R_ADDR type:map[int32][]int32<0>+0
type:.namedata.*map.bucket[int32][]int32-<0> SRODATA dupok size=27
	0x0000 00 19 2a 6d 61 70 2e 62 75 63 6b 65 74 5b 69 6e  ..*map.bucket[in
	0x0010 74 33 32 5d 5b 5d 69 6e 74 33 32                 t32][]int32
type:*map.bucket[int32][]int32<0> SRODATA dupok size=56
	0x0000 08 00 00 00 00 00 00 00 08 00 00 00 00 00 00 00  ................
	0x0010 47 74 00 96 08 08 08 36 00 00 00 00 00 00 00 00  Gt.....6........
	0x0020 00 00 00 00 00 00 00 00 00 00 00 00 00 00 00 00  ................
	0x0030 00 00 00 00 00 00 00 00                          ........
	rel 24+8 t=R_ADDR runtime.memequal64·f<0>+0
	rel 32+8 t=R_ADDR runtime.gcbits.0100000000000000<0>+0
	rel 40+4 t=R_ADDROFF type:.namedata.*map.bucket[int32][]int32-<0>+0
	rel 48+8 t=R_ADDR type:noalg.map.bucket[int32][]int32<0>+0
runtime.gcbits.2049922400000000<0> SRODATA dupok size=8
	0x0000 20 49 92 24 00 00 00 00                           I.$....
type:.namedata.*[8]int32-<0> SRODATA dupok size=11
	0x0000 00 09 2a 5b 38 5d 69 6e 74 33 32                 ..*[8]int32
type:*[8]int32<0> SRODATA dupok size=56
	0x0000 08 00 00 00 00 00 00 00 08 00 00 00 00 00 00 00  ................
	0x0010 97 f6 74 9d 08 08 08 36 00 00 00 00 00 00 00 00  ..t....6........
	0x0020 00 00 00 00 00 00 00 00 00 00 00 00 00 00 00 00  ................
	0x0030 00 00 00 00 00 00 00 00                          ........
	rel 24+8 t=R_ADDR runtime.memequal64·f<0>+0
	rel 32+8 t=R_ADDR runtime.gcbits.0100000000000000<0>+0
	rel 40+4 t=R_ADDROFF type:.namedata.*[8]int32-<0>+0
	rel 48+8 t=R_ADDR type:noalg.[8]int32<0>+0
type:noalg.[8]int32<0> SRODATA dupok size=72
	0x0000 20 00 00 00 00 00 00 00 00 00 00 00 00 00 00 00   ...............
	0x0010 50 8d 4e 89 02 04 04 11 00 00 00 00 00 00 00 00  P.N.............
	0x0020 00 00 00 00 00 00 00 00 00 00 00 00 00 00 00 00  ................
	0x0030 00 00 00 00 00 00 00 00 00 00 00 00 00 00 00 00  ................
	0x0040 08 00 00 00 00 00 00 00                          ........
	rel 32+8 t=R_ADDR runtime.gcbits.<0>+0
	rel 40+4 t=R_ADDROFF type:.namedata.*[8]int32-<0>+0
	rel 44+4 t=RelocType(-32763) type:*[8]int32<0>+0
	rel 48+8 t=R_ADDR type:int32<0>+0
	rel 56+8 t=R_ADDR type:[]int32<0>+0
type:.namedata.*[8][]int32-<0> SRODATA dupok size=13
	0x0000 00 0b 2a 5b 38 5d 5b 5d 69 6e 74 33 32           ..*[8][]int32
type:*[8][]int32<0> SRODATA dupok size=56
	0x0000 08 00 00 00 00 00 00 00 08 00 00 00 00 00 00 00  ................
	0x0010 fb 77 d5 8c 08 08 08 36 00 00 00 00 00 00 00 00  .w.....6........
	0x0020 00 00 00 00 00 00 00 00 00 00 00 00 00 00 00 00  ................
	0x0030 00 00 00 00 00 00 00 00                          ........
	rel 24+8 t=R_ADDR runtime.memequal64·f<0>+0
	rel 32+8 t=R_ADDR runtime.gcbits.0100000000000000<0>+0
	rel 40+4 t=R_ADDROFF type:.namedata.*[8][]int32-<0>+0
	rel 48+8 t=R_ADDR type:noalg.[8][]int32<0>+0
type:.namedata.*[][]int32-<0> SRODATA dupok size=12
	0x0000 00 0a 2a 5b 5d 5b 5d 69 6e 74 33 32              ..*[][]int32
type:*[][]int32<0> SRODATA dupok size=56
	0x0000 08 00 00 00 00 00 00 00 08 00 00 00 00 00 00 00  ................
	0x0010 5e 7d ad d0 08 08 08 36 00 00 00 00 00 00 00 00  ^}.....6........
	0x0020 00 00 00 00 00 00 00 00 00 00 00 00 00 00 00 00  ................
	0x0030 00 00 00 00 00 00 00 00                          ........
	rel 24+8 t=R_ADDR runtime.memequal64·f<0>+0
	rel 32+8 t=R_ADDR runtime.gcbits.0100000000000000<0>+0
	rel 40+4 t=R_ADDROFF type:.namedata.*[][]int32-<0>+0
	rel 48+8 t=R_ADDR type:[][]int32<0>+0
type:[][]int32<0> SRODATA dupok size=56
	0x0000 18 00 00 00 00 00 00 00 08 00 00 00 00 00 00 00  ................
	0x0010 ae 4d 7f ec 02 08 08 17 00 00 00 00 00 00 00 00  .M..............
	0x0020 00 00 00 00 00 00 00 00 00 00 00 00 00 00 00 00  ................
	0x0030 00 00 00 00 00 00 00 00                          ........
	rel 32+8 t=R_ADDR runtime.gcbits.0100000000000000<0>+0
	rel 40+4 t=R_ADDROFF type:.namedata.*[][]int32-<0>+0
	rel 44+4 t=RelocType(-32763) type:*[][]int32<0>+0
	rel 48+8 t=R_ADDR type:[]int32<0>+0
type:noalg.[8][]int32<0> SRODATA dupok size=72
	0x0000 c0 00 00 00 00 00 00 00 b0 00 00 00 00 00 00 00  ................
	0x0010 d1 13 a2 b5 02 08 08 11 00 00 00 00 00 00 00 00  ................
	0x0020 00 00 00 00 00 00 00 00 00 00 00 00 00 00 00 00  ................
	0x0030 00 00 00 00 00 00 00 00 00 00 00 00 00 00 00 00  ................
	0x0040 08 00 00 00 00 00 00 00                          ........
	rel 32+8 t=R_ADDR runtime.gcbits.4992240000000000<0>+0
	rel 40+4 t=R_ADDROFF type:.namedata.*[8][]int32-<0>+0
	rel 44+4 t=RelocType(-32763) type:*[8][]int32<0>+0
	rel 48+8 t=R_ADDR type:[]int32<0>+0
	rel 56+8 t=R_ADDR type:[][]int32<0>+0
type:noalg.map.bucket[int32][]int32<0> SRODATA dupok size=176
	0x0000 f0 00 00 00 00 00 00 00 f0 00 00 00 00 00 00 00  ................
	0x0010 fc 06 5a b9 02 08 08 19 00 00 00 00 00 00 00 00  ..Z.............
	0x0020 00 00 00 00 00 00 00 00 00 00 00 00 00 00 00 00  ................
	0x0030 00 00 00 00 00 00 00 00 00 00 00 00 00 00 00 00  ................
	0x0040 04 00 00 00 00 00 00 00 04 00 00 00 00 00 00 00  ................
	0x0050 00 00 00 00 00 00 00 00 00 00 00 00 00 00 00 00  ................
	0x0060 00 00 00 00 00 00 00 00 00 00 00 00 00 00 00 00  ................
	0x0070 00 00 00 00 00 00 00 00 08 00 00 00 00 00 00 00  ................
	0x0080 00 00 00 00 00 00 00 00 00 00 00 00 00 00 00 00  ................
	0x0090 28 00 00 00 00 00 00 00 00 00 00 00 00 00 00 00  (...............
	0x00a0 00 00 00 00 00 00 00 00 e8 00 00 00 00 00 00 00  ................
	rel 32+8 t=R_ADDR runtime.gcbits.2049922400000000<0>+0
	rel 40+4 t=R_ADDROFF type:.namedata.*map.bucket[int32][]int32-<0>+0
	rel 44+4 t=RelocType(-32763) type:*map.bucket[int32][]int32<0>+0
	rel 48+8 t=R_ADDR type:.importpath..<0>+0
	rel 56+8 t=R_ADDR type:noalg.map.bucket[int32][]int32<0>+80
	rel 80+8 t=R_ADDR type:.namedata.topbits-<0>+0
	rel 88+8 t=R_ADDR type:[8]uint8<0>+0
	rel 104+8 t=R_ADDR type:.namedata.keys-<0>+0
	rel 112+8 t=R_ADDR type:noalg.[8]int32<0>+0
	rel 128+8 t=R_ADDR type:.namedata.elems-<0>+0
	rel 136+8 t=R_ADDR type:noalg.[8][]int32<0>+0
	rel 152+8 t=R_ADDR type:.namedata.overflow-<0>+0
	rel 160+8 t=R_ADDR type:unsafe.Pointer<0>+0
runtime.memhash32·f<0> SRODATA dupok size=8
	0x0000 00 00 00 00 00 00 00 00                          ........
	rel 0+8 t=R_ADDR runtime.memhash32<1>+0
type:map[int32][]int32<0> SRODATA dupok size=88
	0x0000 08 00 00 00 00 00 00 00 08 00 00 00 00 00 00 00  ................
	0x0010 ae 84 86 98 02 08 08 35 00 00 00 00 00 00 00 00  .......5........
	0x0020 00 00 00 00 00 00 00 00 00 00 00 00 00 00 00 00  ................
	0x0030 00 00 00 00 00 00 00 00 00 00 00 00 00 00 00 00  ................
	0x0040 00 00 00 00 00 00 00 00 00 00 00 00 00 00 00 00  ................
	0x0050 04 18 f0 00 04 00 00 00                          ........
	rel 32+8 t=R_ADDR runtime.gcbits.0100000000000000<0>+0
	rel 40+4 t=R_ADDROFF type:.namedata.*map[int32][]int32-<0>+0
	rel 44+4 t=RelocType(-32763) type:*map[int32][]int32<0>+0
	rel 48+8 t=R_ADDR type:int32<0>+0
	rel 56+8 t=R_ADDR type:[]int32<0>+0
	rel 64+8 t=R_ADDR type:noalg.map.bucket[int32][]int32<0>+0
	rel 72+8 t=R_ADDR runtime.memhash32·f<0>+0
type:.namedata.*map[int32]int32-<0> SRODATA dupok size=18
	0x0000 00 10 2a 6d 61 70 5b 69 6e 74 33 32 5d 69 6e 74  ..*map[int32]int
	0x0010 33 32                                            32
type:*map[int32]int32<0> SRODATA dupok size=56
	0x0000 08 00 00 00 00 00 00 00 08 00 00 00 00 00 00 00  ................
	0x0010 70 f7 60 7a 08 08 08 36 00 00 00 00 00 00 00 00  p.`z...6........
	0x0020 00 00 00 00 00 00 00 00 00 00 00 00 00 00 00 00  ................
	0x0030 00 00 00 00 00 00 00 00                          ........
	rel 24+8 t=R_ADDR runtime.memequal64·f<0>+0
	rel 32+8 t=R_ADDR runtime.gcbits.0100000000000000<0>+0
	rel 40+4 t=R_ADDROFF type:.namedata.*map[int32]int32-<0>+0
	rel 48+8 t=R_ADDR type:map[int32]int32<0>+0
type:.namedata.*map.bucket[int32]int32-<0> SRODATA dupok size=25
	0x0000 00 17 2a 6d 61 70 2e 62 75 63 6b 65 74 5b 69 6e  ..*map.bucket[in
	0x0010 74 33 32 5d 69 6e 74 33 32                       t32]int32
type:*map.bucket[int32]int32<0> SRODATA dupok size=56
	0x0000 08 00 00 00 00 00 00 00 08 00 00 00 00 00 00 00  ................
	0x0010 34 c0 9f 1c 08 08 08 36 00 00 00 00 00 00 00 00  4......6........
	0x0020 00 00 00 00 00 00 00 00 00 00 00 00 00 00 00 00  ................
	0x0030 00 00 00 00 00 00 00 00                          ........
	rel 24+8 t=R_ADDR runtime.memequal64·f<0>+0
	rel 32+8 t=R_ADDR runtime.gcbits.0100000000000000<0>+0
	rel 40+4 t=R_ADDROFF type:.namedata.*map.bucket[int32]int32-<0>+0
	rel 48+8 t=R_ADDR type:noalg.map.bucket[int32]int32<0>+0
type:noalg.map.bucket[int32]int32<0> SRODATA dupok size=176
	0x0000 50 00 00 00 00 00 00 00 00 00 00 00 00 00 00 00  P...............
	0x0010 82 c6 eb 79 02 08 08 19 00 00 00 00 00 00 00 00  ...y............
	0x0020 00 00 00 00 00 00 00 00 00 00 00 00 00 00 00 00  ................
	0x0030 00 00 00 00 00 00 00 00 00 00 00 00 00 00 00 00  ................
	0x0040 04 00 00 00 00 00 00 00 04 00 00 00 00 00 00 00  ................
	0x0050 00 00 00 00 00 00 00 00 00 00 00 00 00 00 00 00  ................
	0x0060 00 00 00 00 00 00 00 00 00 00 00 00 00 00 00 00  ................
	0x0070 00 00 00 00 00 00 00 00 08 00 00 00 00 00 00 00  ................
	0x0080 00 00 00 00 00 00 00 00 00 00 00 00 00 00 00 00  ................
	0x0090 28 00 00 00 00 00 00 00 00 00 00 00 00 00 00 00  (...............
	0x00a0 00 00 00 00 00 00 00 00 48 00 00 00 00 00 00 00  ........H.......
	rel 32+8 t=R_ADDR runtime.gcbits.<0>+0
	rel 40+4 t=R_ADDROFF type:.namedata.*map.bucket[int32]int32-<0>+0
	rel 44+4 t=RelocType(-32763) type:*map.bucket[int32]int32<0>+0
	rel 48+8 t=R_ADDR type:.importpath..<0>+0
	rel 56+8 t=R_ADDR type:noalg.map.bucket[int32]int32<0>+80
	rel 80+8 t=R_ADDR type:.namedata.topbits-<0>+0
	rel 88+8 t=R_ADDR type:[8]uint8<0>+0
	rel 104+8 t=R_ADDR type:.namedata.keys-<0>+0
	rel 112+8 t=R_ADDR type:noalg.[8]int32<0>+0
	rel 128+8 t=R_ADDR type:.namedata.elems-<0>+0
	rel 136+8 t=R_ADDR type:noalg.[8]int32<0>+0
	rel 152+8 t=R_ADDR type:.namedata.overflow-<0>+0
	rel 160+8 t=R_ADDR type:uintptr<0>+0
type:map[int32]int32<0> SRODATA dupok size=88
	0x0000 08 00 00 00 00 00 00 00 08 00 00 00 00 00 00 00  ................
	0x0010 72 84 04 73 02 08 08 35 00 00 00 00 00 00 00 00  r..s...5........
	0x0020 00 00 00 00 00 00 00 00 00 00 00 00 00 00 00 00  ................
	0x0030 00 00 00 00 00 00 00 00 00 00 00 00 00 00 00 00  ................
	0x0040 00 00 00 00 00 00 00 00 00 00 00 00 00 00 00 00  ................
	0x0050 04 04 50 00 04 00 00 00                          ..P.....
	rel 32+8 t=R_ADDR runtime.gcbits.0100000000000000<0>+0
	rel 40+4 t=R_ADDROFF type:.namedata.*map[int32]int32-<0>+0
	rel 44+4 t=RelocType(-32763) type:*map[int32]int32<0>+0
	rel 48+8 t=R_ADDR type:int32<0>+0
	rel 56+8 t=R_ADDR type:int32<0>+0
	rel 64+8 t=R_ADDR type:noalg.map.bucket[int32]int32<0>+0
	rel 72+8 t=R_ADDR runtime.memhash32·f<0>+0
type:.namedata.*map[int64][]int64-<0> SRODATA dupok size=20
	0x0000 00 12 2a 6d 61 70 5b 69 6e 74 36 34 5d 5b 5d 69  ..*map[int64][]i
	0x0010 6e 74 36 34                                      nt64
type:*map[int64][]int64<0> SRODATA dupok size=56
	0x0000 08 00 00 00 00 00 00 00 08 00 00 00 00 00 00 00  ................
	0x0010 d2 93 17 7b 08 08 08 36 00 00 00 00 00 00 00 00  ...{...6........
	0x0020 00 00 00 00 00 00 00 00 00 00 00 00 00 00 00 00  ................
	0x0030 00 00 00 00 00 00 00 00                          ........
	rel 24+8 t=R_ADDR runtime.memequal64·f<0>+0
	rel 32+8 t=R_ADDR runtime.gcbits.0100000000000000<0>+0
	rel 40+4 t=R_ADDROFF type:.namedata.*map[int64][]int64-<0>+0
	rel 48+8 t=R_ADDR type:map[int64][]int64<0>+0
type:.namedata.*map.bucket[int64][]int64-<0> SRODATA dupok size=27
	0x0000 00 19 2a 6d 61 70 2e 62 75 63 6b 65 74 5b 69 6e  ..*map.bucket[in
	0x0010 74 36 34 5d 5b 5d 69 6e 74 36 34                 t64][]int64
type:*map.bucket[int64][]int64<0> SRODATA dupok size=56
	0x0000 08 00 00 00 00 00 00 00 08 00 00 00 00 00 00 00  ................
	0x0010 f8 19 7e c2 08 08 08 36 00 00 00 00 00 00 00 00  ..~....6........
	0x0020 00 00 00 00 00 00 00 00 00 00 00 00 00 00 00 00  ................
	0x0030 00 00 00 00 00 00 00 00                          ........
	rel 24+8 t=R_ADDR runtime.memequal64·f<0>+0
	rel 32+8 t=R_ADDR runtime.gcbits.0100000000000000<0>+0
	rel 40+4 t=R_ADDROFF type:.namedata.*map.bucket[int64][]int64-<0>+0
	rel 48+8 t=R_ADDR type:noalg.map.bucket[int64][]int64<0>+0
runtime.gcbits.0092244902000000<0> SRODATA dupok size=8
	0x0000 00 92 24 49 02 00 00 00                          ..$I....
type:.namedata.*[8]int64-<0> SRODATA dupok size=11
	0x0000 00 09 2a 5b 38 5d 69 6e 74 36 34                 ..*[8]int64
type:*[8]int64<0> SRODATA dupok size=56
	0x0000 08 00 00 00 00 00 00 00 08 00 00 00 00 00 00 00  ................
	0x0010 b4 33 64 b1 08 08 08 36 00 00 00 00 00 00 00 00  .3d....6........
	0x0020 00 00 00 00 00 00 00 00 00 00 00 00 00 00 00 00  ................
	0x0030 00 00 00 00 00 00 00 00                          ........
	rel 24+8 t=R_ADDR runtime.memequal64·f<0>+0
	rel 32+8 t=R_ADDR runtime.gcbits.0100000000000000<0>+0
	rel 40+4 t=R_ADDROFF type:.namedata.*[8]int64-<0>+0
	rel 48+8 t=R_ADDR type:noalg.[8]int64<0>+0
type:noalg.[8]int64<0> SRODATA dupok size=72
	0x0000 40 00 00 00 00 00 00 00 00 00 00 00 00 00 00 00  @...............
	0x0010 df 74 c3 e5 02 08 08 11 00 00 00 00 00 00 00 00  .t..............
	0x0020 00 00 00 00 00 00 00 00 00 00 00 00 00 00 00 00  ................
	0x0030 00 00 00 00 00 00 00 00 00 00 00 00 00 00 00 00  ................
	0x0040 08 00 00 00 00 00 00 00                          ........
	rel 32+8 t=R_ADDR runtime.gcbits.<0>+0
	rel 40+4 t=R_ADDROFF type:.namedata.*[8]int64-<0>+0
	rel 44+4 t=RelocType(-32763) type:*[8]int64<0>+0
	rel 48+8 t=R_ADDR type:int64<0>+0
	rel 56+8 t=R_ADDR type:[]int64<0>+0
type:.namedata.*[8][]int64-<0> SRODATA dupok size=13
	0x0000 00 0b 2a 5b 38 5d 5b 5d 69 6e 74 36 34           ..*[8][]int64
type:*[8][]int64<0> SRODATA dupok size=56
	0x0000 08 00 00 00 00 00 00 00 08 00 00 00 00 00 00 00  ................
	0x0010 42 9b 66 11 08 08 08 36 00 00 00 00 00 00 00 00  B.f....6........
	0x0020 00 00 00 00 00 00 00 00 00 00 00 00 00 00 00 00  ................
	0x0030 00 00 00 00 00 00 00 00                          ........
	rel 24+8 t=R_ADDR runtime.memequal64·f<0>+0
	rel 32+8 t=R_ADDR runtime.gcbits.0100000000000000<0>+0
	rel 40+4 t=R_ADDROFF type:.namedata.*[8][]int64-<0>+0
	rel 48+8 t=R_ADDR type:noalg.[8][]int64<0>+0
type:.namedata.*[][]int64-<0> SRODATA dupok size=12
	0x0000 00 0a 2a 5b 5d 5b 5d 69 6e 74 36 34              ..*[][]int64
type:*[][]int64<0> SRODATA dupok size=56
	0x0000 08 00 00 00 00 00 00 00 08 00 00 00 00 00 00 00  ................
	0x0010 c1 40 b0 85 08 08 08 36 00 00 00 00 00 00 00 00  .@.....6........
	0x0020 00 00 00 00 00 00 00 00 00 00 00 00 00 00 00 00  ................
	0x0030 00 00 00 00 00 00 00 00                          ........
	rel 24+8 t=R_ADDR runtime.memequal64·f<0>+0
	rel 32+8 t=R_ADDR runtime.gcbits.0100000000000000<0>+0
	rel 40+4 t=R_ADDROFF type:.namedata.*[][]int64-<0>+0
	rel 48+8 t=R_ADDR type:[][]int64<0>+0
type:[][]int64<0> SRODATA dupok size=56
	0x0000 18 00 00 00 00 00 00 00 08 00 00 00 00 00 00 00  ................
	0x0010 3e c2 0b 30 02 08 08 17 00 00 00 00 00 00 00 00  >..0............
	0x0020 00 00 00 00 00 00 00 00 00 00 00 00 00 00 00 00  ................
	0x0030 00 00 00 00 00 00 00 00                          ........
	rel 32+8 t=R_ADDR runtime.gcbits.0100000000000000<0>+0
	rel 40+4 t=R_ADDROFF type:.namedata.*[][]int64-<0>+0
	rel 44+4 t=RelocType(-32763) type:*[][]int64<0>+0
	rel 48+8 t=R_ADDR type:[]int64<0>+0
type:noalg.[8][]int64<0> SRODATA dupok size=72
	0x0000 c0 00 00 00 00 00 00 00 b0 00 00 00 00 00 00 00  ................
	0x0010 03 cc 77 87 02 08 08 11 00 00 00 00 00 00 00 00  ..w.............
	0x0020 00 00 00 00 00 00 00 00 00 00 00 00 00 00 00 00  ................
	0x0030 00 00 00 00 00 00 00 00 00 00 00 00 00 00 00 00  ................
	0x0040 08 00 00 00 00 00 00 00                          ........
	rel 32+8 t=R_ADDR runtime.gcbits.4992240000000000<0>+0
	rel 40+4 t=R_ADDROFF type:.namedata.*[8][]int64-<0>+0
	rel 44+4 t=RelocType(-32763) type:*[8][]int64<0>+0
	rel 48+8 t=R_ADDR type:[]int64<0>+0
	rel 56+8 t=R_ADDR type:[][]int64<0>+0
type:noalg.map.bucket[int64][]int64<0> SRODATA dupok size=176
	0x0000 10 01 00 00 00 00 00 00 10 01 00 00 00 00 00 00  ................
	0x0010 96 3d 86 17 02 08 08 19 00 00 00 00 00 00 00 00  .=..............
	0x0020 00 00 00 00 00 00 00 00 00 00 00 00 00 00 00 00  ................
	0x0030 00 00 00 00 00 00 00 00 00 00 00 00 00 00 00 00  ................
	0x0040 04 00 00 00 00 00 00 00 04 00 00 00 00 00 00 00  ................
	0x0050 00 00 00 00 00 00 00 00 00 00 00 00 00 00 00 00  ................
	0x0060 00 00 00 00 00 00 00 00 00 00 00 00 00 00 00 00  ................
	0x0070 00 00 00 00 00 00 00 00 08 00 00 00 00 00 00 00  ................
	0x0080 00 00 00 00 00 00 00 00 00 00 00 00 00 00 00 00  ................
	0x0090 48 00 00 00 00 00 00 00 00 00 00 00 00 00 00 00  H...............
	0x00a0 00 00 00 00 00 00 00 00 08 01 00 00 00 00 00 00  ................
	rel 32+8 t=R_ADDR runtime.gcbits.0092244902000000<0>+0
	rel 40+4 t=R_ADDROFF type:.namedata.*map.bucket[int64][]int64-<0>+0
	rel 44+4 t=RelocType(-32763) type:*map.bucket[int64][]int64<0>+0
	rel 48+8 t=R_ADDR type:.importpath..<0>+0
	rel 56+8 t=R_ADDR type:noalg.map.bucket[int64][]int64<0>+80
	rel 80+8 t=R_ADDR type:.namedata.topbits-<0>+0
	rel 88+8 t=R_ADDR type:[8]uint8<0>+0
	rel 104+8 t=R_ADDR type:.namedata.keys-<0>+0
	rel 112+8 t=R_ADDR type:noalg.[8]int64<0>+0
	rel 128+8 t=R_ADDR type:.namedata.elems-<0>+0
	rel 136+8 t=R_ADDR type:noalg.[8][]int64<0>+0
	rel 152+8 t=R_ADDR type:.namedata.overflow-<0>+0
	rel 160+8 t=R_ADDR type:unsafe.Pointer<0>+0
runtime.memhash64·f<0> SRODATA dupok size=8
	0x0000 00 00 00 00 00 00 00 00                          ........
	rel 0+8 t=R_ADDR runtime.memhash64<1>+0
type:map[int64][]int64<0> SRODATA dupok size=88
	0x0000 08 00 00 00 00 00 00 00 08 00 00 00 00 00 00 00  ................
	0x0010 38 23 f2 a2 02 08 08 35 00 00 00 00 00 00 00 00  8#.....5........
	0x0020 00 00 00 00 00 00 00 00 00 00 00 00 00 00 00 00  ................
	0x0030 00 00 00 00 00 00 00 00 00 00 00 00 00 00 00 00  ................
	0x0040 00 00 00 00 00 00 00 00 00 00 00 00 00 00 00 00  ................
	0x0050 08 18 10 01 04 00 00 00                          ........
	rel 32+8 t=R_ADDR runtime.gcbits.0100000000000000<0>+0
	rel 40+4 t=R_ADDROFF type:.namedata.*map[int64][]int64-<0>+0
	rel 44+4 t=RelocType(-32763) type:*map[int64][]int64<0>+0
	rel 48+8 t=R_ADDR type:int64<0>+0
	rel 56+8 t=R_ADDR type:[]int64<0>+0
	rel 64+8 t=R_ADDR type:noalg.map.bucket[int64][]int64<0>+0
	rel 72+8 t=R_ADDR runtime.memhash64·f<0>+0
type:.namedata.*map[int64]int64-<0> SRODATA dupok size=18
	0x0000 00 10 2a 6d 61 70 5b 69 6e 74 36 34 5d 69 6e 74  ..*map[int64]int
	0x0010 36 34                                            64
type:*map[int64]int64<0> SRODATA dupok size=56
	0x0000 08 00 00 00 00 00 00 00 08 00 00 00 00 00 00 00  ................
	0x0010 0e bf 71 99 08 08 08 36 00 00 00 00 00 00 00 00  ..q....6........
	0x0020 00 00 00 00 00 00 00 00 00 00 00 00 00 00 00 00  ................
	0x0030 00 00 00 00 00 00 00 00                          ........
	rel 24+8 t=R_ADDR runtime.memequal64·f<0>+0
	rel 32+8 t=R_ADDR runtime.gcbits.0100000000000000<0>+0
	rel 40+4 t=R_ADDROFF type:.namedata.*map[int64]int64-<0>+0
	rel 48+8 t=R_ADDR type:map[int64]int64<0>+0
type:.namedata.*map.bucket[int64]int64-<0> SRODATA dupok size=25
	0x0000 00 17 2a 6d 61 70 2e 62 75 63 6b 65 74 5b 69 6e  ..*map.bucket[in
	0x0010 74 36 34 5d 69 6e 74 36 34                       t64]int64
type:*map.bucket[int64]int64<0> SRODATA dupok size=56
	0x0000 08 00 00 00 00 00 00 00 08 00 00 00 00 00 00 00  ................
	0x0010 02 86 cf 5c 08 08 08 36 00 00 00 00 00 00 00 00  ...\...6........
	0x0020 00 00 00 00 00 00 00 00 00 00 00 00 00 00 00 00  ................
	0x0030 00 00 00 00 00 00 00 00                          ........
	rel 24+8 t=R_ADDR runtime.memequal64·f<0>+0
	rel 32+8 t=R_ADDR runtime.gcbits.0100000000000000<0>+0
	rel 40+4 t=R_ADDROFF type:.namedata.*map.bucket[int64]int64-<0>+0
	rel 48+8 t=R_ADDR type:noalg.map.bucket[int64]int64<0>+0
type:noalg.map.bucket[int64]int64<0> SRODATA dupok size=176
	0x0000 90 00 00 00 00 00 00 00 00 00 00 00 00 00 00 00  ................
	0x0010 b9 1b 74 68 02 08 08 19 00 00 00 00 00 00 00 00  ..th............
	0x0020 00 00 00 00 00 00 00 00 00 00 00 00 00 00 00 00  ................
	0x0030 00 00 00 00 00 00 00 00 00 00 00 00 00 00 00 00  ................
	0x0040 04 00 00 00 00 00 00 00 04 00 00 00 00 00 00 00  ................
	0x0050 00 00 00 00 00 00 00 00 00 00 00 00 00 00 00 00  ................
	0x0060 00 00 00 00 00 00 00 00 00 00 00 00 00 00 00 00  ................
	0x0070 00 00 00 00 00 00 00 00 08 00 00 00 00 00 00 00  ................
	0x0080 00 00 00 00 00 00 00 00 00 00 00 00 00 00 00 00  ................
	0x0090 48 00 00 00 00 00 00 00 00 00 00 00 00 00 00 00  H...............
	0x00a0 00 00 00 00 00 00 00 00 88 00 00 00 00 00 00 00  ................
	rel 32+8 t=R_ADDR runtime.gcbits.<0>+0
	rel 40+4 t=R_ADDROFF type:.namedata.*map.bucket[int64]int64-<0>+0
	rel 44+4 t=RelocType(-32763) type:*map.bucket[int64]int64<0>+0
	rel 48+8 t=R_ADDR type:.importpath..<0>+0
	rel 56+8 t=R_ADDR type:noalg.map.bucket[int64]int64<0>+80
	rel 80+8 t=R_ADDR type:.namedata.topbits-<0>+0
	rel 88+8 t=R_ADDR type:[8]uint8<0>+0
	rel 104+8 t=R_ADDR type:.namedata.keys-<0>+0
	rel 112+8 t=R_ADDR type:noalg.[8]int64<0>+0
	rel 128+8 t=R_ADDR type:.namedata.elems-<0>+0
	rel 136+8 t=R_ADDR type:noalg.[8]int64<0>+0
	rel 152+8 t=R_ADDR type:.namedata.overflow-<0>+0
	rel 160+8 t=R_ADDR type:uintptr<0>+0
type:map[int64]int64<0> SRODATA dupok size=88
	0x0000 08 00 00 00 00 00 00 00 08 00 00 00 00 00 00 00  ................
	0x0010 3d ad 24 d6 02 08 08 35 00 00 00 00 00 00 00 00  =.$....5........
	0x0020 00 00 00 00 00 00 00 00 00 00 00 00 00 00 00 00  ................
	0x0030 00 00 00 00 00 00 00 00 00 00 00 00 00 00 00 00  ................
	0x0040 00 00 00 00 00 00 00 00 00 00 00 00 00 00 00 00  ................
	0x0050 08 08 90 00 04 00 00 00                          ........
	rel 32+8 t=R_ADDR runtime.gcbits.0100000000000000<0>+0
	rel 40+4 t=R_ADDROFF type:.namedata.*map[int64]int64-<0>+0
	rel 44+4 t=RelocType(-32763) type:*map[int64]int64<0>+0
	rel 48+8 t=R_ADDR type:int64<0>+0
	rel 56+8 t=R_ADDR type:int64<0>+0
	rel 64+8 t=R_ADDR type:noalg.map.bucket[int64]int64<0>+0
	rel 72+8 t=R_ADDR runtime.memhash64·f<0>+0
type:.namedata.*map[int8][]int8-<0> SRODATA dupok size=18
	0x0000 00 10 2a 6d 61 70 5b 69 6e 74 38 5d 5b 5d 69 6e  ..*map[int8][]in
	0x0010 74 38                                            t8
type:*map[int8][]int8<0> SRODATA dupok size=56
	0x0000 08 00 00 00 00 00 00 00 08 00 00 00 00 00 00 00  ................
	0x0010 f5 97 db a4 08 08 08 36 00 00 00 00 00 00 00 00  .......6........
	0x0020 00 00 00 00 00 00 00 00 00 00 00 00 00 00 00 00  ................
	0x0030 00 00 00 00 00 00 00 00                          ........
	rel 24+8 t=R_ADDR runtime.memequal64·f<0>+0
	rel 32+8 t=R_ADDR runtime.gcbits.0100000000000000<0>+0
	rel 40+4 t=R_ADDROFF type:.namedata.*map[int8][]int8-<0>+0
	rel 48+8 t=R_ADDR type:map[int8][]int8<0>+0
type:.namedata.*map.bucket[int8][]int8-<0> SRODATA dupok size=25
	0x0000 00 17 2a 6d 61 70 2e 62 75 63 6b 65 74 5b 69 6e  ..*map.bucket[in
	0x0010 74 38 5d 5b 5d 69 6e 74 38                       t8][]int8
type:*map.bucket[int8][]int8<0> SRODATA dupok size=56
	0x0000 08 00 00 00 00 00 00 00 08 00 00 00 00 00 00 00  ................
	0x0010 52 3d ba ac 08 08 08 36 00 00 00 00 00 00 00 00  R=.....6........
	0x0020 00 00 00 00 00 00 00 00 00 00 00 00 00 00 00 00  ................
	0x0030 00 00 00 00 00 00 00 00                          ........
	rel 24+8 t=R_ADDR runtime.memequal64·f<0>+0
	rel 32+8 t=R_ADDR runtime.gcbits.0100000000000000<0>+0
	rel 40+4 t=R_ADDROFF type:.namedata.*map.bucket[int8][]int8-<0>+0
	rel 48+8 t=R_ADDR type:noalg.map.bucket[int8][]int8<0>+0
runtime.gcbits.2449920400000000<0> SRODATA dupok size=8
	0x0000 24 49 92 04 00 00 00 00                          $I......
type:.namedata.*[8]int8-<0> SRODATA dupok size=10
	0x0000 00 08 2a 5b 38 5d 69 6e 74 38                    ..*[8]int8
type:*[8]int8<0> SRODATA dupok size=56
	0x0000 08 00 00 00 00 00 00 00 08 00 00 00 00 00 00 00  ................
	0x0010 29 a4 12 3f 08 08 08 36 00 00 00 00 00 00 00 00  )..?...6........
	0x0020 00 00 00 00 00 00 00 00 00 00 00 00 00 00 00 00  ................
	0x0030 00 00 00 00 00 00 00 00                          ........
	rel 24+8 t=R_ADDR runtime.memequal64·f<0>+0
	rel 32+8 t=R_ADDR runtime.gcbits.0100000000000000<0>+0
	rel 40+4 t=R_ADDROFF type:.namedata.*[8]int8-<0>+0
	rel 48+8 t=R_ADDR type:noalg.[8]int8<0>+0
type:noalg.[8]int8<0> SRODATA dupok size=72
	0x0000 08 00 00 00 00 00 00 00 00 00 00 00 00 00 00 00  ................
	0x0010 b2 e3 cc 22 02 01 01 11 00 00 00 00 00 00 00 00  ..."............
	0x0020 00 00 00 00 00 00 00 00 00 00 00 00 00 00 00 00  ................
	0x0030 00 00 00 00 00 00 00 00 00 00 00 00 00 00 00 00  ................
	0x0040 08 00 00 00 00 00 00 00                          ........
	rel 32+8 t=R_ADDR runtime.gcbits.<0>+0
	rel 40+4 t=R_ADDROFF type:.namedata.*[8]int8-<0>+0
	rel 44+4 t=RelocType(-32763) type:*[8]int8<0>+0
	rel 48+8 t=R_ADDR type:int8<0>+0
	rel 56+8 t=R_ADDR type:[]int8<0>+0
type:.namedata.*[8][]int8-<0> SRODATA dupok size=12
	0x0000 00 0a 2a 5b 38 5d 5b 5d 69 6e 74 38              ..*[8][]int8
type:*[8][]int8<0> SRODATA dupok size=56
	0x0000 08 00 00 00 00 00 00 00 08 00 00 00 00 00 00 00  ................
	0x0010 0e 8d 87 4e 08 08 08 36 00 00 00 00 00 00 00 00  ...N...6........
	0x0020 00 00 00 00 00 00 00 00 00 00 00 00 00 00 00 00  ................
	0x0030 00 00 00 00 00 00 00 00                          ........
	rel 24+8 t=R_ADDR runtime.memequal64·f<0>+0
	rel 32+8 t=R_ADDR runtime.gcbits.0100000000000000<0>+0
	rel 40+4 t=R_ADDROFF type:.namedata.*[8][]int8-<0>+0
	rel 48+8 t=R_ADDR type:noalg.[8][]int8<0>+0
type:.namedata.*[][]int8-<0> SRODATA dupok size=11
	0x0000 00 09 2a 5b 5d 5b 5d 69 6e 74 38                 ..*[][]int8
type:*[][]int8<0> SRODATA dupok size=56
	0x0000 08 00 00 00 00 00 00 00 08 00 00 00 00 00 00 00  ................
	0x0010 d0 8a e6 59 08 08 08 36 00 00 00 00 00 00 00 00  ...Y...6........
	0x0020 00 00 00 00 00 00 00 00 00 00 00 00 00 00 00 00  ................
	0x0030 00 00 00 00 00 00 00 00                          ........
	rel 24+8 t=R_ADDR runtime.memequal64·f<0>+0
	rel 32+8 t=R_ADDR runtime.gcbits.0100000000000000<0>+0
	rel 40+4 t=R_ADDROFF type:.namedata.*[][]int8-<0>+0
	rel 48+8 t=R_ADDR type:[][]int8<0>+0
type:[][]int8<0> SRODATA dupok size=56
	0x0000 18 00 00 00 00 00 00 00 08 00 00 00 00 00 00 00  ................
	0x0010 af 0c c5 44 02 08 08 17 00 00 00 00 00 00 00 00  ...D............
	0x0020 00 00 00 00 00 00 00 00 00 00 00 00 00 00 00 00  ................
	0x0030 00 00 00 00 00 00 00 00                          ........
	rel 32+8 t=R_ADDR runtime.gcbits.0100000000000000<0>+0
	rel 40+4 t=R_ADDROFF type:.namedata.*[][]int8-<0>+0
	rel 44+4 t=RelocType(-32763) type:*[][]int8<0>+0
	rel 48+8 t=R_ADDR type:[]int8<0>+0
type:noalg.[8][]int8<0> SRODATA dupok size=72
	0x0000 c0 00 00 00 00 00 00 00 b0 00 00 00 00 00 00 00  ................
	0x0010 7c 30 e0 99 02 08 08 11 00 00 00 00 00 00 00 00  |0..............
	0x0020 00 00 00 00 00 00 00 00 00 00 00 00 00 00 00 00  ................
	0x0030 00 00 00 00 00 00 00 00 00 00 00 00 00 00 00 00  ................
	0x0040 08 00 00 00 00 00 00 00                          ........
	rel 32+8 t=R_ADDR runtime.gcbits.4992240000000000<0>+0
	rel 40+4 t=R_ADDROFF type:.namedata.*[8][]int8-<0>+0
	rel 44+4 t=RelocType(-32763) type:*[8][]int8<0>+0
	rel 48+8 t=R_ADDR type:[]int8<0>+0
	rel 56+8 t=R_ADDR type:[][]int8<0>+0
type:noalg.map.bucket[int8][]int8<0> SRODATA dupok size=176
	0x0000 d8 00 00 00 00 00 00 00 d8 00 00 00 00 00 00 00  ................
	0x0010 59 ee 0b db 02 08 08 19 00 00 00 00 00 00 00 00  Y...............
	0x0020 00 00 00 00 00 00 00 00 00 00 00 00 00 00 00 00  ................
	0x0030 00 00 00 00 00 00 00 00 00 00 00 00 00 00 00 00  ................
	0x0040 04 00 00 00 00 00 00 00 04 00 00 00 00 00 00 00  ................
	0x0050 00 00 00 00 00 00 00 00 00 00 00 00 00 00 00 00  ................
	0x0060 00 00 00 00 00 00 00 00 00 00 00 00 00 00 00 00  ................
	0x0070 00 00 00 00 00 00 00 00 08 00 00 00 00 00 00 00  ................
	0x0080 00 00 00 00 00 00 00 00 00 00 00 00 00 00 00 00  ................
	0x0090 10 00 00 00 00 00 00 00 00 00 00 00 00 00 00 00  ................
	0x00a0 00 00 00 00 00 00 00 00 d0 00 00 00 00 00 00 00  ................
	rel 32+8 t=R_ADDR runtime.gcbits.2449920400000000<0>+0
	rel 40+4 t=R_ADDROFF type:.namedata.*map.bucket[int8][]int8-<0>+0
	rel 44+4 t=RelocType(-32763) type:*map.bucket[int8][]int8<0>+0
	rel 48+8 t=R_ADDR type:.importpath..<0>+0
	rel 56+8 t=R_ADDR type:noalg.map.bucket[int8][]int8<0>+80
	rel 80+8 t=R_ADDR type:.namedata.topbits-<0>+0
	rel 88+8 t=R_ADDR type:[8]uint8<0>+0
	rel 104+8 t=R_ADDR type:.namedata.keys-<0>+0
	rel 112+8 t=R_ADDR type:noalg.[8]int8<0>+0
	rel 128+8 t=R_ADDR type:.namedata.elems-<0>+0
	rel 136+8 t=R_ADDR type:noalg.[8][]int8<0>+0
	rel 152+8 t=R_ADDR type:.namedata.overflow-<0>+0
	rel 160+8 t=R_ADDR type:unsafe.Pointer<0>+0
runtime.memhash8·f<0> SRODATA dupok size=8
	0x0000 00 00 00 00 00 00 00 00                          ........
	rel 0+8 t=R_ADDR runtime.memhash8<1>+0
type:map[int8][]int8<0> SRODATA dupok size=88
	0x0000 08 00 00 00 00 00 00 00 08 00 00 00 00 00 00 00  ................
	0x0010 ac a5 3c 63 02 08 08 35 00 00 00 00 00 00 00 00  ..<c...5........
	0x0020 00 00 00 00 00 00 00 00 00 00 00 00 00 00 00 00  ................
	0x0030 00 00 00 00 00 00 00 00 00 00 00 00 00 00 00 00  ................
	0x0040 00 00 00 00 00 00 00 00 00 00 00 00 00 00 00 00  ................
	0x0050 01 18 d8 00 04 00 00 00                          ........
	rel 32+8 t=R_ADDR runtime.gcbits.0100000000000000<0>+0
	rel 40+4 t=R_ADDROFF type:.namedata.*map[int8][]int8-<0>+0
	rel 44+4 t=RelocType(-32763) type:*map[int8][]int8<0>+0
	rel 48+8 t=R_ADDR type:int8<0>+0
	rel 56+8 t=R_ADDR type:[]int8<0>+0
	rel 64+8 t=R_ADDR type:noalg.map.bucket[int8][]int8<0>+0
	rel 72+8 t=R_ADDR runtime.memhash8·f<0>+0
type:.namedata.*map[int8]int8-<0> SRODATA dupok size=16
	0x0000 00 0e 2a 6d 61 70 5b 69 6e 74 38 5d 69 6e 74 38  ..*map[int8]int8
type:*map[int8]int8<0> SRODATA dupok size=56
	0x0000 08 00 00 00 00 00 00 00 08 00 00 00 00 00 00 00  ................
	0x0010 cb 33 0c 33 08 08 08 36 00 00 00 00 00 00 00 00  .3.3...6........
	0x0020 00 00 00 00 00 00 00 00 00 00 00 00 00 00 00 00  ................
	0x0030 00 00 00 00 00 00 00 00                          ........
	rel 24+8 t=R_ADDR runtime.memequal64·f<0>+0
	rel 32+8 t=R_ADDR runtime.gcbits.0100000000000000<0>+0
	rel 40+4 t=R_ADDROFF type:.namedata.*map[int8]int8-<0>+0
	rel 48+8 t=R_ADDR type:map[int8]int8<0>+0
type:.namedata.*map.bucket[int8]int8-<0> SRODATA dupok size=23
	0x0000 00 15 2a 6d 61 70 2e 62 75 63 6b 65 74 5b 69 6e  ..*map.bucket[in
	0x0010 74 38 5d 69 6e 74 38                             t8]int8
type:*map.bucket[int8]int8<0> SRODATA dupok size=56
	0x0000 08 00 00 00 00 00 00 00 08 00 00 00 00 00 00 00  ................
	0x0010 8a e5 3c 88 08 08 08 36 00 00 00 00 00 00 00 00  ..<....6........
	0x0020 00 00 00 00 00 00 00 00 00 00 00 00 00 00 00 00  ................
	0x0030 00 00 00 00 00 00 00 00                          ........
	rel 24+8 t=R_ADDR runtime.memequal64·f<0>+0
	rel 32+8 t=R_ADDR runtime.gcbits.0100000000000000<0>+0
	rel 40+4 t=R_ADDROFF type:.namedata.*map.bucket[int8]int8-<0>+0
	rel 48+8 t=R_ADDR type:noalg.map.bucket[int8]int8<0>+0
type:noalg.map.bucket[int8]int8<0> SRODATA dupok size=176
	0x0000 20 00 00 00 00 00 00 00 00 00 00 00 00 00 00 00   ...............
	0x0010 d8 c3 eb 64 02 08 08 19 00 00 00 00 00 00 00 00  ...d............
	0x0020 00 00 00 00 00 00 00 00 00 00 00 00 00 00 00 00  ................
	0x0030 00 00 00 00 00 00 00 00 00 00 00 00 00 00 00 00  ................
	0x0040 04 00 00 00 00 00 00 00 04 00 00 00 00 00 00 00  ................
	0x0050 00 00 00 00 00 00 00 00 00 00 00 00 00 00 00 00  ................
	0x0060 00 00 00 00 00 00 00 00 00 00 00 00 00 00 00 00  ................
	0x0070 00 00 00 00 00 00 00 00 08 00 00 00 00 00 00 00  ................
	0x0080 00 00 00 00 00 00 00 00 00 00 00 00 00 00 00 00  ................
	0x0090 10 00 00 00 00 00 00 00 00 00 00 00 00 00 00 00  ................
	0x00a0 00 00 00 00 00 00 00 00 18 00 00 00 00 00 00 00  ................
	rel 32+8 t=R_ADDR runtime.gcbits.<0>+0
	rel 40+4 t=R_ADDROFF type:.namedata.*map.bucket[int8]int8-<0>+0
	rel 44+4 t=RelocType(-32763) type:*map.bucket[int8]int8<0>+0
	rel 48+8 t=R_ADDR type:.importpath..<0>+0
	rel 56+8 t=R_ADDR type:noalg.map.bucket[int8]int8<0>+80
	rel 80+8 t=R_ADDR type:.namedata.topbits-<0>+0
	rel 88+8 t=R_ADDR type:[8]uint8<0>+0
	rel 104+8 t=R_ADDR type:.namedata.keys-<0>+0
	rel 112+8 t=R_ADDR type:noalg.[8]int8<0>+0
	rel 128+8 t=R_ADDR type:.namedata.elems-<0>+0
	rel 136+8 t=R_ADDR type:noalg.[8]int8<0>+0
	rel 152+8 t=R_ADDR type:.namedata.overflow-<0>+0
	rel 160+8 t=R_ADDR type:uintptr<0>+0
type:map[int8]int8<0> SRODATA dupok size=88
	0x0000 08 00 00 00 00 00 00 00 08 00 00 00 00 00 00 00  ................
	0x0010 31 e7 19 b5 02 08 08 35 00 00 00 00 00 00 00 00  1......5........
	0x0020 00 00 00 00 00 00 00 00 00 00 00 00 00 00 00 00  ................
	0x0030 00 00 00 00 00 00 00 00 00 00 00 00 00 00 00 00  ................
	0x0040 00 00 00 00 00 00 00 00 00 00 00 00 00 00 00 00  ................
	0x0050 01 01 20 00 04 00 00 00                          .. .....
	rel 32+8 t=R_ADDR runtime.gcbits.0100000000000000<0>+0
	rel 40+4 t=R_ADDROFF type:.namedata.*map[int8]int8-<0>+0
	rel 44+4 t=RelocType(-32763) type:*map[int8]int8<0>+0
	rel 48+8 t=R_ADDR type:int8<0>+0
	rel 56+8 t=R_ADDR type:int8<0>+0
	rel 64+8 t=R_ADDR type:noalg.map.bucket[int8]int8<0>+0
	rel 72+8 t=R_ADDR runtime.memhash8·f<0>+0
type:.namedata.*map[string][]string-<0> SRODATA dupok size=22
	0x0000 00 14 2a 6d 61 70 5b 73 74 72 69 6e 67 5d 5b 5d  ..*map[string][]
	0x0010 73 74 72 69 6e 67                                string
type:*map[string][]string<0> SRODATA dupok size=56
	0x0000 08 00 00 00 00 00 00 00 08 00 00 00 00 00 00 00  ................
	0x0010 7f a2 2c d1 08 08 08 36 00 00 00 00 00 00 00 00  ..,....6........
	0x0020 00 00 00 00 00 00 00 00 00 00 00 00 00 00 00 00  ................
	0x0030 00 00 00 00 00 00 00 00                          ........
	rel 24+8 t=R_ADDR runtime.memequal64·f<0>+0
	rel 32+8 t=R_ADDR runtime.gcbits.0100000000000000<0>+0
	rel 40+4 t=R_ADDROFF type:.namedata.*map[string][]string-<0>+0
	rel 48+8 t=R_ADDR type:map[string][]string<0>+0
type:.namedata.*map.bucket[string][]string-<0> SRODATA dupok size=29
	0x0000 00 1b 2a 6d 61 70 2e 62 75 63 6b 65 74 5b 73 74  ..*map.bucket[st
	0x0010 72 69 6e 67 5d 5b 5d 73 74 72 69 6e 67           ring][]string
type:*map.bucket[string][]string<0> SRODATA dupok size=56
	0x0000 08 00 00 00 00 00 00 00 08 00 00 00 00 00 00 00  ................
	0x0010 94 ad 0c ff 08 08 08 36 00 00 00 00 00 00 00 00  .......6........
	0x0020 00 00 00 00 00 00 00 00 00 00 00 00 00 00 00 00  ................
	0x0030 00 00 00 00 00 00 00 00                          ........
	rel 24+8 t=R_ADDR runtime.memequal64·f<0>+0
	rel 32+8 t=R_ADDR runtime.gcbits.0100000000000000<0>+0
	rel 40+4 t=R_ADDROFF type:.namedata.*map.bucket[string][]string-<0>+0
	rel 48+8 t=R_ADDR type:noalg.map.bucket[string][]string<0>+0
runtime.gcbits.aaaa922449020000<0> SRODATA dupok size=8
	0x0000 aa aa 92 24 49 02 00 00                          ...$I...
type:.namedata.*[8]string-<0> SRODATA dupok size=12
	0x0000 00 0a 2a 5b 38 5d 73 74 72 69 6e 67              ..*[8]string
type:*[8]string<0> SRODATA dupok size=56
	0x0000 08 00 00 00 00 00 00 00 08 00 00 00 00 00 00 00  ................
	0x0010 e3 bf d7 63 08 08 08 36 00 00 00 00 00 00 00 00  ...c...6........
	0x0020 00 00 00 00 00 00 00 00 00 00 00 00 00 00 00 00  ................
	0x0030 00 00 00 00 00 00 00 00                          ........
	rel 24+8 t=R_ADDR runtime.memequal64·f<0>+0
	rel 32+8 t=R_ADDR runtime.gcbits.0100000000000000<0>+0
	rel 40+4 t=R_ADDROFF type:.namedata.*[8]string-<0>+0
	rel 48+8 t=R_ADDR type:noalg.[8]string<0>+0
runtime.gcbits.5555000000000000<0> SRODATA dupok size=8
	0x0000 55 55 00 00 00 00 00 00                          UU......
type:noalg.[8]string<0> SRODATA dupok size=72
	0x0000 80 00 00 00 00 00 00 00 78 00 00 00 00 00 00 00  ........x.......
	0x0010 0c 1c ff 04 02 08 08 11 00 00 00 00 00 00 00 00  ................
	0x0020 00 00 00 00 00 00 00 00 00 00 00 00 00 00 00 00  ................
	0x0030 00 00 00 00 00 00 00 00 00 00 00 00 00 00 00 00  ................
	0x0040 08 00 00 00 00 00 00 00                          ........
	rel 32+8 t=R_ADDR runtime.gcbits.5555000000000000<0>+0
	rel 40+4 t=R_ADDROFF type:.namedata.*[8]string-<0>+0
	rel 44+4 t=RelocType(-32763) type:*[8]string<0>+0
	rel 48+8 t=R_ADDR type:string<0>+0
	rel 56+8 t=R_ADDR type:[]string<0>+0
type:.namedata.*[8][]string-<0> SRODATA dupok size=14
	0x0000 00 0c 2a 5b 38 5d 5b 5d 73 74 72 69 6e 67        ..*[8][]string
type:*[8][]string<0> SRODATA dupok size=56
	0x0000 08 00 00 00 00 00 00 00 08 00 00 00 00 00 00 00  ................
	0x0010 16 f3 0b bf 08 08 08 36 00 00 00 00 00 00 00 00  .......6........
	0x0020 00 00 00 00 00 00 00 00 00 00 00 00 00 00 00 00  ................
	0x0030 00 00 00 00 00 00 00 00                          ........
	rel 24+8 t=R_ADDR runtime.memequal64·f<0>+0
	rel 32+8 t=R_ADDR runtime.gcbits.0100000000000000<0>+0
	rel 40+4 t=R_ADDROFF type:.namedata.*[8][]string-<0>+0
	rel 48+8 t=R_ADDR type:noalg.[8][]string<0>+0
type:.namedata.*[][]string-<0> SRODATA dupok size=13
	0x0000 00 0b 2a 5b 5d 5b 5d 73 74 72 69 6e 67           ..*[][]string
type:*[][]string<0> SRODATA dupok size=56
	0x0000 08 00 00 00 00 00 00 00 08 00 00 00 00 00 00 00  ................
	0x0010 d3 48 0f da 08 08 08 36 00 00 00 00 00 00 00 00  .H.....6........
	0x0020 00 00 00 00 00 00 00 00 00 00 00 00 00 00 00 00  ................
	0x0030 00 00 00 00 00 00 00 00                          ........
	rel 24+8 t=R_ADDR runtime.memequal64·f<0>+0
	rel 32+8 t=R_ADDR runtime.gcbits.0100000000000000<0>+0
	rel 40+4 t=R_ADDROFF type:.namedata.*[][]string-<0>+0
	rel 48+8 t=R_ADDR type:[][]string<0>+0
type:[][]string<0> SRODATA dupok size=56
	0x0000 18 00 00 00 00 00 00 00 08 00 00 00 00 00 00 00  ................
	0x0010 44 22 2e 62 02 08 08 17 00 00 00 00 00 00 00 00  D".b............
	0x0020 00 00 00 00 00 00 00 00 00 00 00 00 00 00 00 00  ................
	0x0030 00 00 00 00 00 00 00 00                          ........
	rel 32+8 t=R_ADDR runtime.gcbits.0100000000000000<0>+0
	rel 40+4 t=R_ADDROFF type:.namedata.*[][]string-<0>+0
	rel 44+4 t=RelocType(-32763) type:*[][]string<0>+0
	rel 48+8 t=R_ADDR type:[]string<0>+0
type:noalg.[8][]string<0> SRODATA dupok size=72
	0x0000 c0 00 00 00 00 00 00 00 b0 00 00 00 00 00 00 00  ................
	0x0010 3b 07 0b 1c 02 08 08 11 00 00 00 00 00 00 00 00  ;...............
	0x0020 00 00 00 00 00 00 00 00 00 00 00 00 00 00 00 00  ................
	0x0030 00 00 00 00 00 00 00 00 00 00 00 00 00 00 00 00  ................
	0x0040 08 00 00 00 00 00 00 00                          ........
	rel 32+8 t=R_ADDR runtime.gcbits.4992240000000000<0>+0
	rel 40+4 t=R_ADDROFF type:.namedata.*[8][]string-<0>+0
	rel 44+4 t=RelocType(-32763) type:*[8][]string<0>+0
	rel 48+8 t=R_ADDR type:[]string<0>+0
	rel 56+8 t=R_ADDR type:[][]string<0>+0
type:noalg.map.bucket[string][]string<0> SRODATA dupok size=176
	0x0000 50 01 00 00 00 00 00 00 50 01 00 00 00 00 00 00  P.......P.......
	0x0010 28 87 60 f0 02 08 08 19 00 00 00 00 00 00 00 00  (.`.............
	0x0020 00 00 00 00 00 00 00 00 00 00 00 00 00 00 00 00  ................
	0x0030 00 00 00 00 00 00 00 00 00 00 00 00 00 00 00 00  ................
	0x0040 04 00 00 00 00 00 00 00 04 00 00 00 00 00 00 00  ................
	0x0050 00 00 00 00 00 00 00 00 00 00 00 00 00 00 00 00  ................
	0x0060 00 00 00 00 00 00 00 00 00 00 00 00 00 00 00 00  ................
	0x0070 00 00 00 00 00 00 00 00 08 00 00 00 00 00 00 00  ................
	0x0080 00 00 00 00 00 00 00 00 00 00 00 00 00 00 00 00  ................
	0x0090 88 00 00 00 00 00 00 00 00 00 00 00 00 00 00 00  ................
	0x00a0 00 00 00 00 00 00 00 00 48 01 00 00 00 00 00 00  ........H.......
	rel 32+8 t=R_ADDR runtime.gcbits.aaaa922449020000<0>+0
	rel 40+4 t=R_ADDROFF type:.namedata.*map.bucket[string][]string-<0>+0
	rel 44+4 t=RelocType(-32763) type:*map.bucket[string][]string<0>+0
	rel 48+8 t=R_ADDR type:.importpath..<0>+0
	rel 56+8 t=R_ADDR type:noalg.map.bucket[string][]string<0>+80
	rel 80+8 t=R_ADDR type:.namedata.topbits-<0>+0
	rel 88+8 t=R_ADDR type:[8]uint8<0>+0
	rel 104+8 t=R_ADDR type:.namedata.keys-<0>+0
	rel 112+8 t=R_ADDR type:noalg.[8]string<0>+0
	rel 128+8 t=R_ADDR type:.namedata.elems-<0>+0
	rel 136+8 t=R_ADDR type:noalg.[8][]string<0>+0
	rel 152+8 t=R_ADDR type:.namedata.overflow-<0>+0
	rel 160+8 t=R_ADDR type:unsafe.Pointer<0>+0
runtime.strhash·f<0> SRODATA dupok size=8
	0x0000 00 00 00 00 00 00 00 00                          ........
	rel 0+8 t=R_ADDR runtime.strhash<1>+0
type:map[string][]string<0> SRODATA dupok size=88
	0x0000 08 00 00 00 00 00 00 00 08 00 00 00 00 00 00 00  ................
	0x0010 3b 6c 42 47 02 08 08 35 00 00 00 00 00 00 00 00  ;lBG...5........
	0x0020 00 00 00 00 00 00 00 00 00 00 00 00 00 00 00 00  ................
	0x0030 00 00 00 00 00 00 00 00 00 00 00 00 00 00 00 00  ................
	0x0040 00 00 00 00 00 00 00 00 00 00 00 00 00 00 00 00  ................
	0x0050 10 18 50 01 0c 00 00 00                          ..P.....
	rel 32+8 t=R_ADDR runtime.gcbits.0100000000000000<0>+0
	rel 40+4 t=R_ADDROFF type:.namedata.*map[string][]string-<0>+0
	rel 44+4 t=RelocType(-32763) type:*map[string][]string<0>+0
	rel 48+8 t=R_ADDR type:string<0>+0
	rel 56+8 t=R_ADDR type:[]string<0>+0
	rel 64+8 t=R_ADDR type:noalg.map.bucket[string][]string<0>+0
	rel 72+8 t=R_ADDR runtime.strhash·f<0>+0
type:.namedata.*map[string]string-<0> SRODATA dupok size=20
	0x0000 00 12 2a 6d 61 70 5b 73 74 72 69 6e 67 5d 73 74  ..*map[string]st
	0x0010 72 69 6e 67                                      ring
type:*map[string]string<0> SRODATA dupok size=56
	0x0000 08 00 00 00 00 00 00 00 08 00 00 00 00 00 00 00  ................
	0x0010 d8 6c ad 45 08 08 08 36 00 00 00 00 00 00 00 00  .l.E...6........
	0x0020 00 00 00 00 00 00 00 00 00 00 00 00 00 00 00 00  ................
	0x0030 00 00 00 00 00 00 00 00                          ........
	rel 24+8 t=R_ADDR runtime.memequal64·f<0>+0
	rel 32+8 t=R_ADDR runtime.gcbits.0100000000000000<0>+0
	rel 40+4 t=R_ADDROFF type:.namedata.*map[string]string-<0>+0
	rel 48+8 t=R_ADDR type:map[string]string<0>+0
type:.namedata.*map.bucket[string]string-<0> SRODATA dupok size=27
	0x0000 00 19 2a 6d 61 70 2e 62 75 63 6b 65 74 5b 73 74  ..*map.bucket[st
	0x0010 72 69 6e 67 5d 73 74 72 69 6e 67                 ring]string
type:*map.bucket[string]string<0> SRODATA dupok size=56
	0x0000 08 00 00 00 00 00 00 00 08 00 00 00 00 00 00 00  ................
	0x0010 40 92 79 ff 08 08 08 36 00 00 00 00 00 00 00 00  @.y....6........
	0x0020 00 00 00 00 00 00 00 00 00 00 00 00 00 00 00 00  ................
	0x0030 00 00 00 00 00 00 00 00                          ........
	rel 24+8 t=R_ADDR runtime.memequal64·f<0>+0
	rel 32+8 t=R_ADDR runtime.gcbits.0100000000000000<0>+0
	rel 40+4 t=R_ADDROFF type:.namedata.*map.bucket[string]string-<0>+0
	rel 48+8 t=R_ADDR type:noalg.map.bucket[string]string<0>+0
runtime.gcbits.aaaaaaaa02000000<0> SRODATA dupok size=8
	0x0000 aa aa aa aa 02 00 00 00                          ........
type:noalg.map.bucket[string]string<0> SRODATA dupok size=176
	0x0000 10 01 00 00 00 00 00 00 10 01 00 00 00 00 00 00  ................
	0x0010 4d c0 63 4d 02 08 08 19 00 00 00 00 00 00 00 00  M.cM............
	0x0020 00 00 00 00 00 00 00 00 00 00 00 00 00 00 00 00  ................
	0x0030 00 00 00 00 00 00 00 00 00 00 00 00 00 00 00 00  ................
	0x0040 04 00 00 00 00 00 00 00 04 00 00 00 00 00 00 00  ................
	0x0050 00 00 00 00 00 00 00 00 00 00 00 00 00 00 00 00  ................
	0x0060 00 00 00 00 00 00 00 00 00 00 00 00 00 00 00 00  ................
	0x0070 00 00 00 00 00 00 00 00 08 00 00 00 00 00 00 00  ................
	0x0080 00 00 00 00 00 00 00 00 00 00 00 00 00 00 00 00  ................
	0x0090 88 00 00 00 00 00 00 00 00 00 00 00 00 00 00 00  ................
	0x00a0 00 00 00 00 00 00 00 00 08 01 00 00 00 00 00 00  ................
	rel 32+8 t=R_ADDR runtime.gcbits.aaaaaaaa02000000<0>+0
	rel 40+4 t=R_ADDROFF type:.namedata.*map.bucket[string]string-<0>+0
	rel 44+4 t=RelocType(-32763) type:*map.bucket[string]string<0>+0
	rel 48+8 t=R_ADDR type:.importpath..<0>+0
	rel 56+8 t=R_ADDR type:noalg.map.bucket[string]string<0>+80
	rel 80+8 t=R_ADDR type:.namedata.topbits-<0>+0
	rel 88+8 t=R_ADDR type:[8]uint8<0>+0
	rel 104+8 t=R_ADDR type:.namedata.keys-<0>+0
	rel 112+8 t=R_ADDR type:noalg.[8]string<0>+0
	rel 128+8 t=R_ADDR type:.namedata.elems-<0>+0
	rel 136+8 t=R_ADDR type:noalg.[8]string<0>+0
	rel 152+8 t=R_ADDR type:.namedata.overflow-<0>+0
	rel 160+8 t=R_ADDR type:unsafe.Pointer<0>+0
type:map[string]string<0> SRODATA dupok size=88
	0x0000 08 00 00 00 00 00 00 00 08 00 00 00 00 00 00 00  ................
	0x0010 de 62 2b 92 02 08 08 35 00 00 00 00 00 00 00 00  .b+....5........
	0x0020 00 00 00 00 00 00 00 00 00 00 00 00 00 00 00 00  ................
	0x0030 00 00 00 00 00 00 00 00 00 00 00 00 00 00 00 00  ................
	0x0040 00 00 00 00 00 00 00 00 00 00 00 00 00 00 00 00  ................
	0x0050 10 10 10 01 0c 00 00 00                          ........
	rel 32+8 t=R_ADDR runtime.gcbits.0100000000000000<0>+0
	rel 40+4 t=R_ADDROFF type:.namedata.*map[string]string-<0>+0
	rel 44+4 t=RelocType(-32763) type:*map[string]string<0>+0
	rel 48+8 t=R_ADDR type:string<0>+0
	rel 56+8 t=R_ADDR type:string<0>+0
	rel 64+8 t=R_ADDR type:noalg.map.bucket[string]string<0>+0
	rel 72+8 t=R_ADDR runtime.strhash·f<0>+0
command-line-arguments.sinkAppend<0> SNOPTRBSS size=1
<0> SDWARFVAR size=50
	0x0000 0a 63 6f 6d 6d 61 6e 64 2d 6c 69 6e 65 2d 61 72  .command-line-ar
	0x0010 67 75 6d 65 6e 74 73 2e 73 69 6e 6b 41 70 70 65  guments.sinkAppe
	0x0020 6e 64 00 09 03 00 00 00 00 00 00 00 00 00 00 00  nd..............
	0x0030 00 01                                            ..
	rel 37+8 t=R_ADDR command-line-arguments.sinkAppend<0>+0
	rel 45+4 t=R_DWARFSECREF go:info.bool<0>+0
go:string."key"<0> SRODATA dupok size=3
	0x0000 6b 65 79                                         key
go:string."value"<0> SRODATA dupok size=5
	0x0000 76 61 6c 75 65                                   value
go:string."1"<0> SRODATA dupok size=1
	0x0000 31                                               1
go:string."2"<0> SRODATA dupok size=1
	0x0000 32                                               2
go:string."3"<0> SRODATA dupok size=1
	0x0000 33                                               3
go:string."7"<0> SRODATA dupok size=1
	0x0000 37                                               7
go:string."8"<0> SRODATA dupok size=1
	0x0000 38                                               8
go:string."9"<0> SRODATA dupok size=1
	0x0000 39                                               9
go:string."0"<0> SRODATA dupok size=1
	0x0000 30                                               0
go:string."99"<0> SRODATA dupok size=2
	0x0000 39 39                                            99
go:string."100"<0> SRODATA dupok size=3
	0x0000 31 30 30                                         100
type:.namedata.*[4]complex128-<0> SRODATA dupok size=16
	0x0000 00 0e 2a 5b 34 5d 63 6f 6d 70 6c 65 78 31 32 38  ..*[4]complex128
type:.eqfunc.[4]complex128<0> SRODATA dupok size=8
	0x0000 00 00 00 00 00 00 00 00                          ........
	rel 0+8 t=R_ADDR type:.eq.[4]complex128<1>+0
type:[4]complex128<0> SRODATA dupok size=72
	0x0000 40 00 00 00 00 00 00 00 00 00 00 00 00 00 00 00  @...............
	0x0010 a0 d9 2d 7c 02 08 08 11 00 00 00 00 00 00 00 00  ..-|............
	0x0020 00 00 00 00 00 00 00 00 00 00 00 00 00 00 00 00  ................
	0x0030 00 00 00 00 00 00 00 00 00 00 00 00 00 00 00 00  ................
	0x0040 04 00 00 00 00 00 00 00                          ........
	rel 24+8 t=R_ADDR type:.eqfunc.[4]complex128<0>+0
	rel 32+8 t=R_ADDR runtime.gcbits.<0>+0
	rel 40+4 t=R_ADDROFF type:.namedata.*[4]complex128-<0>+0
	rel 44+4 t=RelocType(-32763) type:*[4]complex128<0>+0
	rel 48+8 t=R_ADDR type:complex128<0>+0
	rel 56+8 t=R_ADDR type:[]complex128<0>+0
type:*[4]complex128<0> SRODATA dupok size=56
	0x0000 08 00 00 00 00 00 00 00 08 00 00 00 00 00 00 00  ................
	0x0010 7e fe a1 44 08 08 08 36 00 00 00 00 00 00 00 00  ~..D...6........
	0x0020 00 00 00 00 00 00 00 00 00 00 00 00 00 00 00 00  ................
	0x0030 00 00 00 00 00 00 00 00                          ........
	rel 24+8 t=R_ADDR runtime.memequal64·f<0>+0
	rel 32+8 t=R_ADDR runtime.gcbits.0100000000000000<0>+0
	rel 40+4 t=R_ADDROFF type:.namedata.*[4]complex128-<0>+0
	rel 48+8 t=R_ADDR type:[4]complex128<0>+0
type:.namedata.*[4]int32-<0> SRODATA dupok size=11
	0x0000 00 09 2a 5b 34 5d 69 6e 74 33 32                 ..*[4]int32
runtime.memequal128·f<0> SRODATA dupok size=8
	0x0000 00 00 00 00 00 00 00 00                          ........
	rel 0+8 t=R_ADDR runtime.memequal128<1>+0
type:[4]int32<0> SRODATA dupok size=72
	0x0000 10 00 00 00 00 00 00 00 00 00 00 00 00 00 00 00  ................
	0x0010 c1 59 f0 9d 0a 04 04 11 00 00 00 00 00 00 00 00  .Y..............
	0x0020 00 00 00 00 00 00 00 00 00 00 00 00 00 00 00 00  ................
	0x0030 00 00 00 00 00 00 00 00 00 00 00 00 00 00 00 00  ................
	0x0040 04 00 00 00 00 00 00 00                          ........
	rel 24+8 t=R_ADDR runtime.memequal128·f<0>+0
	rel 32+8 t=R_ADDR runtime.gcbits.<0>+0
	rel 40+4 t=R_ADDROFF type:.namedata.*[4]int32-<0>+0
	rel 44+4 t=RelocType(-32763) type:*[4]int32<0>+0
	rel 48+8 t=R_ADDR type:int32<0>+0
	rel 56+8 t=R_ADDR type:[]int32<0>+0
type:*[4]int32<0> SRODATA dupok size=56
	0x0000 08 00 00 00 00 00 00 00 08 00 00 00 00 00 00 00  ................
	0x0010 a0 f9 f0 06 08 08 08 36 00 00 00 00 00 00 00 00  .......6........
	0x0020 00 00 00 00 00 00 00 00 00 00 00 00 00 00 00 00  ................
	0x0030 00 00 00 00 00 00 00 00                          ........
	rel 24+8 t=R_ADDR runtime.memequal64·f<0>+0
	rel 32+8 t=R_ADDR runtime.gcbits.0100000000000000<0>+0
	rel 40+4 t=R_ADDROFF type:.namedata.*[4]int32-<0>+0
	rel 48+8 t=R_ADDR type:[4]int32<0>+0
type:.namedata.*[4]int64-<0> SRODATA dupok size=11
	0x0000 00 09 2a 5b 34 5d 69 6e 74 36 34                 ..*[4]int64
type:.eqfunc32<0> SRODATA dupok size=16
	0x0000 00 00 00 00 00 00 00 00 20 00 00 00 00 00 00 00  ........ .......
	rel 0+8 t=R_ADDR runtime.memequal_varlen<1>+0
type:[4]int64<0> SRODATA dupok size=72
	0x0000 20 00 00 00 00 00 00 00 00 00 00 00 00 00 00 00   ...............
	0x0010 df a4 d1 b2 0a 08 08 11 00 00 00 00 00 00 00 00  ................
	0x0020 00 00 00 00 00 00 00 00 00 00 00 00 00 00 00 00  ................
	0x0030 00 00 00 00 00 00 00 00 00 00 00 00 00 00 00 00  ................
	0x0040 04 00 00 00 00 00 00 00                          ........
	rel 24+8 t=R_ADDR type:.eqfunc32<0>+0
	rel 32+8 t=R_ADDR runtime.gcbits.<0>+0
	rel 40+4 t=R_ADDROFF type:.namedata.*[4]int64-<0>+0
	rel 44+4 t=RelocType(-32763) type:*[4]int64<0>+0
	rel 48+8 t=R_ADDR type:int64<0>+0
	rel 56+8 t=R_ADDR type:[]int64<0>+0
type:*[4]int64<0> SRODATA dupok size=56
	0x0000 08 00 00 00 00 00 00 00 08 00 00 00 00 00 00 00  ................
	0x0010 1d 6a 12 93 08 08 08 36 00 00 00 00 00 00 00 00  .j.....6........
	0x0020 00 00 00 00 00 00 00 00 00 00 00 00 00 00 00 00  ................
	0x0030 00 00 00 00 00 00 00 00                          ........
	rel 24+8 t=R_ADDR runtime.memequal64·f<0>+0
	rel 32+8 t=R_ADDR runtime.gcbits.0100000000000000<0>+0
	rel 40+4 t=R_ADDROFF type:.namedata.*[4]int64-<0>+0
	rel 48+8 t=R_ADDR type:[4]int64<0>+0
type:.namedata.*[4]int8-<0> SRODATA dupok size=10
	0x0000 00 08 2a 5b 34 5d 69 6e 74 38                    ..*[4]int8
runtime.memequal32·f<0> SRODATA dupok size=8
	0x0000 00 00 00 00 00 00 00 00                          ........
	rel 0+8 t=R_ADDR runtime.memequal32<1>+0
type:[4]int8<0> SRODATA dupok size=72
	0x0000 04 00 00 00 00 00 00 00 00 00 00 00 00 00 00 00  ................
	0x0010 22 5d 66 7f 0a 01 01 11 00 00 00 00 00 00 00 00  "]f.............
	0x0020 00 00 00 00 00 00 00 00 00 00 00 00 00 00 00 00  ................
	0x0030 00 00 00 00 00 00 00 00 00 00 00 00 00 00 00 00  ................
	0x0040 04 00 00 00 00 00 00 00                          ........
	rel 24+8 t=R_ADDR runtime.memequal32·f<0>+0
	rel 32+8 t=R_ADDR runtime.gcbits.<0>+0
	rel 40+4 t=R_ADDROFF type:.namedata.*[4]int8-<0>+0
	rel 44+4 t=RelocType(-32763) type:*[4]int8<0>+0
	rel 48+8 t=R_ADDR type:int8<0>+0
	rel 56+8 t=R_ADDR type:[]int8<0>+0
type:*[4]int8<0> SRODATA dupok size=56
	0x0000 08 00 00 00 00 00 00 00 08 00 00 00 00 00 00 00  ................
	0x0010 26 f5 bc e3 08 08 08 36 00 00 00 00 00 00 00 00  &......6........
	0x0020 00 00 00 00 00 00 00 00 00 00 00 00 00 00 00 00  ................
	0x0030 00 00 00 00 00 00 00 00                          ........
	rel 24+8 t=R_ADDR runtime.memequal64·f<0>+0
	rel 32+8 t=R_ADDR runtime.gcbits.0100000000000000<0>+0
	rel 40+4 t=R_ADDROFF type:.namedata.*[4]int8-<0>+0
	rel 48+8 t=R_ADDR type:[4]int8<0>+0
type:.namedata.*[4]string-<0> SRODATA dupok size=12
	0x0000 00 0a 2a 5b 34 5d 73 74 72 69 6e 67              ..*[4]string
type:.eqfunc.[4]string<0> SRODATA dupok size=8
	0x0000 00 00 00 00 00 00 00 00                          ........
	rel 0+8 t=R_ADDR type:.eq.[4]string<1>+0
runtime.gcbits.5500000000000000<0> SRODATA dupok size=8
	0x0000 55 00 00 00 00 00 00 00                          U.......
type:[4]string<0> SRODATA dupok size=72
	0x0000 40 00 00 00 00 00 00 00 38 00 00 00 00 00 00 00  @.......8.......
	0x0010 9e 41 ec 08 02 08 08 11 00 00 00 00 00 00 00 00  .A..............
	0x0020 00 00 00 00 00 00 00 00 00 00 00 00 00 00 00 00  ................
	0x0030 00 00 00 00 00 00 00 00 00 00 00 00 00 00 00 00  ................
	0x0040 04 00 00 00 00 00 00 00                          ........
	rel 24+8 t=R_ADDR type:.eqfunc.[4]string<0>+0
	rel 32+8 t=R_ADDR runtime.gcbits.5500000000000000<0>+0
	rel 40+4 t=R_ADDROFF type:.namedata.*[4]string-<0>+0
	rel 44+4 t=RelocType(-32763) type:*[4]string<0>+0
	rel 48+8 t=R_ADDR type:string<0>+0
	rel 56+8 t=R_ADDR type:[]string<0>+0
type:*[4]string<0> SRODATA dupok size=56
	0x0000 08 00 00 00 00 00 00 00 08 00 00 00 00 00 00 00  ................
	0x0010 72 41 95 a7 08 08 08 36 00 00 00 00 00 00 00 00  rA.....6........
	0x0020 00 00 00 00 00 00 00 00 00 00 00 00 00 00 00 00  ................
	0x0030 00 00 00 00 00 00 00 00                          ........
	rel 24+8 t=R_ADDR runtime.memequal64·f<0>+0
	rel 32+8 t=R_ADDR runtime.gcbits.0100000000000000<0>+0
	rel 40+4 t=R_ADDROFF type:.namedata.*[4]string-<0>+0
	rel 48+8 t=R_ADDR type:[4]string<0>+0
type:.namedata.*[]complex128-<0> SRODATA dupok size=15
	0x0000 00 0d 2a 5b 5d 63 6f 6d 70 6c 65 78 31 32 38     ..*[]complex128
type:*[]complex128<0> SRODATA dupok size=56
	0x0000 08 00 00 00 00 00 00 00 08 00 00 00 00 00 00 00  ................
	0x0010 f6 49 a6 7f 08 08 08 36 00 00 00 00 00 00 00 00  .I.....6........
	0x0020 00 00 00 00 00 00 00 00 00 00 00 00 00 00 00 00  ................
	0x0030 00 00 00 00 00 00 00 00                          ........
	rel 24+8 t=R_ADDR runtime.memequal64·f<0>+0
	rel 32+8 t=R_ADDR runtime.gcbits.0100000000000000<0>+0
	rel 40+4 t=R_ADDROFF type:.namedata.*[]complex128-<0>+0
	rel 48+8 t=R_ADDR type:[]complex128<0>+0
type:.namedata.*[]int32-<0> SRODATA dupok size=10
	0x0000 00 08 2a 5b 5d 69 6e 74 33 32                    ..*[]int32
type:*[]int32<0> SRODATA dupok size=56
	0x0000 08 00 00 00 00 00 00 00 08 00 00 00 00 00 00 00  ................
	0x0010 6d 26 30 dc 08 08 08 36 00 00 00 00 00 00 00 00  m&0....6........
	0x0020 00 00 00 00 00 00 00 00 00 00 00 00 00 00 00 00  ................
	0x0030 00 00 00 00 00 00 00 00                          ........
	rel 24+8 t=R_ADDR runtime.memequal64·f<0>+0
	rel 32+8 t=R_ADDR runtime.gcbits.0100000000000000<0>+0
	rel 40+4 t=R_ADDROFF type:.namedata.*[]int32-<0>+0
	rel 48+8 t=R_ADDR type:[]int32<0>+0
type:.namedata.*[]int64-<0> SRODATA dupok size=10
	0x0000 00 08 2a 5b 5d 69 6e 74 36 34                    ..*[]int64
type:*[]int64<0> SRODATA dupok size=56
	0x0000 08 00 00 00 00 00 00 00 08 00 00 00 00 00 00 00  ................
	0x0010 fe a8 1c 06 08 08 08 36 00 00 00 00 00 00 00 00  .......6........
	0x0020 00 00 00 00 00 00 00 00 00 00 00 00 00 00 00 00  ................
	0x0030 00 00 00 00 00 00 00 00                          ........
	rel 24+8 t=R_ADDR runtime.memequal64·f<0>+0
	rel 32+8 t=R_ADDR runtime.gcbits.0100000000000000<0>+0
	rel 40+4 t=R_ADDROFF type:.namedata.*[]int64-<0>+0
	rel 48+8 t=R_ADDR type:[]int64<0>+0
type:.namedata.*[]int8-<0> SRODATA dupok size=9
	0x0000 00 07 2a 5b 5d 69 6e 74 38                       ..*[]int8
type:*[]int8<0> SRODATA dupok size=56
	0x0000 08 00 00 00 00 00 00 00 08 00 00 00 00 00 00 00  ................
	0x0010 fd 11 d2 66 08 08 08 36 00 00 00 00 00 00 00 00  ...f...6........
	0x0020 00 00 00 00 00 00 00 00 00 00 00 00 00 00 00 00  ................
	0x0030 00 00 00 00 00 00 00 00                          ........
	rel 24+8 t=R_ADDR runtime.memequal64·f<0>+0
	rel 32+8 t=R_ADDR runtime.gcbits.0100000000000000<0>+0
	rel 40+4 t=R_ADDROFF type:.namedata.*[]int8-<0>+0
	rel 48+8 t=R_ADDR type:[]int8<0>+0
type:.namedata.*[]string-<0> SRODATA dupok size=11
	0x0000 00 09 2a 5b 5d 73 74 72 69 6e 67                 ..*[]string
type:*[]string<0> SRODATA dupok size=56
	0x0000 08 00 00 00 00 00 00 00 08 00 00 00 00 00 00 00  ................
	0x0010 76 be 68 d5 08 08 08 36 00 00 00 00 00 00 00 00  v.h....6........
	0x0020 00 00 00 00 00 00 00 00 00 00 00 00 00 00 00 00  ................
	0x0030 00 00 00 00 00 00 00 00                          ........
	rel 24+8 t=R_ADDR runtime.memequal64·f<0>+0
	rel 32+8 t=R_ADDR runtime.gcbits.0100000000000000<0>+0
	rel 40+4 t=R_ADDROFF type:.namedata.*[]string-<0>+0
	rel 48+8 t=R_ADDR type:[]string<0>+0
type:.namedata.*[32]uint8-<0> SRODATA dupok size=12
	0x0000 00 0a 2a 5b 33 32 5d 75 69 6e 74 38              ..*[32]uint8
type:*[32]uint8<0> SRODATA dupok size=56
	0x0000 08 00 00 00 00 00 00 00 08 00 00 00 00 00 00 00  ................
	0x0010 26 0d b3 9e 08 08 08 36 00 00 00 00 00 00 00 00  &......6........
	0x0020 00 00 00 00 00 00 00 00 00 00 00 00 00 00 00 00  ................
	0x0030 00 00 00 00 00 00 00 00                          ........
	rel 24+8 t=R_ADDR runtime.memequal64·f<0>+0
	rel 32+8 t=R_ADDR runtime.gcbits.0100000000000000<0>+0
	rel 40+4 t=R_ADDROFF type:.namedata.*[32]uint8-<0>+0
	rel 48+8 t=R_ADDR type:[32]uint8<0>+0
type:[32]uint8<0> SRODATA dupok size=72
	0x0000 20 00 00 00 00 00 00 00 00 00 00 00 00 00 00 00   ...............
	0x0010 aa ab 93 92 0a 01 01 11 00 00 00 00 00 00 00 00  ................
	0x0020 00 00 00 00 00 00 00 00 00 00 00 00 00 00 00 00  ................
	0x0030 00 00 00 00 00 00 00 00 00 00 00 00 00 00 00 00  ................
	0x0040 20 00 00 00 00 00 00 00                           .......
	rel 24+8 t=R_ADDR type:.eqfunc32<0>+0
	rel 32+8 t=R_ADDR runtime.gcbits.<0>+0
	rel 40+4 t=R_ADDROFF type:.namedata.*[32]uint8-<0>+0
	rel 44+4 t=RelocType(-32763) type:*[32]uint8<0>+0
	rel 48+8 t=R_ADDR type:uint8<0>+0
	rel 56+8 t=R_ADDR type:[]uint8<0>+0
runtime.gcbits.2c00000000000000<0> SRODATA dupok size=8
	0x0000 2c 00 00 00 00 00 00 00                          ,.......
gclocals·J5F+7Qw7O7ve2QcWC7DpeQ==<0> SRODATA dupok size=8
	0x0000 02 00 00 00 00 00 00 00                          ........
gclocals·Gi+ewyUrOze142o4ULSYMg==<0> SRODATA dupok size=10
	0x0000 02 00 00 00 06 00 00 00 00 2c                    .........,
command-line-arguments.mapCompoundAssignmentInt8.stkobj<0> SRODATA static size=24
	0x0000 01 00 00 00 00 00 00 00 d0 ff ff ff 30 00 00 00  ............0...
	0x0010 30 00 00 00 00 00 00 00                          0.......
	rel 20+4 t=R_ADDROFF runtime.gcbits.2c00000000000000<0>+0
command-line-arguments.mapCompoundAssignmentInt32.stkobj<0> SRODATA static size=24
	0x0000 01 00 00 00 00 00 00 00 d0 ff ff ff 30 00 00 00  ............0...
	0x0010 30 00 00 00 00 00 00 00                          0.......
	rel 20+4 t=R_ADDROFF runtime.gcbits.2c00000000000000<0>+0
command-line-arguments.mapCompoundAssignmentInt64.stkobj<0> SRODATA static size=24
	0x0000 01 00 00 00 00 00 00 00 d0 ff ff ff 30 00 00 00  ............0...
	0x0010 30 00 00 00 00 00 00 00                          0.......
	rel 20+4 t=R_ADDROFF runtime.gcbits.2c00000000000000<0>+0
command-line-arguments.mapCompoundAssignmentComplex128.stkobj<0> SRODATA static size=24
	0x0000 01 00 00 00 00 00 00 00 d0 ff ff ff 30 00 00 00  ............0...
	0x0010 30 00 00 00 00 00 00 00                          0.......
	rel 20+4 t=R_ADDROFF runtime.gcbits.2c00000000000000<0>+0
gclocals·ykHN0vawYuq1dUW4zEe2gA==<0> SRODATA dupok size=8
	0x0000 03 00 00 00 00 00 00 00                          ........
gclocals·ekgxGSRsRf7vwa/XiBCsGg==<0> SRODATA dupok size=26
	0x0000 03 00 00 00 29 00 00 00 00 00 00 00 00 00 00 00  ....)...........
	0x0010 00 00 b0 00 00 00 00 00 00 01                    ..........
command-line-arguments.mapCompoundAssignmentString.stkobj<0> SRODATA static size=40
	0x0000 02 00 00 00 00 00 00 00 b8 fe ff ff 10 01 00 00  ................
	0x0010 10 01 00 00 00 00 00 00 c8 ff ff ff 30 00 00 00  ............0...
	0x0020 30 00 00 00 00 00 00 00                          0.......
	rel 20+4 t=R_ADDROFF runtime.gcbits.aaaaaaaa02000000<0>+0
	rel 36+4 t=R_ADDROFF runtime.gcbits.2c00000000000000<0>+0
gclocals·Xu4NijPRinf///4s/1zhiQ==<0> SRODATA dupok size=8
	0x0000 0a 00 00 00 00 00 00 00                          ........
gclocals·tyf0mCx9eQdOggI3rwpiBA==<0> SRODATA dupok size=68
	0x0000 0a 00 00 00 29 00 00 00 00 00 00 00 00 00 00 00  ....)...........
	0x0010 00 60 01 00 00 00 00 60 01 01 00 00 00 60 81 00  .`.....`.....`..
	0x0020 00 00 00 60 41 00 00 00 00 60 61 00 00 00 00 60  ...`A....`a....`
	0x0030 11 00 00 00 00 60 09 00 00 00 00 60 05 00 00 00  .....`.....`....
	0x0040 00 00 02 00                                      ....
command-line-arguments.mapAppendAssignmentInt8.stkobj<0> SRODATA static size=40
	0x0000 02 00 00 00 00 00 00 00 b8 fe ff ff d8 00 00 00  ................
	0x0010 d8 00 00 00 00 00 00 00 90 ff ff ff 30 00 00 00  ............0...
	0x0020 30 00 00 00 00 00 00 00                          0.......
	rel 20+4 t=R_ADDROFF runtime.gcbits.2449920400000000<0>+0
	rel 36+4 t=R_ADDROFF runtime.gcbits.2c00000000000000<0>+0
gclocals·ogRk5QoddqN+jRbFucd4xw==<0> SRODATA dupok size=68
	0x0000 0a 00 00 00 2b 00 00 00 00 00 00 00 00 00 00 00  ....+...........
	0x0010 00 00 2c 00 00 00 00 00 2c 04 00 00 00 00 2c 02  ..,.....,.....,.
	0x0020 00 00 00 00 2c 01 00 00 00 00 ac 01 00 00 00 00  ....,...........
	0x0030 6c 01 00 00 00 80 2c 01 00 00 00 40 2c 00 00 00  l.....,....@,...
	0x0040 00 40 00 00                                      .@..
command-line-arguments.mapAppendAssignmentInt32.stkobj<0> SRODATA static size=40
	0x0000 02 00 00 00 00 00 00 00 a8 fe ff ff f0 00 00 00  ................
	0x0010 f0 00 00 00 00 00 00 00 a8 ff ff ff 30 00 00 00  ............0...
	0x0020 30 00 00 00 00 00 00 00                          0.......
	rel 20+4 t=R_ADDROFF runtime.gcbits.2049922400000000<0>+0
	rel 36+4 t=R_ADDROFF runtime.gcbits.2c00000000000000<0>+0
gclocals·T0KMGW3T8ttpJDRmFT9xSg==<0> SRODATA dupok size=8
	0x0000 0d 00 00 00 00 00 00 00                          ........
gclocals·rSei+USuDbuHoAgiHjUnRA==<0> SRODATA dupok size=86
	0x0000 0d 00 00 00 2f 00 00 00 00 00 00 00 00 00 00 00  ..../...........
	0x0010 00 00 80 05 00 00 00 00 80 45 00 00 00 00 80 25  .........E.....%
	0x0020 00 00 00 00 80 15 00 00 00 00 80 1d 00 00 00 00  ................
	0x0030 90 1d 00 00 00 00 88 15 00 00 00 00 98 15 00 00  ................
	0x0040 00 00 84 15 00 00 00 00 94 15 00 00 00 00 90 05  ................
	0x0050 00 00 00 00 10 00                                ......
command-line-arguments.mapAppendAssignmentInt64.stkobj<0> SRODATA static size=40
	0x0000 02 00 00 00 00 00 00 00 88 fe ff ff 10 01 00 00  ................
	0x0010 10 01 00 00 00 00 00 00 b0 ff ff ff 30 00 00 00  ............0...
	0x0020 30 00 00 00 00 00 00 00                          0.......
	rel 20+4 t=R_ADDROFF runtime.gcbits.0092244902000000<0>+0
	rel 36+4 t=R_ADDROFF runtime.gcbits.2c00000000000000<0>+0
gclocals·oC5IYUIQaeZahulcQD2bSg==<0> SRODATA dupok size=8
	0x0000 0b 00 00 00 00 00 00 00                          ........
gclocals·nRyUbHE6FokZF8uyShUmoQ==<0> SRODATA dupok size=96
	0x0000 0b 00 00 00 39 00 00 00 00 00 00 00 00 00 00 00  ....9...........
	0x0010 00 00 00 00 00 b0 00 00 00 00 00 00 00 b0 00 01  ................
	0x0020 00 00 00 00 00 b0 80 00 00 00 00 00 00 b0 40 00  ..............@.
	0x0030 00 00 00 00 00 b0 60 00 00 00 00 00 00 b0 70 00  ......`.......p.
	0x0040 00 00 00 00 00 b0 08 00 00 00 00 00 00 b0 04 00  ................
	0x0050 00 00 00 00 00 b0 02 00 00 00 00 00 00 00 01 00  ................
command-line-arguments.mapAppendAssignmentComplex128.stkobj<0> SRODATA static size=40
	0x0000 02 00 00 00 00 00 00 00 38 fe ff ff 50 01 00 00  ........8...P...
	0x0010 50 01 00 00 00 00 00 00 88 ff ff ff 30 00 00 00  P...........0...
	0x0020 30 00 00 00 00 00 00 00                          0.......
	rel 20+4 t=R_ADDROFF runtime.gcbits.0000922449020000<0>+0
	rel 36+4 t=R_ADDROFF runtime.gcbits.2c00000000000000<0>+0
gclocals·NEKgZvOsl7KFGa9L8DSpqQ==<0> SRODATA dupok size=8
	0x0000 09 00 00 00 00 00 00 00                          ........
gclocals·wXl4z7ezpHCvJKiUPMD2cA==<0> SRODATA dupok size=71
	0x0000 09 00 00 00 35 00 00 00 00 00 00 00 00 00 00 00  ....5...........
	0x0010 00 00 00 00 b0 00 00 00 00 00 00 b0 10 00 00 00  ................
	0x0020 00 00 b0 08 00 00 00 00 00 b0 04 00 00 00 00 00  ................
	0x0030 b0 06 00 00 00 00 00 b0 07 00 00 00 00 00 b0 01  ................
	0x0040 00 00 00 00 00 00 01                             .......
command-line-arguments.mapAppendAssignmentString.stkobj<0> SRODATA static size=40
	0x0000 02 00 00 00 00 00 00 00 58 fe ff ff 50 01 00 00  ........X...P...
	0x0010 50 01 00 00 00 00 00 00 a8 ff ff ff 30 00 00 00  P...........0...
	0x0020 30 00 00 00 00 00 00 00                          0.......
	rel 20+4 t=R_ADDROFF runtime.gcbits.aaaa922449020000<0>+0
	rel 36+4 t=R_ADDROFF runtime.gcbits.2c00000000000000<0>+0
gclocals·TjPuuCwdlCpTaRQGRKTrYw==<0> SRODATA dupok size=10
	0x0000 02 00 00 00 02 00 00 00 03 00                    ..........
type:.eq.[4]complex128.arginfo1<0> SRODATA static dupok size=3
	0x0000 08 08 ff                                         ...
type:.eq.[4]complex128.argliveinfo<0> SRODATA static dupok size=2
	0x0000 00 00                                            ..
type:.eq.[4]string.arginfo1<0> SRODATA static dupok size=3
	0x0000 08 08 ff                                         ...
type:.eq.[4]string.argliveinfo<0> SRODATA static dupok size=2
	0x0000 00 00                                            ..
$f64.3ff0000000000000<0> SRODATA size=8
	0x0000 00 00 00 00 00 00 f0 3f                          .......?
$f64.4000000000000000<0> SRODATA size=8
	0x0000 00 00 00 00 00 00 00 40                          .......@
$f64.4008000000000000<0> SRODATA size=8
	0x0000 00 00 00 00 00 00 08 40                          .......@
$f64.401c000000000000<0> SRODATA size=8
	0x0000 00 00 00 00 00 00 1c 40                          .......@
$f64.4020000000000000<0> SRODATA size=8
	0x0000 00 00 00 00 00 00 20 40                          ...... @
$f64.4022000000000000<0> SRODATA size=8
	0x0000 00 00 00 00 00 00 22 40                          ......"@
$f64.4058c00000000000<0> SRODATA size=8
	0x0000 00 00 00 00 00 c0 58 40                          ......X@
$f64.4059000000000000<0> SRODATA size=8
	0x0000 00 00 00 00 00 00 59 40                          ......Y@
$f64.405ec00000000000<0> SRODATA size=8
	0x0000 00 00 00 00 00 c0 5e 40                          ......^@
$f64.407c800000000000<0> SRODATA size=8
	0x0000 00 00 00 00 00 80 7c 40                          ......|@
$f64.40f0932000000000<0> SRODATA size=8
	0x0000 00 00 00 00 20 93 f0 40                          .... ..@
aux for command-line-arguments.mapCompoundAssignmentInt8<0> SDWARFLINES size=122
	0x0000 00 09 02 00 00 00 00 00 00 00 00 04 02 03 06 14  ................
	0x0010 0a 9b 38 06 4b 06 08 03 02 d2 06 41 06 b9 06 41  ..8.K......A...A
	0x0020 06 03 01 64 06 41 06 e1 06 41 06 03 01 64 06 41  ...d.A...A...d.A
	0x0030 06 b9 06 41 06 03 01 82 06 41 06 b9 06 41 06 03  ...A.....A...A..
	0x0040 01 64 06 41 06 b9 06 41 06 03 01 64 06 41 06 b9  .d.A...A...d.A..
	0x0050 06 41 06 03 01 32 06 41 06 b9 06 41 06 03 01 64  .A...2.A...A...d
	0x0060 06 41 06 b9 06 41 06 03 01 5a 06 41 06 b9 06 41  .A...A...Z.A...A
	0x0070 06 56 03 4b 47 02 0a 00 01 01                    .V.KG.....
	rel 3+8 t=R_ADDR command-line-arguments.mapCompoundAssignmentInt8<1>+0
aux for command-line-arguments.mapCompoundAssignmentInt8<0> SDWARFFCN size=84
	0x0000 03 63 6f 6d 6d 61 6e 64 2d 6c 69 6e 65 2d 61 72  .command-line-ar
	0x0010 67 75 6d 65 6e 74 73 2e 6d 61 70 43 6f 6d 70 6f  guments.mapCompo
	0x0020 75 6e 64 41 73 73 69 67 6e 6d 65 6e 74 49 6e 74  undAssignmentInt
	0x0030 38 00 00 00 00 00 00 00 00 00 00 00 00 00 00 00  8...............
	0x0040 00 00 01 9c 02 00 00 00 0c 01 0c 6d 00 0d 00 00  ...........m....
	0x0050 00 00 00 00                                      ....
	rel 0+0 t=R_USETYPE type:int8<0>+0
	rel 0+0 t=R_USETYPE type:noalg.map.bucket[int8]int8<0>+0
	rel 0+0 t=R_USETYPE type:runtime.hmap<0>+0
	rel 50+8 t=R_ADDR command-line-arguments.mapCompoundAssignmentInt8<1>+0
	rel 58+8 t=R_ADDR command-line-arguments.mapCompoundAssignmentInt8<1>+398
	rel 78+4 t=R_DWARFSECREF go:info.map[int8]int8<0>+0
aux for command-line-arguments.mapCompoundAssignmentInt32<0> SDWARFLINES size=124
	0x0000 00 09 02 00 00 00 00 00 00 00 00 04 02 03 c1 00  ................
	0x0010 14 0a cd 56 06 4b 06 02 32 03 02 fa 06 55 06 55  ...V.K..2....U.U
	0x0020 06 41 06 03 01 50 06 55 06 55 06 41 06 03 01 32  .A...P.U.U.A...2
	0x0030 06 55 06 55 06 41 06 03 01 78 06 55 06 55 06 41  .U.U.A...x.U.U.A
	0x0040 06 03 01 32 06 55 06 55 06 41 06 03 01 32 06 55  ...2.U.U.A...2.U
	0x0050 06 55 06 41 06 03 01 5a 06 55 06 55 06 41 06 03  .U.A...Z.U.U.A..
	0x0060 01 8c 06 55 06 55 06 41 06 03 01 28 06 55 06 73  ...U.U.A...(.U.s
	0x0070 06 41 06 24 03 4b 65 02 0a 00 01 01              .A.$.Ke.....
	rel 3+8 t=R_ADDR command-line-arguments.mapCompoundAssignmentInt32<1>+0
aux for command-line-arguments.mapCompoundAssignmentInt32<0> SDWARFFCN size=94
	0x0000 03 63 6f 6d 6d 61 6e 64 2d 6c 69 6e 65 2d 61 72  .command-line-ar
	0x0010 67 75 6d 65 6e 74 73 2e 6d 61 70 43 6f 6d 70 6f  guments.mapCompo
	0x0020 75 6e 64 41 73 73 69 67 6e 6d 65 6e 74 49 6e 74  undAssignmentInt
	0x0030 33 32 00 00 00 00 00 00 00 00 00 00 00 00 00 00  32..............
	0x0040 00 00 00 01 9c 02 00 00 00 47 01 0c 6d 00 48 00  .........G..m.H.
	0x0050 00 00 00 00 0c 6b 00 49 00 00 00 00 00 00        .....k.I......
	rel 0+0 t=R_USETYPE type:noalg.map.bucket[int32]int32<0>+0
	rel 0+0 t=R_USETYPE type:runtime.hmap<0>+0
	rel 51+8 t=R_ADDR command-line-arguments.mapCompoundAssignmentInt32<1>+0
	rel 59+8 t=R_ADDR command-line-arguments.mapCompoundAssignmentInt32<1>+346
	rel 79+4 t=R_DWARFSECREF go:info.map[int32]int32<0>+0
	rel 88+4 t=R_DWARFSECREF go:info.int32<0>+0
aux for command-line-arguments.mapCompoundAssignmentInt64<0> SDWARFLINES size=127
	0x0000 00 09 02 00 00 00 00 00 00 00 00 04 02 03 fc 00  ................
	0x0010 14 0a cd 56 06 69 06 02 32 03 02 fa 06 55 06 91  ...V.i..2....U..
	0x0020 06 41 06 03 01 5a 06 55 06 91 06 41 06 03 01 3c  .A...Z.U...A...<
	0x0030 06 55 06 73 06 41 06 03 01 96 06 55 06 91 06 41  .U.s.A.....U...A
	0x0040 06 03 01 3c 06 55 06 73 06 41 06 03 01 3c 06 55  ...<.U.s.A...<.U
	0x0050 06 73 06 41 06 03 01 78 06 55 06 73 06 41 06 03  .s.A...x.U.s.A..
	0x0060 01 78 06 55 06 73 06 41 06 03 01 32 06 55 06 73  .x.U.s.A...2.U.s
	0x0070 06 41 06 2e 06 03 4b 65 06 23 02 0a 00 01 01     .A....Ke.#.....
	rel 3+8 t=R_ADDR command-line-arguments.mapCompoundAssignmentInt64<1>+0
aux for command-line-arguments.mapCompoundAssignmentInt64<0> SDWARFFCN size=97
	0x0000 03 63 6f 6d 6d 61 6e 64 2d 6c 69 6e 65 2d 61 72  .command-line-ar
	0x0010 67 75 6d 65 6e 74 73 2e 6d 61 70 43 6f 6d 70 6f  guments.mapCompo
	0x0020 75 6e 64 41 73 73 69 67 6e 6d 65 6e 74 49 6e 74  undAssignmentInt
	0x0030 36 34 00 00 00 00 00 00 00 00 00 00 00 00 00 00  64..............
	0x0040 00 00 00 01 9c 02 00 00 00 82 01 01 0c 6d 00 83  .............m..
	0x0050 01 00 00 00 00 00 0c 6b 00 84 01 00 00 00 00 00  .......k........
	0x0060 00                                               .
	rel 0+0 t=R_USETYPE type:noalg.map.bucket[int64]int64<0>+0
	rel 0+0 t=R_USETYPE type:runtime.hmap<0>+0
	rel 51+8 t=R_ADDR command-line-arguments.mapCompoundAssignmentInt64<1>+0
	rel 59+8 t=R_ADDR command-line-arguments.mapCompoundAssignmentInt64<1>+394
	rel 81+4 t=R_DWARFSECREF go:info.map[int64]int64<0>+0
	rel 91+4 t=R_DWARFSECREF go:info.int64<0>+0
aux for command-line-arguments.mapCompoundAssignmentComplex128<0> SDWARFLINES size=95
	0x0000 00 09 02 00 00 00 00 00 00 00 00 04 02 03 b7 01  ................
	0x0010 14 0a eb 56 06 69 06 02 30 03 02 fa 06 2d 06 08  ...V.i..0....-..
	0x0020 b9 06 41 06 08 03 01 6e 06 69 06 08 5f 06 41 06  ..A....n.i.._.A.
	0x0030 08 03 01 96 06 69 06 08 91 06 41 06 02 29 03 01  .....i....A..)..
	0x0040 fa 06 69 06 08 5f 06 41 06 08 03 01 96 06 69 06  ..i.._.A......i.
	0x0050 08 5f 06 41 06 08 92 03 63 65 02 0a 00 01 01     ._.A....ce.....
	rel 3+8 t=R_ADDR command-line-arguments.mapCompoundAssignmentComplex128<1>+0
aux for command-line-arguments.mapCompoundAssignmentComplex128<0> SDWARFFCN size=102
	0x0000 03 63 6f 6d 6d 61 6e 64 2d 6c 69 6e 65 2d 61 72  .command-line-ar
	0x0010 67 75 6d 65 6e 74 73 2e 6d 61 70 43 6f 6d 70 6f  guments.mapCompo
	0x0020 75 6e 64 41 73 73 69 67 6e 6d 65 6e 74 43 6f 6d  undAssignmentCom
	0x0030 70 6c 65 78 31 32 38 00 00 00 00 00 00 00 00 00  plex128.........
	0x0040 00 00 00 00 00 00 00 00 01 9c 02 00 00 00 bd 01  ................
	0x0050 01 0c 6d 00 be 01 00 00 00 00 00 0c 6b 00 bf 01  ..m.........k...
	0x0060 00 00 00 00 00 00                                ......
	rel 0+0 t=R_USETYPE type:noalg.map.bucket[complex128]complex128<0>+0
	rel 0+0 t=R_USETYPE type:runtime.hmap<0>+0
	rel 56+8 t=R_ADDR command-line-arguments.mapCompoundAssignmentComplex128<1>+0
	rel 64+8 t=R_ADDR command-line-arguments.mapCompoundAssignmentComplex128<1>+574
	rel 86+4 t=R_DWARFSECREF go:info.map[complex128]complex128<0>+0
	rel 96+4 t=R_DWARFSECREF go:info.complex128<0>+0
aux for command-line-arguments.mapCompoundAssignmentString<0> SDWARFLINES size=49
	0x0000 00 09 02 00 00 00 00 00 00 00 00 04 02 03 da 01  ................
	0x0010 14 0a eb 56 06 69 06 02 30 03 02 fa 06 55 06 d7  ...V.i..0....U..
	0x0020 06 41 06 02 32 f6 06 03 7b 65 06 19 02 0a 00 01  .A..2...{e......
	0x0030 01                                               .
	rel 3+8 t=R_ADDR command-line-arguments.mapCompoundAssignmentString<1>+0
aux for command-line-arguments.mapCompoundAssignmentString<0> SDWARFFCN size=98
	0x0000 03 63 6f 6d 6d 61 6e 64 2d 6c 69 6e 65 2d 61 72  .command-line-ar
	0x0010 67 75 6d 65 6e 74 73 2e 6d 61 70 43 6f 6d 70 6f  guments.mapCompo
	0x0020 75 6e 64 41 73 73 69 67 6e 6d 65 6e 74 53 74 72  undAssignmentStr
	0x0030 69 6e 67 00 00 00 00 00 00 00 00 00 00 00 00 00  ing.............
	0x0040 00 00 00 00 01 9c 02 00 00 00 e0 01 01 0c 6d 00  ..............m.
	0x0050 e1 01 00 00 00 00 00 0c 6b 00 e2 01 00 00 00 00  ........k.......
	0x0060 00 00                                            ..
	rel 0+0 t=R_USETYPE type:*string<0>+0
	rel 0+0 t=R_USETYPE type:noalg.map.bucket[string]string<0>+0
	rel 0+0 t=R_USETYPE type:runtime.hmap<0>+0
	rel 52+8 t=R_ADDR command-line-arguments.mapCompoundAssignmentString<1>+0
	rel 60+8 t=R_ADDR command-line-arguments.mapCompoundAssignmentString<1>+234
	rel 82+4 t=R_DWARFSECREF go:info.map[string]string<0>+0
	rel 92+4 t=R_DWARFSECREF go:info.string<0>+0
aux for command-line-arguments.mapAppendAssignmentInt8<0> SDWARFLOC size=83
	0x0000 ff ff ff ff ff ff ff ff 00 00 00 00 00 00 00 00  ................
	0x0010 99 01 00 00 00 00 00 00 c0 01 00 00 00 00 00 00  ................
	0x0020 07 00 50 93 08 93 08 93 08 c0 01 00 00 00 00 00  ..P.............
	0x0030 00 ea 04 00 00 00 00 00 00 08 00 91 58 93 08 93  ............X...
	0x0040 08 93 08 00 00 00 00 00 00 00 00 00 00 00 00 00  ................
	0x0050 00 00 00                                         ...
	rel 8+8 t=R_ADDR command-line-arguments.mapAppendAssignmentInt8<1>+0
aux for command-line-arguments.mapAppendAssignmentInt8<0> SDWARFLINES size=119
	0x0000 00 09 02 00 00 00 00 00 00 00 00 04 02 03 e7 01  ................
	0x0010 14 0a eb 56 06 69 06 02 36 03 02 fa 06 41 06 d7  ...V.i..6....A..
	0x0020 06 41 06 02 56 03 01 fa 06 41 06 d7 06 41 06 02  .A..V....A...A..
	0x0030 5a f7 06 87 06 03 01 a0 06 41 06 d7 06 41 06 02  Z........A...A..
	0x0040 66 03 03 fa 06 41 06 08 19 06 41 06 02 ca 01 03  f....A....A.....
	0x0050 01 fa 06 41 06 08 19 06 41 06 02 9a 01 03 01 fa  ...A....A.......
	0x0060 06 41 06 08 19 06 41 06 02 80 01 f6 06 03 59 65  .A....A.......Ye
	0x0070 06 2d 02 0a 00 01 01                             .-.....
	rel 3+8 t=R_ADDR command-line-arguments.mapAppendAssignmentInt8<1>+0
aux for command-line-arguments.mapAppendAssignmentInt8<0> SDWARFFCN size=97
	0x0000 03 63 6f 6d 6d 61 6e 64 2d 6c 69 6e 65 2d 61 72  .command-line-ar
	0x0010 67 75 6d 65 6e 74 73 2e 6d 61 70 41 70 70 65 6e  guments.mapAppen
	0x0020 64 41 73 73 69 67 6e 6d 65 6e 74 49 6e 74 38 00  dAssignmentInt8.
	0x0030 00 00 00 00 00 00 00 00 00 00 00 00 00 00 00 00  ................
	0x0040 01 9c 02 00 00 00 ed 01 01 0c 6d 00 ee 01 00 00  ..........m.....
	0x0050 00 00 00 0d 61 00 fd 01 00 00 00 00 00 00 00 00  ....a...........
	0x0060 00                                               .
	rel 0+0 t=R_USETYPE type:*[4]int8<0>+0
	rel 0+0 t=R_USETYPE type:*[]int8<0>+0
	rel 0+0 t=R_USETYPE type:*int8<0>+0
	rel 0+0 t=R_USETYPE type:int<0>+0
	rel 0+0 t=R_USETYPE type:int8<0>+0
	rel 0+0 t=R_USETYPE type:noalg.map.bucket[int8][]int8<0>+0
	rel 0+0 t=R_USETYPE type:runtime.hmap<0>+0
	rel 48+8 t=R_ADDR command-line-arguments.mapAppendAssignmentInt8<1>+0
	rel 56+8 t=R_ADDR command-line-arguments.mapAppendAssignmentInt8<1>+1258
	rel 78+4 t=R_DWARFSECREF go:info.map[int8][]int8<0>+0
	rel 88+4 t=R_DWARFSECREF go:info.[]int8<0>+0
	rel 92+4 t=R_DWARFSECREF <0>+0
aux for command-line-arguments.mapAppendAssignmentInt32<0> SDWARFLOC size=83
	0x0000 ff ff ff ff ff ff ff ff 00 00 00 00 00 00 00 00  ................
	0x0010 93 01 00 00 00 00 00 00 c1 01 00 00 00 00 00 00  ................
	0x0020 07 00 50 93 08 93 08 93 08 c1 01 00 00 00 00 00  ..P.............
	0x0030 00 f9 05 00 00 00 00 00 00 08 00 91 58 93 08 93  ............X...
	0x0040 08 93 08 00 00 00 00 00 00 00 00 00 00 00 00 00  ................
	0x0050 00 00 00                                         ...
	rel 8+8 t=R_ADDR command-line-arguments.mapAppendAssignmentInt32<1>+0
aux for command-line-arguments.mapAppendAssignmentInt32<0> SDWARFLINES size=137
	0x0000 00 09 02 00 00 00 00 00 00 00 00 04 02 03 94 02  ................
	0x0010 14 0a eb 56 06 69 06 02 30 03 02 fa 06 55 06 87  ...V.i..0....U..
	0x0020 06 41 06 02 54 03 01 fa 06 55 06 73 06 41 06 02  .A..T....U.s.A..
	0x0030 6a f7 06 87 06 08 03 01 46 06 5f 06 69 06 41 06  j.......F._.i.A.
	0x0040 02 6a 03 01 fa 06 55 06 c3 06 41 06 02 6a 03 01  .j....U...A..j..
	0x0050 fa 06 55 06 73 06 41 06 02 6a 03 03 fa 06 55 06  ..U.s.A..j....U.
	0x0060 73 06 41 06 02 d2 01 03 01 fa 06 55 06 73 06 41  s.A........U.s.A
	0x0070 06 02 91 01 03 01 fa 06 55 06 91 06 41 06 02 7c  ........U...A..|
	0x0080 f6 03 4d 65 02 0a 00 01 01                       ..Me.....
	rel 3+8 t=R_ADDR command-line-arguments.mapAppendAssignmentInt32<1>+0
aux for command-line-arguments.mapAppendAssignmentInt32<0> SDWARFFCN size=108
	0x0000 03 63 6f 6d 6d 61 6e 64 2d 6c 69 6e 65 2d 61 72  .command-line-ar
	0x0010 67 75 6d 65 6e 74 73 2e 6d 61 70 41 70 70 65 6e  guments.mapAppen
	0x0020 64 41 73 73 69 67 6e 6d 65 6e 74 49 6e 74 33 32  dAssignmentInt32
	0x0030 00 00 00 00 00 00 00 00 00 00 00 00 00 00 00 00  ................
	0x0040 00 01 9c 02 00 00 00 9a 02 01 0c 6d 00 9b 02 00  ...........m....
	0x0050 00 00 00 00 0c 6b 00 9c 02 00 00 00 00 00 0d 61  .....k.........a
	0x0060 00 aa 02 00 00 00 00 00 00 00 00 00              ............
	rel 0+0 t=R_USETYPE type:*[4]int32<0>+0
	rel 0+0 t=R_USETYPE type:*[]int32<0>+0
	rel 0+0 t=R_USETYPE type:*int32<0>+0
	rel 0+0 t=R_USETYPE type:int<0>+0
	rel 0+0 t=R_USETYPE type:noalg.map.bucket[int32][]int32<0>+0
	rel 0+0 t=R_USETYPE type:runtime.hmap<0>+0
	rel 49+8 t=R_ADDR command-line-arguments.mapAppendAssignmentInt32<1>+0
	rel 57+8 t=R_ADDR command-line-arguments.mapAppendAssignmentInt32<1>+1529
	rel 79+4 t=R_DWARFSECREF go:info.map[int32][]int32<0>+0
	rel 89+4 t=R_DWARFSECREF go:info.int32<0>+0
	rel 99+4 t=R_DWARFSECREF go:info.[]int32<0>+0
	rel 103+4 t=R_DWARFSECREF <0>+0
aux for command-line-arguments.mapAppendAssignmentInt64<0> SDWARFLOC size=83
	0x0000 ff ff ff ff ff ff ff ff 00 00 00 00 00 00 00 00  ................
	0x0010 92 01 00 00 00 00 00 00 ca 01 00 00 00 00 00 00  ................
	0x0020 07 00 50 93 08 93 08 93 08 ca 01 00 00 00 00 00  ..P.............
	0x0030 00 9a 06 00 00 00 00 00 00 08 00 91 58 93 08 93  ............X...
	0x0040 08 93 08 00 00 00 00 00 00 00 00 00 00 00 00 00  ................
	0x0050 00 00 00                                         ...
	rel 8+8 t=R_ADDR command-line-arguments.mapAppendAssignmentInt64<1>+0
aux for command-line-arguments.mapAppendAssignmentInt64<0> SDWARFLINES size=140
	0x0000 00 09 02 00 00 00 00 00 00 00 00 04 02 03 cd 02  ................
	0x0010 14 0a eb 56 06 69 06 02 30 03 02 fa 06 55 06 87  ...V.i..0....U..
	0x0020 06 41 06 02 55 03 01 fa 06 55 06 73 06 41 06 02  .A..U....U.s.A..
	0x0030 68 f7 06 87 06 08 03 01 aa 06 5f 06 69 06 41 06  h........._.i.A.
	0x0040 02 9b 01 03 01 fa 06 55 06 91 06 41 06 02 9b 01  .......U...A....
	0x0050 03 01 fa 06 55 06 91 06 41 06 02 a3 01 03 03 fa  ....U...A.......
	0x0060 06 55 06 73 06 41 06 02 d0 01 03 01 fa 06 55 06  .U.s.A........U.
	0x0070 73 06 41 06 02 91 01 03 01 fa 06 55 06 91 06 41  s.A........U...A
	0x0080 06 02 7d f6 03 4d 65 02 0a 00 01 01              ..}..Me.....
	rel 3+8 t=R_ADDR command-line-arguments.mapAppendAssignmentInt64<1>+0
aux for command-line-arguments.mapAppendAssignmentInt64<0> SDWARFFCN size=108
	0x0000 03 63 6f 6d 6d 61 6e 64 2d 6c 69 6e 65 2d 61 72  .command-line-ar
	0x0010 67 75 6d 65 6e 74 73 2e 6d 61 70 41 70 70 65 6e  guments.mapAppen
	0x0020 64 41 73 73 69 67 6e 6d 65 6e 74 49 6e 74 36 34  dAssignmentInt64
	0x0030 00 00 00 00 00 00 00 00 00 00 00 00 00 00 00 00  ................
	0x0040 00 01 9c 02 00 00 00 d3 02 01 0c 6d 00 d4 02 00  ...........m....
	0x0050 00 00 00 00 0c 6b 00 d5 02 00 00 00 00 00 0d 61  .....k.........a
	0x0060 00 e3 02 00 00 00 00 00 00 00 00 00              ............
	rel 0+0 t=R_USETYPE type:*[4]int64<0>+0
	rel 0+0 t=R_USETYPE type:*[]int64<0>+0
	rel 0+0 t=R_USETYPE type:*int64<0>+0
	rel 0+0 t=R_USETYPE type:int<0>+0
	rel 0+0 t=R_USETYPE type:noalg.map.bucket[int64][]int64<0>+0
	rel 0+0 t=R_USETYPE type:runtime.hmap<0>+0
	rel 49+8 t=R_ADDR command-line-arguments.mapAppendAssignmentInt64<1>+0
	rel 57+8 t=R_ADDR command-line-arguments.mapAppendAssignmentInt64<1>+1690
	rel 79+4 t=R_DWARFSECREF go:info.map[int64][]int64<0>+0
	rel 89+4 t=R_DWARFSECREF go:info.int64<0>+0
	rel 99+4 t=R_DWARFSECREF go:info.[]int64<0>+0
	rel 103+4 t=R_DWARFSECREF <0>+0
aux for command-line-arguments.mapAppendAssignmentComplex128<0> SDWARFLOC size=83
	0x0000 ff ff ff ff ff ff ff ff 00 00 00 00 00 00 00 00  ................
	0x0010 fb 01 00 00 00 00 00 00 65 02 00 00 00 00 00 00  ........e.......
	0x0020 07 00 50 93 08 93 08 93 08 65 02 00 00 00 00 00  ..P......e......
	0x0030 00 45 06 00 00 00 00 00 00 08 00 91 58 93 08 93  .E..........X...
	0x0040 08 93 08 00 00 00 00 00 00 00 00 00 00 00 00 00  ................
	0x0050 00 00 00                                         ...
	rel 8+8 t=R_ADDR command-line-arguments.mapAppendAssignmentComplex128<1>+0
aux for command-line-arguments.mapAppendAssignmentComplex128<0> SDWARFLINES size=128
	0x0000 00 09 02 00 00 00 00 00 00 00 00 04 02 03 86 03  ................
	0x0010 14 0a eb 56 06 69 06 02 36 03 02 fa 06 2d 06 08  ...V.i..6....-..
	0x0020 5f 06 41 06 02 6b 03 01 fa 06 4b 06 08 41 06 41  _.A..k....K..A.A
	0x0030 06 02 93 01 f7 06 87 06 02 33 03 01 fa 06 4b 06  .........3....K.
	0x0040 08 23 06 41 06 02 a2 01 03 03 fa 06 2d 06 08 d7  .#.A........-...
	0x0050 06 41 06 02 cf 01 03 01 fa 06 2d 06 08 d7 06 41  .A........-....A
	0x0060 06 02 be 01 03 01 fa 06 2d 06 02 1f ff 06 41 06  ........-.....A.
	0x0070 02 95 01 f6 03 59 65 06 41 06 19 02 05 00 01 01  .....Ye.A.......
	rel 3+8 t=R_ADDR command-line-arguments.mapAppendAssignmentComplex128<1>+0
aux for command-line-arguments.mapAppendAssignmentComplex128<0> SDWARFFCN size=113
	0x0000 03 63 6f 6d 6d 61 6e 64 2d 6c 69 6e 65 2d 61 72  .command-line-ar
	0x0010 67 75 6d 65 6e 74 73 2e 6d 61 70 41 70 70 65 6e  guments.mapAppen
	0x0020 64 41 73 73 69 67 6e 6d 65 6e 74 43 6f 6d 70 6c  dAssignmentCompl
	0x0030 65 78 31 32 38 00 00 00 00 00 00 00 00 00 00 00  ex128...........
	0x0040 00 00 00 00 00 00 01 9c 02 00 00 00 8c 03 01 0c  ................
	0x0050 6d 00 8d 03 00 00 00 00 00 0c 6b 00 8e 03 00 00  m.........k.....
	0x0060 00 00 00 0d 61 00 9c 03 00 00 00 00 00 00 00 00  ....a...........
	0x0070 00                                               .
	rel 0+0 t=R_USETYPE type:*[4]complex128<0>+0
	rel 0+0 t=R_USETYPE type:*[]complex128<0>+0
	rel 0+0 t=R_USETYPE type:*complex128<0>+0
	rel 0+0 t=R_USETYPE type:int<0>+0
	rel 0+0 t=R_USETYPE type:noalg.map.bucket[complex128][]complex128<0>+0
	rel 0+0 t=R_USETYPE type:runtime.hmap<0>+0
	rel 54+8 t=R_ADDR command-line-arguments.mapAppendAssignmentComplex128<1>+0
	rel 62+8 t=R_ADDR command-line-arguments.mapAppendAssignmentComplex128<1>+1605
	rel 84+4 t=R_DWARFSECREF go:info.map[complex128][]complex128<0>+0
	rel 94+4 t=R_DWARFSECREF go:info.complex128<0>+0
	rel 104+4 t=R_DWARFSECREF go:info.[]complex128<0>+0
	rel 108+4 t=R_DWARFSECREF <0>+0
aux for command-line-arguments.mapAppendAssignmentString<0> SDWARFLOC size=83
	0x0000 ff ff ff ff ff ff ff ff 00 00 00 00 00 00 00 00  ................
	0x0010 27 02 00 00 00 00 00 00 95 02 00 00 00 00 00 00  '...............
	0x0020 07 00 50 93 08 93 08 93 08 95 02 00 00 00 00 00  ..P.............
	0x0030 00 99 06 00 00 00 00 00 00 08 00 91 58 93 08 93  ............X...
	0x0040 08 93 08 00 00 00 00 00 00 00 00 00 00 00 00 00  ................
	0x0050 00 00 00                                         ...
	rel 8+8 t=R_ADDR command-line-arguments.mapAppendAssignmentString<1>+0
aux for command-line-arguments.mapAppendAssignmentString<0> SDWARFLINES size=118
	0x0000 00 09 02 00 00 00 00 00 00 00 00 04 02 03 b3 03  ................
	0x0010 14 0a eb 56 06 69 06 02 30 03 02 fa 06 55 06 d7  ...V.i..0....U..
	0x0020 06 41 06 02 86 01 03 01 fa 06 55 06 d7 06 41 06  .A........U...A.
	0x0030 02 ba 01 f7 06 87 06 02 3c 03 01 fa 06 5f 06 cd  ........<...._..
	0x0040 06 41 06 02 bb 01 03 03 fa 06 55 06 d7 06 41 06  .A........U...A.
	0x0050 02 e3 01 03 01 fa 06 55 06 d7 06 41 06 02 bf 01  .......U...A....
	0x0060 03 01 fa 06 41 06 ff 06 41 06 02 d1 01 f6 03 59  ....A...A......Y
	0x0070 65 02 0a 00 01 01                                e.....
	rel 3+8 t=R_ADDR command-line-arguments.mapAppendAssignmentString<1>+0
aux for command-line-arguments.mapAppendAssignmentString<0> SDWARFFCN size=109
	0x0000 03 63 6f 6d 6d 61 6e 64 2d 6c 69 6e 65 2d 61 72  .command-line-ar
	0x0010 67 75 6d 65 6e 74 73 2e 6d 61 70 41 70 70 65 6e  guments.mapAppen
	0x0020 64 41 73 73 69 67 6e 6d 65 6e 74 53 74 72 69 6e  dAssignmentStrin
	0x0030 67 00 00 00 00 00 00 00 00 00 00 00 00 00 00 00  g...............
	0x0040 00 00 01 9c 02 00 00 00 b9 03 01 0c 6d 00 ba 03  ............m...
	0x0050 00 00 00 00 00 0c 6b 00 bb 03 00 00 00 00 00 0d  ......k.........
	0x0060 61 00 c9 03 00 00 00 00 00 00 00 00 00           a............
	rel 0+0 t=R_USETYPE type:*[4]string<0>+0
	rel 0+0 t=R_USETYPE type:*[]string<0>+0
	rel 0+0 t=R_USETYPE type:*string<0>+0
	rel 0+0 t=R_USETYPE type:[32]uint8<0>+0
	rel 0+0 t=R_USETYPE type:int<0>+0
	rel 0+0 t=R_USETYPE type:noalg.map.bucket[string][]string<0>+0
	rel 0+0 t=R_USETYPE type:runtime.hmap<0>+0
	rel 50+8 t=R_ADDR command-line-arguments.mapAppendAssignmentString<1>+0
	rel 58+8 t=R_ADDR command-line-arguments.mapAppendAssignmentString<1>+1689
	rel 80+4 t=R_DWARFSECREF go:info.map[string][]string<0>+0
	rel 90+4 t=R_DWARFSECREF go:info.string<0>+0
	rel 100+4 t=R_DWARFSECREF go:info.[]string<0>+0
	rel 104+4 t=R_DWARFSECREF <0>+0
aux for type:.eq.[4]complex128<0> SDWARFLOC size=102
	0x0000 ff ff ff ff ff ff ff ff 00 00 00 00 00 00 00 00  ................
	0x0010 00 00 00 00 00 00 00 00 4e 00 00 00 00 00 00 00  ........N.......
	0x0020 01 00 50 00 00 00 00 00 00 00 00 00 00 00 00 00  ..P.............
	0x0030 00 00 00 ff ff ff ff ff ff ff ff 00 00 00 00 00  ................
	0x0040 00 00 00 00 00 00 00 00 00 00 00 55 00 00 00 00  ...........U....
	0x0050 00 00 00 01 00 53 00 00 00 00 00 00 00 00 00 00  .....S..........
	0x0060 00 00 00 00 00 00                                ......
	rel 8+8 t=R_ADDR type:.eq.[4]complex128<1>+0
	rel 59+8 t=R_ADDR type:.eq.[4]complex128<1>+0
aux for type:.eq.[4]complex128<0> SDWARFLINES size=32
	0x0000 00 09 02 00 00 00 00 00 00 00 00 06 23 06 4b 06  ............#.K.
	0x0010 37 06 02 28 ff 06 23 06 19 06 41 02 01 00 01 01  7..(..#...A.....
	rel 3+8 t=R_ADDR type:.eq.[4]complex128<1>+0
aux for type:.eq.[4]complex128<0> SDWARFFCN size=85
	0x0000 03 74 79 70 65 3a 2e 65 71 2e 5b 34 5d 63 6f 6d  .type:.eq.[4]com
	0x0010 70 6c 65 78 31 32 38 00 00 00 00 00 00 00 00 00  plex128.........
	0x0020 00 00 00 00 00 00 00 00 01 9c 01 00 00 00 01 01  ................
	0x0030 12 70 00 00 01 00 00 00 00 00 00 00 00 12 71 00  .p............q.
	0x0040 00 01 00 00 00 00 00 00 00 00 11 72 00 01 01 00  ...........r....
	0x0050 00 00 00 00 00                                   .....
	rel 0+0 t=R_USETYPE type:bool<0>+0
	rel 24+8 t=R_ADDR type:.eq.[4]complex128<1>+0
	rel 32+8 t=R_ADDR type:.eq.[4]complex128<1>+85
	rel 53+4 t=R_DWARFSECREF go:info.*[4]complex128<0>+0
	rel 57+4 t=R_DWARFSECREF <0>+0
	rel 66+4 t=R_DWARFSECREF go:info.*[4]complex128<0>+0
	rel 70+4 t=R_DWARFSECREF <0>+51
	rel 79+4 t=R_DWARFSECREF go:info.bool<0>+0
aux for type:.eq.[4]string<0> SDWARFLOC size=141
	0x0000 ff ff ff ff ff ff ff ff 00 00 00 00 00 00 00 00  ................
	0x0010 00 00 00 00 00 00 00 00 48 00 00 00 00 00 00 00  ........H.......
	0x0020 01 00 50 50 00 00 00 00 00 00 00 b4 00 00 00 00  ..PP............
	0x0030 00 00 00 01 00 9c 00 00 00 00 00 00 00 00 00 00  ................
	0x0040 00 00 00 00 00 00 ff ff ff ff ff ff ff ff 00 00  ................
	0x0050 00 00 00 00 00 00 00 00 00 00 00 00 00 00 48 00  ..............H.
	0x0060 00 00 00 00 00 00 01 00 53 50 00 00 00 00 00 00  ........SP......
	0x0070 00 b4 00 00 00 00 00 00 00 02 00 91 08 00 00 00  ................
	0x0080 00 00 00 00 00 00 00 00 00 00 00 00 00           .............
	rel 8+8 t=R_ADDR type:.eq.[4]string<1>+0
	rel 78+8 t=R_ADDR type:.eq.[4]string<1>+0
aux for type:.eq.[4]string<0> SDWARFLINES size=33
	0x0000 00 09 02 00 00 00 00 00 00 00 00 0a 9b 06 5f 06  .............._.
	0x0010 02 1c ff 06 4b 06 c3 06 37 06 08 ff 02 1e 00 01  ....K...7.......
	0x0020 01                                               .
	rel 3+8 t=R_ADDR type:.eq.[4]string<1>+0
aux for type:.eq.[4]string<0> SDWARFFCN size=81
	0x0000 03 74 79 70 65 3a 2e 65 71 2e 5b 34 5d 73 74 72  .type:.eq.[4]str
	0x0010 69 6e 67 00 00 00 00 00 00 00 00 00 00 00 00 00  ing.............
	0x0020 00 00 00 00 01 9c 01 00 00 00 01 01 12 70 00 00  .............p..
	0x0030 01 00 00 00 00 00 00 00 00 12 71 00 00 01 00 00  ..........q.....
	0x0040 00 00 00 00 00 00 11 72 00 01 01 00 00 00 00 00  .......r........
	0x0050 00                                               .
	rel 0+0 t=R_USETYPE type:bool<0>+0
	rel 0+0 t=R_USETYPE type:int<0>+0
	rel 20+8 t=R_ADDR type:.eq.[4]string<1>+0
	rel 28+8 t=R_ADDR type:.eq.[4]string<1>+180
	rel 49+4 t=R_DWARFSECREF go:info.*[4]string<0>+0
	rel 53+4 t=R_DWARFSECREF <0>+0
	rel 62+4 t=R_DWARFSECREF go:info.*[4]string<0>+0
	rel 66+4 t=R_DWARFSECREF <0>+70
	rel 75+4 t=R_DWARFSECREF go:info.bool<0>+0
aux for command-line-arguments.sinkAppend<0> SDWARFVAR size=50
	0x0000 0a 63 6f 6d 6d 61 6e 64 2d 6c 69 6e 65 2d 61 72  .command-line-ar
	0x0010 67 75 6d 65 6e 74 73 2e 73 69 6e 6b 41 70 70 65  guments.sinkAppe
	0x0020 6e 64 00 09 03 00 00 00 00 00 00 00 00 00 00 00  nd..............
	0x0030 00 01                                            ..
	rel 37+8 t=R_ADDR command-line-arguments.sinkAppend<0>+0
	rel 45+4 t=R_DWARFSECREF go:info.bool<0>+0
