# command-line-arguments
command-line-arguments.SliceClear<1> STEXT size=112 args=0x18 locals=0x18 funcid=0x0 align=0x0
	0x0000 00000 (/home/xzl/work/golang-1.22/golang-1.22/test/codegen/slices.go:21)	TEXT	command-line-arguments.SliceClear(SB), ABIInternal, $24-24
	0x0000 00000 (/home/xzl/work/golang-1.22/golang-1.22/test/codegen/slices.go:21)	CMPQ	SP, 16(R14)
	0x0004 00004 (/home/xzl/work/golang-1.22/golang-1.22/test/codegen/slices.go:21)	PCDATA	$0, $-2
	0x0004 00004 (/home/xzl/work/golang-1.22/golang-1.22/test/codegen/slices.go:21)	JLS	75
	0x0006 00006 (/home/xzl/work/golang-1.22/golang-1.22/test/codegen/slices.go:21)	PCDATA	$0, $-1
	0x0006 00006 (/home/xzl/work/golang-1.22/golang-1.22/test/codegen/slices.go:21)	PUSHQ	BP
	0x0007 00007 (/home/xzl/work/golang-1.22/golang-1.22/test/codegen/slices.go:21)	MOVQ	SP, BP
	0x000a 00010 (/home/xzl/work/golang-1.22/golang-1.22/test/codegen/slices.go:21)	SUBQ	$16, SP
	0x000e 00014 (/home/xzl/work/golang-1.22/golang-1.22/test/codegen/slices.go:21)	MOVQ	AX, command-line-arguments.s+32(FP)
	0x0013 00019 (/home/xzl/work/golang-1.22/golang-1.22/test/codegen/slices.go:21)	FUNCDATA	$0, gclocals·wgcWObbY2HYnK2SU/U22lA==(SB)
	0x0013 00019 (/home/xzl/work/golang-1.22/golang-1.22/test/codegen/slices.go:21)	FUNCDATA	$1, gclocals·J5F+7Qw7O7ve2QcWC7DpeQ==(SB)
	0x0013 00019 (/home/xzl/work/golang-1.22/golang-1.22/test/codegen/slices.go:21)	FUNCDATA	$5, command-line-arguments.SliceClear.arginfo1(SB)
	0x0013 00019 (/home/xzl/work/golang-1.22/golang-1.22/test/codegen/slices.go:21)	FUNCDATA	$6, command-line-arguments.SliceClear.argliveinfo(SB)
	0x0013 00019 (/home/xzl/work/golang-1.22/golang-1.22/test/codegen/slices.go:21)	PCDATA	$3, $1
	0x0013 00019 (/home/xzl/work/golang-1.22/golang-1.22/test/codegen/slices.go:24)	TESTQ	BX, BX
	0x0016 00022 (/home/xzl/work/golang-1.22/golang-1.22/test/codegen/slices.go:24)	JEQ	69
	0x0018 00024 (/home/xzl/work/golang-1.22/golang-1.22/test/codegen/slices.go:24)	MOVQ	CX, command-line-arguments.s+48(SP)
	0x001d 00029 (/home/xzl/work/golang-1.22/golang-1.22/test/codegen/slices.go:24)	MOVQ	AX, command-line-arguments.s+32(SP)
	0x0022 00034 (/home/xzl/work/golang-1.22/golang-1.22/test/codegen/slices.go:24)	MOVQ	BX, command-line-arguments.s+40(SP)
	0x0027 00039 (/home/xzl/work/golang-1.22/golang-1.22/test/codegen/slices.go:24)	PCDATA	$3, $-1
	0x0027 00039 (/home/xzl/work/golang-1.22/golang-1.22/test/codegen/slices.go:24)	MOVQ	BX, CX
	0x002a 00042 (/home/xzl/work/golang-1.22/golang-1.22/test/codegen/slices.go:24)	SHLQ	$3, CX
	0x002e 00046 (/home/xzl/work/golang-1.22/golang-1.22/test/codegen/slices.go:24)	MOVQ	CX, BX
	0x0031 00049 (/home/xzl/work/golang-1.22/golang-1.22/test/codegen/slices.go:24)	PCDATA	$1, $0
	0x0031 00049 (/home/xzl/work/golang-1.22/golang-1.22/test/codegen/slices.go:24)	CALL	runtime.memclrNoHeapPointers(SB)
	0x0036 00054 (/home/xzl/work/golang-1.22/golang-1.22/test/codegen/slices.go:27)	MOVQ	command-line-arguments.s+32(SP), AX
	0x003b 00059 (/home/xzl/work/golang-1.22/golang-1.22/test/codegen/slices.go:27)	MOVQ	command-line-arguments.s+48(SP), CX
	0x0040 00064 (/home/xzl/work/golang-1.22/golang-1.22/test/codegen/slices.go:27)	MOVQ	command-line-arguments.s+40(SP), BX
	0x0045 00069 (/home/xzl/work/golang-1.22/golang-1.22/test/codegen/slices.go:24)	PCDATA	$3, $1
	0x0045 00069 (/home/xzl/work/golang-1.22/golang-1.22/test/codegen/slices.go:27)	ADDQ	$16, SP
	0x0049 00073 (/home/xzl/work/golang-1.22/golang-1.22/test/codegen/slices.go:27)	POPQ	BP
	0x004a 00074 (/home/xzl/work/golang-1.22/golang-1.22/test/codegen/slices.go:27)	RET
	0x004b 00075 (/home/xzl/work/golang-1.22/golang-1.22/test/codegen/slices.go:27)	NOP
	0x004b 00075 (/home/xzl/work/golang-1.22/golang-1.22/test/codegen/slices.go:21)	PCDATA	$1, $-1
	0x004b 00075 (/home/xzl/work/golang-1.22/golang-1.22/test/codegen/slices.go:21)	PCDATA	$0, $-2
	0x004b 00075 (/home/xzl/work/golang-1.22/golang-1.22/test/codegen/slices.go:21)	MOVQ	AX, 8(SP)
	0x0050 00080 (/home/xzl/work/golang-1.22/golang-1.22/test/codegen/slices.go:21)	MOVQ	BX, 16(SP)
	0x0055 00085 (/home/xzl/work/golang-1.22/golang-1.22/test/codegen/slices.go:21)	MOVQ	CX, 24(SP)
	0x005a 00090 (/home/xzl/work/golang-1.22/golang-1.22/test/codegen/slices.go:21)	CALL	runtime.morestack_noctxt(SB)
	0x005f 00095 (/home/xzl/work/golang-1.22/golang-1.22/test/codegen/slices.go:21)	PCDATA	$0, $-1
	0x005f 00095 (/home/xzl/work/golang-1.22/golang-1.22/test/codegen/slices.go:21)	MOVQ	8(SP), AX
	0x0064 00100 (/home/xzl/work/golang-1.22/golang-1.22/test/codegen/slices.go:21)	MOVQ	16(SP), BX
	0x0069 00105 (/home/xzl/work/golang-1.22/golang-1.22/test/codegen/slices.go:21)	MOVQ	24(SP), CX
	0x006e 00110 (/home/xzl/work/golang-1.22/golang-1.22/test/codegen/slices.go:21)	JMP	0
	0x0000 49 3b 66 10 76 45 55 48 89 e5 48 83 ec 10 48 89  I;f.vEUH..H...H.
	0x0010 44 24 20 48 85 db 74 2d 48 89 4c 24 30 48 89 44  D$ H..t-H.L$0H.D
	0x0020 24 20 48 89 5c 24 28 48 89 d9 48 c1 e1 03 48 89  $ H.\$(H..H...H.
	0x0030 cb e8 00 00 00 00 48 8b 44 24 20 48 8b 4c 24 30  ......H.D$ H.L$0
	0x0040 48 8b 5c 24 28 48 83 c4 10 5d c3 48 89 44 24 08  H.\$(H...].H.D$.
	0x0050 48 89 5c 24 10 48 89 4c 24 18 e8 00 00 00 00 48  H.\$.H.L$......H
	0x0060 8b 44 24 08 48 8b 5c 24 10 48 8b 4c 24 18 eb 90  .D$.H.\$.H.L$...
	rel 50+4 t=R_CALL runtime.memclrNoHeapPointers<1>+0
	rel 91+4 t=R_CALL runtime.morestack_noctxt<0>+0
command-line-arguments.SliceClearPointers<1> STEXT size=112 args=0x18 locals=0x18 funcid=0x0 align=0x0
	0x0000 00000 (/home/xzl/work/golang-1.22/golang-1.22/test/codegen/slices.go:30)	TEXT	command-line-arguments.SliceClearPointers(SB), ABIInternal, $24-24
	0x0000 00000 (/home/xzl/work/golang-1.22/golang-1.22/test/codegen/slices.go:30)	CMPQ	SP, 16(R14)
	0x0004 00004 (/home/xzl/work/golang-1.22/golang-1.22/test/codegen/slices.go:30)	PCDATA	$0, $-2
	0x0004 00004 (/home/xzl/work/golang-1.22/golang-1.22/test/codegen/slices.go:30)	JLS	75
	0x0006 00006 (/home/xzl/work/golang-1.22/golang-1.22/test/codegen/slices.go:30)	PCDATA	$0, $-1
	0x0006 00006 (/home/xzl/work/golang-1.22/golang-1.22/test/codegen/slices.go:30)	PUSHQ	BP
	0x0007 00007 (/home/xzl/work/golang-1.22/golang-1.22/test/codegen/slices.go:30)	MOVQ	SP, BP
	0x000a 00010 (/home/xzl/work/golang-1.22/golang-1.22/test/codegen/slices.go:30)	SUBQ	$16, SP
	0x000e 00014 (/home/xzl/work/golang-1.22/golang-1.22/test/codegen/slices.go:30)	MOVQ	AX, command-line-arguments.s+32(FP)
	0x0013 00019 (/home/xzl/work/golang-1.22/golang-1.22/test/codegen/slices.go:30)	FUNCDATA	$0, gclocals·wgcWObbY2HYnK2SU/U22lA==(SB)
	0x0013 00019 (/home/xzl/work/golang-1.22/golang-1.22/test/codegen/slices.go:30)	FUNCDATA	$1, gclocals·J5F+7Qw7O7ve2QcWC7DpeQ==(SB)
	0x0013 00019 (/home/xzl/work/golang-1.22/golang-1.22/test/codegen/slices.go:30)	FUNCDATA	$5, command-line-arguments.SliceClearPointers.arginfo1(SB)
	0x0013 00019 (/home/xzl/work/golang-1.22/golang-1.22/test/codegen/slices.go:30)	FUNCDATA	$6, command-line-arguments.SliceClearPointers.argliveinfo(SB)
	0x0013 00019 (/home/xzl/work/golang-1.22/golang-1.22/test/codegen/slices.go:30)	PCDATA	$3, $1
	0x0013 00019 (/home/xzl/work/golang-1.22/golang-1.22/test/codegen/slices.go:33)	TESTQ	BX, BX
	0x0016 00022 (/home/xzl/work/golang-1.22/golang-1.22/test/codegen/slices.go:33)	JEQ	69
	0x0018 00024 (/home/xzl/work/golang-1.22/golang-1.22/test/codegen/slices.go:33)	MOVQ	CX, command-line-arguments.s+48(SP)
	0x001d 00029 (/home/xzl/work/golang-1.22/golang-1.22/test/codegen/slices.go:33)	MOVQ	AX, command-line-arguments.s+32(SP)
	0x0022 00034 (/home/xzl/work/golang-1.22/golang-1.22/test/codegen/slices.go:33)	MOVQ	BX, command-line-arguments.s+40(SP)
	0x0027 00039 (/home/xzl/work/golang-1.22/golang-1.22/test/codegen/slices.go:33)	PCDATA	$3, $-1
	0x0027 00039 (/home/xzl/work/golang-1.22/golang-1.22/test/codegen/slices.go:33)	MOVQ	BX, CX
	0x002a 00042 (/home/xzl/work/golang-1.22/golang-1.22/test/codegen/slices.go:33)	SHLQ	$3, CX
	0x002e 00046 (/home/xzl/work/golang-1.22/golang-1.22/test/codegen/slices.go:33)	MOVQ	CX, BX
	0x0031 00049 (/home/xzl/work/golang-1.22/golang-1.22/test/codegen/slices.go:33)	PCDATA	$1, $0
	0x0031 00049 (/home/xzl/work/golang-1.22/golang-1.22/test/codegen/slices.go:33)	CALL	runtime.memclrHasPointers(SB)
	0x0036 00054 (/home/xzl/work/golang-1.22/golang-1.22/test/codegen/slices.go:36)	MOVQ	command-line-arguments.s+32(SP), AX
	0x003b 00059 (/home/xzl/work/golang-1.22/golang-1.22/test/codegen/slices.go:36)	MOVQ	command-line-arguments.s+48(SP), CX
	0x0040 00064 (/home/xzl/work/golang-1.22/golang-1.22/test/codegen/slices.go:36)	MOVQ	command-line-arguments.s+40(SP), BX
	0x0045 00069 (/home/xzl/work/golang-1.22/golang-1.22/test/codegen/slices.go:33)	PCDATA	$3, $1
	0x0045 00069 (/home/xzl/work/golang-1.22/golang-1.22/test/codegen/slices.go:36)	ADDQ	$16, SP
	0x0049 00073 (/home/xzl/work/golang-1.22/golang-1.22/test/codegen/slices.go:36)	POPQ	BP
	0x004a 00074 (/home/xzl/work/golang-1.22/golang-1.22/test/codegen/slices.go:36)	RET
	0x004b 00075 (/home/xzl/work/golang-1.22/golang-1.22/test/codegen/slices.go:36)	NOP
	0x004b 00075 (/home/xzl/work/golang-1.22/golang-1.22/test/codegen/slices.go:30)	PCDATA	$1, $-1
	0x004b 00075 (/home/xzl/work/golang-1.22/golang-1.22/test/codegen/slices.go:30)	PCDATA	$0, $-2
	0x004b 00075 (/home/xzl/work/golang-1.22/golang-1.22/test/codegen/slices.go:30)	MOVQ	AX, 8(SP)
	0x0050 00080 (/home/xzl/work/golang-1.22/golang-1.22/test/codegen/slices.go:30)	MOVQ	BX, 16(SP)
	0x0055 00085 (/home/xzl/work/golang-1.22/golang-1.22/test/codegen/slices.go:30)	MOVQ	CX, 24(SP)
	0x005a 00090 (/home/xzl/work/golang-1.22/golang-1.22/test/codegen/slices.go:30)	CALL	runtime.morestack_noctxt(SB)
	0x005f 00095 (/home/xzl/work/golang-1.22/golang-1.22/test/codegen/slices.go:30)	PCDATA	$0, $-1
	0x005f 00095 (/home/xzl/work/golang-1.22/golang-1.22/test/codegen/slices.go:30)	MOVQ	8(SP), AX
	0x0064 00100 (/home/xzl/work/golang-1.22/golang-1.22/test/codegen/slices.go:30)	MOVQ	16(SP), BX
	0x0069 00105 (/home/xzl/work/golang-1.22/golang-1.22/test/codegen/slices.go:30)	MOVQ	24(SP), CX
	0x006e 00110 (/home/xzl/work/golang-1.22/golang-1.22/test/codegen/slices.go:30)	JMP	0
	0x0000 49 3b 66 10 76 45 55 48 89 e5 48 83 ec 10 48 89  I;f.vEUH..H...H.
	0x0010 44 24 20 48 85 db 74 2d 48 89 4c 24 30 48 89 44  D$ H..t-H.L$0H.D
	0x0020 24 20 48 89 5c 24 28 48 89 d9 48 c1 e1 03 48 89  $ H.\$(H..H...H.
	0x0030 cb e8 00 00 00 00 48 8b 44 24 20 48 8b 4c 24 30  ......H.D$ H.L$0
	0x0040 48 8b 5c 24 28 48 83 c4 10 5d c3 48 89 44 24 08  H.\$(H...].H.D$.
	0x0050 48 89 5c 24 10 48 89 4c 24 18 e8 00 00 00 00 48  H.\$.H.L$......H
	0x0060 8b 44 24 08 48 8b 5c 24 10 48 8b 4c 24 18 eb 90  .D$.H.\$.H.L$...
	rel 50+4 t=R_CALL runtime.memclrHasPointers<1>+0
	rel 91+4 t=R_CALL runtime.morestack_noctxt<0>+0
command-line-arguments.SliceExtensionConst<1> STEXT size=105 args=0x18 locals=0x30 funcid=0x0 align=0x0
	0x0000 00000 (/home/xzl/work/golang-1.22/golang-1.22/test/codegen/slices.go:45)	TEXT	command-line-arguments.SliceExtensionConst(SB), ABIInternal, $48-24
	0x0000 00000 (/home/xzl/work/golang-1.22/golang-1.22/test/codegen/slices.go:45)	CMPQ	SP, 16(R14)
	0x0004 00004 (/home/xzl/work/golang-1.22/golang-1.22/test/codegen/slices.go:45)	PCDATA	$0, $-2
	0x0004 00004 (/home/xzl/work/golang-1.22/golang-1.22/test/codegen/slices.go:45)	JLS	68
	0x0006 00006 (/home/xzl/work/golang-1.22/golang-1.22/test/codegen/slices.go:45)	PCDATA	$0, $-1
	0x0006 00006 (/home/xzl/work/golang-1.22/golang-1.22/test/codegen/slices.go:45)	PUSHQ	BP
	0x0007 00007 (/home/xzl/work/golang-1.22/golang-1.22/test/codegen/slices.go:45)	MOVQ	SP, BP
	0x000a 00010 (/home/xzl/work/golang-1.22/golang-1.22/test/codegen/slices.go:45)	SUBQ	$40, SP
	0x000e 00014 (/home/xzl/work/golang-1.22/golang-1.22/test/codegen/slices.go:45)	MOVQ	AX, command-line-arguments.s+56(FP)
	0x0013 00019 (/home/xzl/work/golang-1.22/golang-1.22/test/codegen/slices.go:45)	FUNCDATA	$0, gclocals·wgcWObbY2HYnK2SU/U22lA==(SB)
	0x0013 00019 (/home/xzl/work/golang-1.22/golang-1.22/test/codegen/slices.go:45)	FUNCDATA	$1, gclocals·J5F+7Qw7O7ve2QcWC7DpeQ==(SB)
	0x0013 00019 (/home/xzl/work/golang-1.22/golang-1.22/test/codegen/slices.go:45)	FUNCDATA	$5, command-line-arguments.SliceExtensionConst.arginfo1(SB)
	0x0013 00019 (/home/xzl/work/golang-1.22/golang-1.22/test/codegen/slices.go:45)	FUNCDATA	$6, command-line-arguments.SliceExtensionConst.argliveinfo(SB)
	0x0013 00019 (/home/xzl/work/golang-1.22/golang-1.22/test/codegen/slices.go:45)	PCDATA	$3, $1
	0x0013 00019 (/home/xzl/work/golang-1.22/golang-1.22/test/codegen/slices.go:53)	ADDQ	$4, BX
	0x0017 00023 (/home/xzl/work/golang-1.22/golang-1.22/test/codegen/slices.go:53)	CMPQ	CX, BX
	0x001a 00026 (/home/xzl/work/golang-1.22/golang-1.22/test/codegen/slices.go:53)	JCC	45
	0x001c 00028 (/home/xzl/work/golang-1.22/golang-1.22/test/codegen/slices.go:53)	MOVL	$4, DI
	0x0021 00033 (/home/xzl/work/golang-1.22/golang-1.22/test/codegen/slices.go:53)	LEAQ	type:int(SB), SI
	0x0028 00040 (/home/xzl/work/golang-1.22/golang-1.22/test/codegen/slices.go:53)	PCDATA	$1, $1
	0x0028 00040 (/home/xzl/work/golang-1.22/golang-1.22/test/codegen/slices.go:53)	CALL	runtime.growslice(SB)
	0x002d 00045 (/home/xzl/work/golang-1.22/golang-1.22/test/codegen/slices.go:53)	LEAQ	(AX)(BX*8), DX
	0x0031 00049 (/home/xzl/work/golang-1.22/golang-1.22/test/codegen/slices.go:53)	LEAQ	-32(DX), DX
	0x0035 00053 (/home/xzl/work/golang-1.22/golang-1.22/test/codegen/slices.go:53)	MOVUPS	X15, (DX)
	0x0039 00057 (/home/xzl/work/golang-1.22/golang-1.22/test/codegen/slices.go:53)	MOVUPS	X15, 16(DX)
	0x003e 00062 (/home/xzl/work/golang-1.22/golang-1.22/test/codegen/slices.go:53)	ADDQ	$40, SP
	0x0042 00066 (/home/xzl/work/golang-1.22/golang-1.22/test/codegen/slices.go:53)	POPQ	BP
	0x0043 00067 (/home/xzl/work/golang-1.22/golang-1.22/test/codegen/slices.go:53)	RET
	0x0044 00068 (/home/xzl/work/golang-1.22/golang-1.22/test/codegen/slices.go:53)	NOP
	0x0044 00068 (/home/xzl/work/golang-1.22/golang-1.22/test/codegen/slices.go:45)	PCDATA	$1, $-1
	0x0044 00068 (/home/xzl/work/golang-1.22/golang-1.22/test/codegen/slices.go:45)	PCDATA	$0, $-2
	0x0044 00068 (/home/xzl/work/golang-1.22/golang-1.22/test/codegen/slices.go:45)	MOVQ	AX, 8(SP)
	0x0049 00073 (/home/xzl/work/golang-1.22/golang-1.22/test/codegen/slices.go:45)	MOVQ	BX, 16(SP)
	0x004e 00078 (/home/xzl/work/golang-1.22/golang-1.22/test/codegen/slices.go:45)	MOVQ	CX, 24(SP)
	0x0053 00083 (/home/xzl/work/golang-1.22/golang-1.22/test/codegen/slices.go:45)	CALL	runtime.morestack_noctxt(SB)
	0x0058 00088 (/home/xzl/work/golang-1.22/golang-1.22/test/codegen/slices.go:45)	PCDATA	$0, $-1
	0x0058 00088 (/home/xzl/work/golang-1.22/golang-1.22/test/codegen/slices.go:45)	MOVQ	8(SP), AX
	0x005d 00093 (/home/xzl/work/golang-1.22/golang-1.22/test/codegen/slices.go:45)	MOVQ	16(SP), BX
	0x0062 00098 (/home/xzl/work/golang-1.22/golang-1.22/test/codegen/slices.go:45)	MOVQ	24(SP), CX
	0x0067 00103 (/home/xzl/work/golang-1.22/golang-1.22/test/codegen/slices.go:45)	JMP	0
	0x0000 49 3b 66 10 76 3e 55 48 89 e5 48 83 ec 28 48 89  I;f.v>UH..H..(H.
	0x0010 44 24 38 48 83 c3 04 48 39 d9 73 11 bf 04 00 00  D$8H...H9.s.....
	0x0020 00 48 8d 35 00 00 00 00 e8 00 00 00 00 48 8d 14  .H.5.........H..
	0x0030 d8 48 8d 52 e0 44 0f 11 3a 44 0f 11 7a 10 48 83  .H.R.D..:D..z.H.
	0x0040 c4 28 5d c3 48 89 44 24 08 48 89 5c 24 10 48 89  .(].H.D$.H.\$.H.
	0x0050 4c 24 18 e8 00 00 00 00 48 8b 44 24 08 48 8b 5c  L$......H.D$.H.\
	0x0060 24 10 48 8b 4c 24 18 eb 97                       $.H.L$...
	rel 36+4 t=R_PCREL type:int<0>+0
	rel 41+4 t=R_CALL runtime.growslice<1>+0
	rel 84+4 t=R_CALL runtime.morestack_noctxt<0>+0
command-line-arguments.SliceExtensionConstInt64<1> STEXT size=105 args=0x18 locals=0x30 funcid=0x0 align=0x0
	0x0000 00000 (/home/xzl/work/golang-1.22/golang-1.22/test/codegen/slices.go:56)	TEXT	command-line-arguments.SliceExtensionConstInt64(SB), ABIInternal, $48-24
	0x0000 00000 (/home/xzl/work/golang-1.22/golang-1.22/test/codegen/slices.go:56)	CMPQ	SP, 16(R14)
	0x0004 00004 (/home/xzl/work/golang-1.22/golang-1.22/test/codegen/slices.go:56)	PCDATA	$0, $-2
	0x0004 00004 (/home/xzl/work/golang-1.22/golang-1.22/test/codegen/slices.go:56)	JLS	68
	0x0006 00006 (/home/xzl/work/golang-1.22/golang-1.22/test/codegen/slices.go:56)	PCDATA	$0, $-1
	0x0006 00006 (/home/xzl/work/golang-1.22/golang-1.22/test/codegen/slices.go:56)	PUSHQ	BP
	0x0007 00007 (/home/xzl/work/golang-1.22/golang-1.22/test/codegen/slices.go:56)	MOVQ	SP, BP
	0x000a 00010 (/home/xzl/work/golang-1.22/golang-1.22/test/codegen/slices.go:56)	SUBQ	$40, SP
	0x000e 00014 (/home/xzl/work/golang-1.22/golang-1.22/test/codegen/slices.go:56)	MOVQ	AX, command-line-arguments.s+56(FP)
	0x0013 00019 (/home/xzl/work/golang-1.22/golang-1.22/test/codegen/slices.go:56)	FUNCDATA	$0, gclocals·wgcWObbY2HYnK2SU/U22lA==(SB)
	0x0013 00019 (/home/xzl/work/golang-1.22/golang-1.22/test/codegen/slices.go:56)	FUNCDATA	$1, gclocals·J5F+7Qw7O7ve2QcWC7DpeQ==(SB)
	0x0013 00019 (/home/xzl/work/golang-1.22/golang-1.22/test/codegen/slices.go:56)	FUNCDATA	$5, command-line-arguments.SliceExtensionConstInt64.arginfo1(SB)
	0x0013 00019 (/home/xzl/work/golang-1.22/golang-1.22/test/codegen/slices.go:56)	FUNCDATA	$6, command-line-arguments.SliceExtensionConstInt64.argliveinfo(SB)
	0x0013 00019 (/home/xzl/work/golang-1.22/golang-1.22/test/codegen/slices.go:56)	PCDATA	$3, $1
	0x0013 00019 (/home/xzl/work/golang-1.22/golang-1.22/test/codegen/slices.go:64)	ADDQ	$4, BX
	0x0017 00023 (/home/xzl/work/golang-1.22/golang-1.22/test/codegen/slices.go:64)	CMPQ	CX, BX
	0x001a 00026 (/home/xzl/work/golang-1.22/golang-1.22/test/codegen/slices.go:64)	JCC	45
	0x001c 00028 (/home/xzl/work/golang-1.22/golang-1.22/test/codegen/slices.go:64)	MOVL	$4, DI
	0x0021 00033 (/home/xzl/work/golang-1.22/golang-1.22/test/codegen/slices.go:64)	LEAQ	type:int(SB), SI
	0x0028 00040 (/home/xzl/work/golang-1.22/golang-1.22/test/codegen/slices.go:64)	PCDATA	$1, $1
	0x0028 00040 (/home/xzl/work/golang-1.22/golang-1.22/test/codegen/slices.go:64)	CALL	runtime.growslice(SB)
	0x002d 00045 (/home/xzl/work/golang-1.22/golang-1.22/test/codegen/slices.go:64)	LEAQ	(AX)(BX*8), DX
	0x0031 00049 (/home/xzl/work/golang-1.22/golang-1.22/test/codegen/slices.go:64)	LEAQ	-32(DX), DX
	0x0035 00053 (/home/xzl/work/golang-1.22/golang-1.22/test/codegen/slices.go:64)	MOVUPS	X15, (DX)
	0x0039 00057 (/home/xzl/work/golang-1.22/golang-1.22/test/codegen/slices.go:64)	MOVUPS	X15, 16(DX)
	0x003e 00062 (/home/xzl/work/golang-1.22/golang-1.22/test/codegen/slices.go:64)	ADDQ	$40, SP
	0x0042 00066 (/home/xzl/work/golang-1.22/golang-1.22/test/codegen/slices.go:64)	POPQ	BP
	0x0043 00067 (/home/xzl/work/golang-1.22/golang-1.22/test/codegen/slices.go:64)	RET
	0x0044 00068 (/home/xzl/work/golang-1.22/golang-1.22/test/codegen/slices.go:64)	NOP
	0x0044 00068 (/home/xzl/work/golang-1.22/golang-1.22/test/codegen/slices.go:56)	PCDATA	$1, $-1
	0x0044 00068 (/home/xzl/work/golang-1.22/golang-1.22/test/codegen/slices.go:56)	PCDATA	$0, $-2
	0x0044 00068 (/home/xzl/work/golang-1.22/golang-1.22/test/codegen/slices.go:56)	MOVQ	AX, 8(SP)
	0x0049 00073 (/home/xzl/work/golang-1.22/golang-1.22/test/codegen/slices.go:56)	MOVQ	BX, 16(SP)
	0x004e 00078 (/home/xzl/work/golang-1.22/golang-1.22/test/codegen/slices.go:56)	MOVQ	CX, 24(SP)
	0x0053 00083 (/home/xzl/work/golang-1.22/golang-1.22/test/codegen/slices.go:56)	CALL	runtime.morestack_noctxt(SB)
	0x0058 00088 (/home/xzl/work/golang-1.22/golang-1.22/test/codegen/slices.go:56)	PCDATA	$0, $-1
	0x0058 00088 (/home/xzl/work/golang-1.22/golang-1.22/test/codegen/slices.go:56)	MOVQ	8(SP), AX
	0x005d 00093 (/home/xzl/work/golang-1.22/golang-1.22/test/codegen/slices.go:56)	MOVQ	16(SP), BX
	0x0062 00098 (/home/xzl/work/golang-1.22/golang-1.22/test/codegen/slices.go:56)	MOVQ	24(SP), CX
	0x0067 00103 (/home/xzl/work/golang-1.22/golang-1.22/test/codegen/slices.go:56)	JMP	0
	0x0000 49 3b 66 10 76 3e 55 48 89 e5 48 83 ec 28 48 89  I;f.v>UH..H..(H.
	0x0010 44 24 38 48 83 c3 04 48 39 d9 73 11 bf 04 00 00  D$8H...H9.s.....
	0x0020 00 48 8d 35 00 00 00 00 e8 00 00 00 00 48 8d 14  .H.5.........H..
	0x0030 d8 48 8d 52 e0 44 0f 11 3a 44 0f 11 7a 10 48 83  .H.R.D..:D..z.H.
	0x0040 c4 28 5d c3 48 89 44 24 08 48 89 5c 24 10 48 89  .(].H.D$.H.\$.H.
	0x0050 4c 24 18 e8 00 00 00 00 48 8b 44 24 08 48 8b 5c  L$......H.D$.H.\
	0x0060 24 10 48 8b 4c 24 18 eb 97                       $.H.L$...
	rel 36+4 t=R_PCREL type:int<0>+0
	rel 41+4 t=R_CALL runtime.growslice<1>+0
	rel 84+4 t=R_CALL runtime.morestack_noctxt<0>+0
command-line-arguments.SliceExtensionConstUint64<1> STEXT size=105 args=0x18 locals=0x30 funcid=0x0 align=0x0
	0x0000 00000 (/home/xzl/work/golang-1.22/golang-1.22/test/codegen/slices.go:67)	TEXT	command-line-arguments.SliceExtensionConstUint64(SB), ABIInternal, $48-24
	0x0000 00000 (/home/xzl/work/golang-1.22/golang-1.22/test/codegen/slices.go:67)	CMPQ	SP, 16(R14)
	0x0004 00004 (/home/xzl/work/golang-1.22/golang-1.22/test/codegen/slices.go:67)	PCDATA	$0, $-2
	0x0004 00004 (/home/xzl/work/golang-1.22/golang-1.22/test/codegen/slices.go:67)	JLS	68
	0x0006 00006 (/home/xzl/work/golang-1.22/golang-1.22/test/codegen/slices.go:67)	PCDATA	$0, $-1
	0x0006 00006 (/home/xzl/work/golang-1.22/golang-1.22/test/codegen/slices.go:67)	PUSHQ	BP
	0x0007 00007 (/home/xzl/work/golang-1.22/golang-1.22/test/codegen/slices.go:67)	MOVQ	SP, BP
	0x000a 00010 (/home/xzl/work/golang-1.22/golang-1.22/test/codegen/slices.go:67)	SUBQ	$40, SP
	0x000e 00014 (/home/xzl/work/golang-1.22/golang-1.22/test/codegen/slices.go:67)	MOVQ	AX, command-line-arguments.s+56(FP)
	0x0013 00019 (/home/xzl/work/golang-1.22/golang-1.22/test/codegen/slices.go:67)	FUNCDATA	$0, gclocals·wgcWObbY2HYnK2SU/U22lA==(SB)
	0x0013 00019 (/home/xzl/work/golang-1.22/golang-1.22/test/codegen/slices.go:67)	FUNCDATA	$1, gclocals·J5F+7Qw7O7ve2QcWC7DpeQ==(SB)
	0x0013 00019 (/home/xzl/work/golang-1.22/golang-1.22/test/codegen/slices.go:67)	FUNCDATA	$5, command-line-arguments.SliceExtensionConstUint64.arginfo1(SB)
	0x0013 00019 (/home/xzl/work/golang-1.22/golang-1.22/test/codegen/slices.go:67)	FUNCDATA	$6, command-line-arguments.SliceExtensionConstUint64.argliveinfo(SB)
	0x0013 00019 (/home/xzl/work/golang-1.22/golang-1.22/test/codegen/slices.go:67)	PCDATA	$3, $1
	0x0013 00019 (/home/xzl/work/golang-1.22/golang-1.22/test/codegen/slices.go:75)	ADDQ	$4, BX
	0x0017 00023 (/home/xzl/work/golang-1.22/golang-1.22/test/codegen/slices.go:75)	CMPQ	CX, BX
	0x001a 00026 (/home/xzl/work/golang-1.22/golang-1.22/test/codegen/slices.go:75)	JCC	45
	0x001c 00028 (/home/xzl/work/golang-1.22/golang-1.22/test/codegen/slices.go:75)	MOVL	$4, DI
	0x0021 00033 (/home/xzl/work/golang-1.22/golang-1.22/test/codegen/slices.go:75)	LEAQ	type:int(SB), SI
	0x0028 00040 (/home/xzl/work/golang-1.22/golang-1.22/test/codegen/slices.go:75)	PCDATA	$1, $1
	0x0028 00040 (/home/xzl/work/golang-1.22/golang-1.22/test/codegen/slices.go:75)	CALL	runtime.growslice(SB)
	0x002d 00045 (/home/xzl/work/golang-1.22/golang-1.22/test/codegen/slices.go:75)	LEAQ	(AX)(BX*8), DX
	0x0031 00049 (/home/xzl/work/golang-1.22/golang-1.22/test/codegen/slices.go:75)	LEAQ	-32(DX), DX
	0x0035 00053 (/home/xzl/work/golang-1.22/golang-1.22/test/codegen/slices.go:75)	MOVUPS	X15, (DX)
	0x0039 00057 (/home/xzl/work/golang-1.22/golang-1.22/test/codegen/slices.go:75)	MOVUPS	X15, 16(DX)
	0x003e 00062 (/home/xzl/work/golang-1.22/golang-1.22/test/codegen/slices.go:75)	ADDQ	$40, SP
	0x0042 00066 (/home/xzl/work/golang-1.22/golang-1.22/test/codegen/slices.go:75)	POPQ	BP
	0x0043 00067 (/home/xzl/work/golang-1.22/golang-1.22/test/codegen/slices.go:75)	RET
	0x0044 00068 (/home/xzl/work/golang-1.22/golang-1.22/test/codegen/slices.go:75)	NOP
	0x0044 00068 (/home/xzl/work/golang-1.22/golang-1.22/test/codegen/slices.go:67)	PCDATA	$1, $-1
	0x0044 00068 (/home/xzl/work/golang-1.22/golang-1.22/test/codegen/slices.go:67)	PCDATA	$0, $-2
	0x0044 00068 (/home/xzl/work/golang-1.22/golang-1.22/test/codegen/slices.go:67)	MOVQ	AX, 8(SP)
	0x0049 00073 (/home/xzl/work/golang-1.22/golang-1.22/test/codegen/slices.go:67)	MOVQ	BX, 16(SP)
	0x004e 00078 (/home/xzl/work/golang-1.22/golang-1.22/test/codegen/slices.go:67)	MOVQ	CX, 24(SP)
	0x0053 00083 (/home/xzl/work/golang-1.22/golang-1.22/test/codegen/slices.go:67)	CALL	runtime.morestack_noctxt(SB)
	0x0058 00088 (/home/xzl/work/golang-1.22/golang-1.22/test/codegen/slices.go:67)	PCDATA	$0, $-1
	0x0058 00088 (/home/xzl/work/golang-1.22/golang-1.22/test/codegen/slices.go:67)	MOVQ	8(SP), AX
	0x005d 00093 (/home/xzl/work/golang-1.22/golang-1.22/test/codegen/slices.go:67)	MOVQ	16(SP), BX
	0x0062 00098 (/home/xzl/work/golang-1.22/golang-1.22/test/codegen/slices.go:67)	MOVQ	24(SP), CX
	0x0067 00103 (/home/xzl/work/golang-1.22/golang-1.22/test/codegen/slices.go:67)	JMP	0
	0x0000 49 3b 66 10 76 3e 55 48 89 e5 48 83 ec 28 48 89  I;f.v>UH..H..(H.
	0x0010 44 24 38 48 83 c3 04 48 39 d9 73 11 bf 04 00 00  D$8H...H9.s.....
	0x0020 00 48 8d 35 00 00 00 00 e8 00 00 00 00 48 8d 14  .H.5.........H..
	0x0030 d8 48 8d 52 e0 44 0f 11 3a 44 0f 11 7a 10 48 83  .H.R.D..:D..z.H.
	0x0040 c4 28 5d c3 48 89 44 24 08 48 89 5c 24 10 48 89  .(].H.D$.H.\$.H.
	0x0050 4c 24 18 e8 00 00 00 00 48 8b 44 24 08 48 8b 5c  L$......H.D$.H.\
	0x0060 24 10 48 8b 4c 24 18 eb 97                       $.H.L$...
	rel 36+4 t=R_PCREL type:int<0>+0
	rel 41+4 t=R_CALL runtime.growslice<1>+0
	rel 84+4 t=R_CALL runtime.morestack_noctxt<0>+0
command-line-arguments.SliceExtensionConstUint<1> STEXT size=105 args=0x18 locals=0x30 funcid=0x0 align=0x0
	0x0000 00000 (/home/xzl/work/golang-1.22/golang-1.22/test/codegen/slices.go:78)	TEXT	command-line-arguments.SliceExtensionConstUint(SB), ABIInternal, $48-24
	0x0000 00000 (/home/xzl/work/golang-1.22/golang-1.22/test/codegen/slices.go:78)	CMPQ	SP, 16(R14)
	0x0004 00004 (/home/xzl/work/golang-1.22/golang-1.22/test/codegen/slices.go:78)	PCDATA	$0, $-2
	0x0004 00004 (/home/xzl/work/golang-1.22/golang-1.22/test/codegen/slices.go:78)	JLS	68
	0x0006 00006 (/home/xzl/work/golang-1.22/golang-1.22/test/codegen/slices.go:78)	PCDATA	$0, $-1
	0x0006 00006 (/home/xzl/work/golang-1.22/golang-1.22/test/codegen/slices.go:78)	PUSHQ	BP
	0x0007 00007 (/home/xzl/work/golang-1.22/golang-1.22/test/codegen/slices.go:78)	MOVQ	SP, BP
	0x000a 00010 (/home/xzl/work/golang-1.22/golang-1.22/test/codegen/slices.go:78)	SUBQ	$40, SP
	0x000e 00014 (/home/xzl/work/golang-1.22/golang-1.22/test/codegen/slices.go:78)	MOVQ	AX, command-line-arguments.s+56(FP)
	0x0013 00019 (/home/xzl/work/golang-1.22/golang-1.22/test/codegen/slices.go:78)	FUNCDATA	$0, gclocals·wgcWObbY2HYnK2SU/U22lA==(SB)
	0x0013 00019 (/home/xzl/work/golang-1.22/golang-1.22/test/codegen/slices.go:78)	FUNCDATA	$1, gclocals·J5F+7Qw7O7ve2QcWC7DpeQ==(SB)
	0x0013 00019 (/home/xzl/work/golang-1.22/golang-1.22/test/codegen/slices.go:78)	FUNCDATA	$5, command-line-arguments.SliceExtensionConstUint.arginfo1(SB)
	0x0013 00019 (/home/xzl/work/golang-1.22/golang-1.22/test/codegen/slices.go:78)	FUNCDATA	$6, command-line-arguments.SliceExtensionConstUint.argliveinfo(SB)
	0x0013 00019 (/home/xzl/work/golang-1.22/golang-1.22/test/codegen/slices.go:78)	PCDATA	$3, $1
	0x0013 00019 (/home/xzl/work/golang-1.22/golang-1.22/test/codegen/slices.go:86)	ADDQ	$4, BX
	0x0017 00023 (/home/xzl/work/golang-1.22/golang-1.22/test/codegen/slices.go:86)	CMPQ	CX, BX
	0x001a 00026 (/home/xzl/work/golang-1.22/golang-1.22/test/codegen/slices.go:86)	JCC	45
	0x001c 00028 (/home/xzl/work/golang-1.22/golang-1.22/test/codegen/slices.go:86)	MOVL	$4, DI
	0x0021 00033 (/home/xzl/work/golang-1.22/golang-1.22/test/codegen/slices.go:86)	LEAQ	type:int(SB), SI
	0x0028 00040 (/home/xzl/work/golang-1.22/golang-1.22/test/codegen/slices.go:86)	PCDATA	$1, $1
	0x0028 00040 (/home/xzl/work/golang-1.22/golang-1.22/test/codegen/slices.go:86)	CALL	runtime.growslice(SB)
	0x002d 00045 (/home/xzl/work/golang-1.22/golang-1.22/test/codegen/slices.go:86)	LEAQ	(AX)(BX*8), DX
	0x0031 00049 (/home/xzl/work/golang-1.22/golang-1.22/test/codegen/slices.go:86)	LEAQ	-32(DX), DX
	0x0035 00053 (/home/xzl/work/golang-1.22/golang-1.22/test/codegen/slices.go:86)	MOVUPS	X15, (DX)
	0x0039 00057 (/home/xzl/work/golang-1.22/golang-1.22/test/codegen/slices.go:86)	MOVUPS	X15, 16(DX)
	0x003e 00062 (/home/xzl/work/golang-1.22/golang-1.22/test/codegen/slices.go:86)	ADDQ	$40, SP
	0x0042 00066 (/home/xzl/work/golang-1.22/golang-1.22/test/codegen/slices.go:86)	POPQ	BP
	0x0043 00067 (/home/xzl/work/golang-1.22/golang-1.22/test/codegen/slices.go:86)	RET
	0x0044 00068 (/home/xzl/work/golang-1.22/golang-1.22/test/codegen/slices.go:86)	NOP
	0x0044 00068 (/home/xzl/work/golang-1.22/golang-1.22/test/codegen/slices.go:78)	PCDATA	$1, $-1
	0x0044 00068 (/home/xzl/work/golang-1.22/golang-1.22/test/codegen/slices.go:78)	PCDATA	$0, $-2
	0x0044 00068 (/home/xzl/work/golang-1.22/golang-1.22/test/codegen/slices.go:78)	MOVQ	AX, 8(SP)
	0x0049 00073 (/home/xzl/work/golang-1.22/golang-1.22/test/codegen/slices.go:78)	MOVQ	BX, 16(SP)
	0x004e 00078 (/home/xzl/work/golang-1.22/golang-1.22/test/codegen/slices.go:78)	MOVQ	CX, 24(SP)
	0x0053 00083 (/home/xzl/work/golang-1.22/golang-1.22/test/codegen/slices.go:78)	CALL	runtime.morestack_noctxt(SB)
	0x0058 00088 (/home/xzl/work/golang-1.22/golang-1.22/test/codegen/slices.go:78)	PCDATA	$0, $-1
	0x0058 00088 (/home/xzl/work/golang-1.22/golang-1.22/test/codegen/slices.go:78)	MOVQ	8(SP), AX
	0x005d 00093 (/home/xzl/work/golang-1.22/golang-1.22/test/codegen/slices.go:78)	MOVQ	16(SP), BX
	0x0062 00098 (/home/xzl/work/golang-1.22/golang-1.22/test/codegen/slices.go:78)	MOVQ	24(SP), CX
	0x0067 00103 (/home/xzl/work/golang-1.22/golang-1.22/test/codegen/slices.go:78)	JMP	0
	0x0000 49 3b 66 10 76 3e 55 48 89 e5 48 83 ec 28 48 89  I;f.v>UH..H..(H.
	0x0010 44 24 38 48 83 c3 04 48 39 d9 73 11 bf 04 00 00  D$8H...H9.s.....
	0x0020 00 48 8d 35 00 00 00 00 e8 00 00 00 00 48 8d 14  .H.5.........H..
	0x0030 d8 48 8d 52 e0 44 0f 11 3a 44 0f 11 7a 10 48 83  .H.R.D..:D..z.H.
	0x0040 c4 28 5d c3 48 89 44 24 08 48 89 5c 24 10 48 89  .(].H.D$.H.\$.H.
	0x0050 4c 24 18 e8 00 00 00 00 48 8b 44 24 08 48 8b 5c  L$......H.D$.H.\
	0x0060 24 10 48 8b 4c 24 18 eb 97                       $.H.L$...
	rel 36+4 t=R_PCREL type:int<0>+0
	rel 41+4 t=R_CALL runtime.growslice<1>+0
	rel 84+4 t=R_CALL runtime.morestack_noctxt<0>+0
command-line-arguments.SliceExtensionConst512<1> STEXT size=124 args=0x18 locals=0x30 funcid=0x0 align=0x0
	0x0000 00000 (/home/xzl/work/golang-1.22/golang-1.22/test/codegen/slices.go:91)	TEXT	command-line-arguments.SliceExtensionConst512(SB), ABIInternal, $48-24
	0x0000 00000 (/home/xzl/work/golang-1.22/golang-1.22/test/codegen/slices.go:91)	CMPQ	SP, 16(R14)
	0x0004 00004 (/home/xzl/work/golang-1.22/golang-1.22/test/codegen/slices.go:91)	PCDATA	$0, $-2
	0x0004 00004 (/home/xzl/work/golang-1.22/golang-1.22/test/codegen/slices.go:91)	JLS	87
	0x0006 00006 (/home/xzl/work/golang-1.22/golang-1.22/test/codegen/slices.go:91)	PCDATA	$0, $-1
	0x0006 00006 (/home/xzl/work/golang-1.22/golang-1.22/test/codegen/slices.go:91)	PUSHQ	BP
	0x0007 00007 (/home/xzl/work/golang-1.22/golang-1.22/test/codegen/slices.go:91)	MOVQ	SP, BP
	0x000a 00010 (/home/xzl/work/golang-1.22/golang-1.22/test/codegen/slices.go:91)	SUBQ	$40, SP
	0x000e 00014 (/home/xzl/work/golang-1.22/golang-1.22/test/codegen/slices.go:91)	MOVQ	AX, command-line-arguments.s+56(FP)
	0x0013 00019 (/home/xzl/work/golang-1.22/golang-1.22/test/codegen/slices.go:91)	FUNCDATA	$0, gclocals·wgcWObbY2HYnK2SU/U22lA==(SB)
	0x0013 00019 (/home/xzl/work/golang-1.22/golang-1.22/test/codegen/slices.go:91)	FUNCDATA	$1, gclocals·J5F+7Qw7O7ve2QcWC7DpeQ==(SB)
	0x0013 00019 (/home/xzl/work/golang-1.22/golang-1.22/test/codegen/slices.go:91)	FUNCDATA	$5, command-line-arguments.SliceExtensionConst512.arginfo1(SB)
	0x0013 00019 (/home/xzl/work/golang-1.22/golang-1.22/test/codegen/slices.go:91)	FUNCDATA	$6, command-line-arguments.SliceExtensionConst512.argliveinfo(SB)
	0x0013 00019 (/home/xzl/work/golang-1.22/golang-1.22/test/codegen/slices.go:91)	PCDATA	$3, $1
	0x0013 00019 (/home/xzl/work/golang-1.22/golang-1.22/test/codegen/slices.go:94)	ADDQ	$512, BX
	0x001a 00026 (/home/xzl/work/golang-1.22/golang-1.22/test/codegen/slices.go:94)	CMPQ	CX, BX
	0x001d 00029 (/home/xzl/work/golang-1.22/golang-1.22/test/codegen/slices.go:94)	JCC	48
	0x001f 00031 (/home/xzl/work/golang-1.22/golang-1.22/test/codegen/slices.go:94)	MOVL	$512, DI
	0x0024 00036 (/home/xzl/work/golang-1.22/golang-1.22/test/codegen/slices.go:94)	LEAQ	type:int(SB), SI
	0x002b 00043 (/home/xzl/work/golang-1.22/golang-1.22/test/codegen/slices.go:94)	PCDATA	$1, $1
	0x002b 00043 (/home/xzl/work/golang-1.22/golang-1.22/test/codegen/slices.go:94)	CALL	runtime.growslice(SB)
	0x0030 00048 (/home/xzl/work/golang-1.22/golang-1.22/test/codegen/slices.go:94)	LEAQ	(AX)(BX*8), DI
	0x0034 00052 (/home/xzl/work/golang-1.22/golang-1.22/test/codegen/slices.go:94)	LEAQ	-4096(DI), DI
	0x003b 00059 (/home/xzl/work/golang-1.22/golang-1.22/test/codegen/slices.go:94)	MOVQ	CX, DX
	0x003e 00062 (/home/xzl/work/golang-1.22/golang-1.22/test/codegen/slices.go:94)	MOVL	$512, CX
	0x0043 00067 (/home/xzl/work/golang-1.22/golang-1.22/test/codegen/slices.go:94)	MOVQ	AX, SI
	0x0046 00070 (/home/xzl/work/golang-1.22/golang-1.22/test/codegen/slices.go:94)	XORL	AX, AX
	0x0048 00072 (/home/xzl/work/golang-1.22/golang-1.22/test/codegen/slices.go:94)	REP
	0x0049 00073 (/home/xzl/work/golang-1.22/golang-1.22/test/codegen/slices.go:94)	STOSQ
	0x004b 00075 (/home/xzl/work/golang-1.22/golang-1.22/test/codegen/slices.go:94)	MOVQ	SI, AX
	0x004e 00078 (/home/xzl/work/golang-1.22/golang-1.22/test/codegen/slices.go:94)	MOVQ	DX, CX
	0x0051 00081 (/home/xzl/work/golang-1.22/golang-1.22/test/codegen/slices.go:94)	ADDQ	$40, SP
	0x0055 00085 (/home/xzl/work/golang-1.22/golang-1.22/test/codegen/slices.go:94)	POPQ	BP
	0x0056 00086 (/home/xzl/work/golang-1.22/golang-1.22/test/codegen/slices.go:94)	RET
	0x0057 00087 (/home/xzl/work/golang-1.22/golang-1.22/test/codegen/slices.go:94)	NOP
	0x0057 00087 (/home/xzl/work/golang-1.22/golang-1.22/test/codegen/slices.go:91)	PCDATA	$1, $-1
	0x0057 00087 (/home/xzl/work/golang-1.22/golang-1.22/test/codegen/slices.go:91)	PCDATA	$0, $-2
	0x0057 00087 (/home/xzl/work/golang-1.22/golang-1.22/test/codegen/slices.go:91)	MOVQ	AX, 8(SP)
	0x005c 00092 (/home/xzl/work/golang-1.22/golang-1.22/test/codegen/slices.go:91)	MOVQ	BX, 16(SP)
	0x0061 00097 (/home/xzl/work/golang-1.22/golang-1.22/test/codegen/slices.go:91)	MOVQ	CX, 24(SP)
	0x0066 00102 (/home/xzl/work/golang-1.22/golang-1.22/test/codegen/slices.go:91)	CALL	runtime.morestack_noctxt(SB)
	0x006b 00107 (/home/xzl/work/golang-1.22/golang-1.22/test/codegen/slices.go:91)	PCDATA	$0, $-1
	0x006b 00107 (/home/xzl/work/golang-1.22/golang-1.22/test/codegen/slices.go:91)	MOVQ	8(SP), AX
	0x0070 00112 (/home/xzl/work/golang-1.22/golang-1.22/test/codegen/slices.go:91)	MOVQ	16(SP), BX
	0x0075 00117 (/home/xzl/work/golang-1.22/golang-1.22/test/codegen/slices.go:91)	MOVQ	24(SP), CX
	0x007a 00122 (/home/xzl/work/golang-1.22/golang-1.22/test/codegen/slices.go:91)	JMP	0
	0x0000 49 3b 66 10 76 51 55 48 89 e5 48 83 ec 28 48 89  I;f.vQUH..H..(H.
	0x0010 44 24 38 48 81 c3 00 02 00 00 48 39 d9 73 11 bf  D$8H......H9.s..
	0x0020 00 02 00 00 48 8d 35 00 00 00 00 e8 00 00 00 00  ....H.5.........
	0x0030 48 8d 3c d8 48 8d bf 00 f0 ff ff 48 89 ca b9 00  H.<.H......H....
	0x0040 02 00 00 48 89 c6 31 c0 f3 48 ab 48 89 f0 48 89  ...H..1..H.H..H.
	0x0050 d1 48 83 c4 28 5d c3 48 89 44 24 08 48 89 5c 24  .H..(].H.D$.H.\$
	0x0060 10 48 89 4c 24 18 e8 00 00 00 00 48 8b 44 24 08  .H.L$......H.D$.
	0x0070 48 8b 5c 24 10 48 8b 4c 24 18 eb 84              H.\$.H.L$...
	rel 39+4 t=R_PCREL type:int<0>+0
	rel 44+4 t=R_CALL runtime.growslice<1>+0
	rel 103+4 t=R_CALL runtime.morestack_noctxt<0>+0
command-line-arguments.SliceExtensionPointer<1> STEXT size=165 args=0x20 locals=0x38 funcid=0x0 align=0x0
	0x0000 00000 (/home/xzl/work/golang-1.22/golang-1.22/test/codegen/slices.go:97)	TEXT	command-line-arguments.SliceExtensionPointer(SB), ABIInternal, $56-32
	0x0000 00000 (/home/xzl/work/golang-1.22/golang-1.22/test/codegen/slices.go:97)	CMPQ	SP, 16(R14)
	0x0004 00004 (/home/xzl/work/golang-1.22/golang-1.22/test/codegen/slices.go:97)	PCDATA	$0, $-2
	0x0004 00004 (/home/xzl/work/golang-1.22/golang-1.22/test/codegen/slices.go:97)	JLS	115
	0x0006 00006 (/home/xzl/work/golang-1.22/golang-1.22/test/codegen/slices.go:97)	PCDATA	$0, $-1
	0x0006 00006 (/home/xzl/work/golang-1.22/golang-1.22/test/codegen/slices.go:97)	PUSHQ	BP
	0x0007 00007 (/home/xzl/work/golang-1.22/golang-1.22/test/codegen/slices.go:97)	MOVQ	SP, BP
	0x000a 00010 (/home/xzl/work/golang-1.22/golang-1.22/test/codegen/slices.go:97)	SUBQ	$48, SP
	0x000e 00014 (/home/xzl/work/golang-1.22/golang-1.22/test/codegen/slices.go:97)	MOVQ	AX, command-line-arguments.s+64(FP)
	0x0013 00019 (/home/xzl/work/golang-1.22/golang-1.22/test/codegen/slices.go:97)	FUNCDATA	$0, gclocals·wgcWObbY2HYnK2SU/U22lA==(SB)
	0x0013 00019 (/home/xzl/work/golang-1.22/golang-1.22/test/codegen/slices.go:97)	FUNCDATA	$1, gclocals·J5F+7Qw7O7ve2QcWC7DpeQ==(SB)
	0x0013 00019 (/home/xzl/work/golang-1.22/golang-1.22/test/codegen/slices.go:97)	FUNCDATA	$5, command-line-arguments.SliceExtensionPointer.arginfo1(SB)
	0x0013 00019 (/home/xzl/work/golang-1.22/golang-1.22/test/codegen/slices.go:97)	FUNCDATA	$6, command-line-arguments.SliceExtensionPointer.argliveinfo(SB)
	0x0013 00019 (/home/xzl/work/golang-1.22/golang-1.22/test/codegen/slices.go:97)	PCDATA	$3, $1
	0x0013 00019 (/home/xzl/work/golang-1.22/golang-1.22/test/codegen/slices.go:102)	TESTQ	DI, DI
	0x0016 00022 (/home/xzl/work/golang-1.22/golang-1.22/test/codegen/slices.go:102)	JLT	109
	0x0018 00024 (/home/xzl/work/golang-1.22/golang-1.22/test/codegen/slices.go:102)	LEAQ	(BX)(DI*1), DX
	0x001c 00028 (/home/xzl/work/golang-1.22/golang-1.22/test/codegen/slices.go:102)	NOP
	0x0020 00032 (/home/xzl/work/golang-1.22/golang-1.22/test/codegen/slices.go:102)	CMPQ	CX, DX
	0x0023 00035 (/home/xzl/work/golang-1.22/golang-1.22/test/codegen/slices.go:102)	JCS	88
	0x0025 00037 (/home/xzl/work/golang-1.22/golang-1.22/test/codegen/slices.go:102)	MOVQ	DX, command-line-arguments..autotmp_7+40(SP)
	0x002a 00042 (/home/xzl/work/golang-1.22/golang-1.22/test/codegen/slices.go:102)	MOVQ	AX, command-line-arguments.s+64(SP)
	0x002f 00047 (/home/xzl/work/golang-1.22/golang-1.22/test/codegen/slices.go:102)	MOVQ	CX, command-line-arguments.s+80(SP)
	0x0034 00052 (/home/xzl/work/golang-1.22/golang-1.22/test/codegen/slices.go:102)	PCDATA	$3, $2
	0x0034 00052 (/home/xzl/work/golang-1.22/golang-1.22/test/codegen/slices.go:102)	LEAQ	(AX)(BX*8), CX
	0x0038 00056 (/home/xzl/work/golang-1.22/golang-1.22/test/codegen/slices.go:102)	SHLQ	$3, DI
	0x003c 00060 (/home/xzl/work/golang-1.22/golang-1.22/test/codegen/slices.go:102)	MOVQ	DI, BX
	0x003f 00063 (/home/xzl/work/golang-1.22/golang-1.22/test/codegen/slices.go:102)	MOVQ	CX, AX
	0x0042 00066 (/home/xzl/work/golang-1.22/golang-1.22/test/codegen/slices.go:102)	PCDATA	$1, $0
	0x0042 00066 (/home/xzl/work/golang-1.22/golang-1.22/test/codegen/slices.go:102)	CALL	runtime.memclrHasPointers(SB)
	0x0047 00071 (/home/xzl/work/golang-1.22/golang-1.22/test/codegen/slices.go:102)	MOVQ	command-line-arguments.s+80(SP), CX
	0x004c 00076 (/home/xzl/work/golang-1.22/golang-1.22/test/codegen/slices.go:102)	MOVQ	command-line-arguments..autotmp_7+40(SP), BX
	0x0051 00081 (/home/xzl/work/golang-1.22/golang-1.22/test/codegen/slices.go:102)	MOVQ	command-line-arguments.s+64(SP), AX
	0x0056 00086 (/home/xzl/work/golang-1.22/golang-1.22/test/codegen/slices.go:102)	JMP	103
	0x0058 00088 (/home/xzl/work/golang-1.22/golang-1.22/test/codegen/slices.go:102)	PCDATA	$3, $1
	0x0058 00088 (/home/xzl/work/golang-1.22/golang-1.22/test/codegen/slices.go:102)	MOVQ	DX, BX
	0x005b 00091 (/home/xzl/work/golang-1.22/golang-1.22/test/codegen/slices.go:102)	LEAQ	type:*int(SB), SI
	0x0062 00098 (/home/xzl/work/golang-1.22/golang-1.22/test/codegen/slices.go:102)	PCDATA	$1, $1
	0x0062 00098 (/home/xzl/work/golang-1.22/golang-1.22/test/codegen/slices.go:102)	CALL	runtime.growslice(SB)
	0x0067 00103 (/home/xzl/work/golang-1.22/golang-1.22/test/codegen/slices.go:102)	ADDQ	$48, SP
	0x006b 00107 (/home/xzl/work/golang-1.22/golang-1.22/test/codegen/slices.go:102)	POPQ	BP
	0x006c 00108 (/home/xzl/work/golang-1.22/golang-1.22/test/codegen/slices.go:102)	RET
	0x006d 00109 (/home/xzl/work/golang-1.22/golang-1.22/test/codegen/slices.go:102)	CALL	runtime.panicmakeslicelen(SB)
	0x0072 00114 (/home/xzl/work/golang-1.22/golang-1.22/test/codegen/slices.go:102)	XCHGL	AX, AX
	0x0073 00115 (/home/xzl/work/golang-1.22/golang-1.22/test/codegen/slices.go:102)	NOP
	0x0073 00115 (/home/xzl/work/golang-1.22/golang-1.22/test/codegen/slices.go:97)	PCDATA	$1, $-1
	0x0073 00115 (/home/xzl/work/golang-1.22/golang-1.22/test/codegen/slices.go:97)	PCDATA	$0, $-2
	0x0073 00115 (/home/xzl/work/golang-1.22/golang-1.22/test/codegen/slices.go:97)	MOVQ	AX, 8(SP)
	0x0078 00120 (/home/xzl/work/golang-1.22/golang-1.22/test/codegen/slices.go:97)	MOVQ	BX, 16(SP)
	0x007d 00125 (/home/xzl/work/golang-1.22/golang-1.22/test/codegen/slices.go:97)	MOVQ	CX, 24(SP)
	0x0082 00130 (/home/xzl/work/golang-1.22/golang-1.22/test/codegen/slices.go:97)	MOVQ	DI, 32(SP)
	0x0087 00135 (/home/xzl/work/golang-1.22/golang-1.22/test/codegen/slices.go:97)	CALL	runtime.morestack_noctxt(SB)
	0x008c 00140 (/home/xzl/work/golang-1.22/golang-1.22/test/codegen/slices.go:97)	PCDATA	$0, $-1
	0x008c 00140 (/home/xzl/work/golang-1.22/golang-1.22/test/codegen/slices.go:97)	MOVQ	8(SP), AX
	0x0091 00145 (/home/xzl/work/golang-1.22/golang-1.22/test/codegen/slices.go:97)	MOVQ	16(SP), BX
	0x0096 00150 (/home/xzl/work/golang-1.22/golang-1.22/test/codegen/slices.go:97)	MOVQ	24(SP), CX
	0x009b 00155 (/home/xzl/work/golang-1.22/golang-1.22/test/codegen/slices.go:97)	MOVQ	32(SP), DI
	0x00a0 00160 (/home/xzl/work/golang-1.22/golang-1.22/test/codegen/slices.go:97)	JMP	0
	0x0000 49 3b 66 10 76 6d 55 48 89 e5 48 83 ec 30 48 89  I;f.vmUH..H..0H.
	0x0010 44 24 40 48 85 ff 7c 55 48 8d 14 3b 0f 1f 40 00  D$@H..|UH..;..@.
	0x0020 48 39 d1 72 33 48 89 54 24 28 48 89 44 24 40 48  H9.r3H.T$(H.D$@H
	0x0030 89 4c 24 50 48 8d 0c d8 48 c1 e7 03 48 89 fb 48  .L$PH...H...H..H
	0x0040 89 c8 e8 00 00 00 00 48 8b 4c 24 50 48 8b 5c 24  .......H.L$PH.\$
	0x0050 28 48 8b 44 24 40 eb 0f 48 89 d3 48 8d 35 00 00  (H.D$@..H..H.5..
	0x0060 00 00 e8 00 00 00 00 48 83 c4 30 5d c3 e8 00 00  .......H..0]....
	0x0070 00 00 90 48 89 44 24 08 48 89 5c 24 10 48 89 4c  ...H.D$.H.\$.H.L
	0x0080 24 18 48 89 7c 24 20 e8 00 00 00 00 48 8b 44 24  $.H.|$ .....H.D$
	0x0090 08 48 8b 5c 24 10 48 8b 4c 24 18 48 8b 7c 24 20  .H.\$.H.L$.H.|$ 
	0x00a0 e9 5b ff ff ff                                   .[...
	rel 67+4 t=R_CALL runtime.memclrHasPointers<1>+0
	rel 94+4 t=R_PCREL type:*int<0>+0
	rel 99+4 t=R_CALL runtime.growslice<1>+0
	rel 110+4 t=R_CALL runtime.panicmakeslicelen<1>+0
	rel 136+4 t=R_CALL runtime.morestack_noctxt<0>+0
command-line-arguments.SliceExtensionVar<1> STEXT size=169 args=0x20 locals=0x48 funcid=0x0 align=0x0
	0x0000 00000 (/home/xzl/work/golang-1.22/golang-1.22/test/codegen/slices.go:105)	TEXT	command-line-arguments.SliceExtensionVar(SB), ABIInternal, $72-32
	0x0000 00000 (/home/xzl/work/golang-1.22/golang-1.22/test/codegen/slices.go:105)	CMPQ	SP, 16(R14)
	0x0004 00004 (/home/xzl/work/golang-1.22/golang-1.22/test/codegen/slices.go:105)	PCDATA	$0, $-2
	0x0004 00004 (/home/xzl/work/golang-1.22/golang-1.22/test/codegen/slices.go:105)	JLS	119
	0x0006 00006 (/home/xzl/work/golang-1.22/golang-1.22/test/codegen/slices.go:105)	PCDATA	$0, $-1
	0x0006 00006 (/home/xzl/work/golang-1.22/golang-1.22/test/codegen/slices.go:105)	PUSHQ	BP
	0x0007 00007 (/home/xzl/work/golang-1.22/golang-1.22/test/codegen/slices.go:105)	MOVQ	SP, BP
	0x000a 00010 (/home/xzl/work/golang-1.22/golang-1.22/test/codegen/slices.go:105)	SUBQ	$64, SP
	0x000e 00014 (/home/xzl/work/golang-1.22/golang-1.22/test/codegen/slices.go:105)	MOVQ	AX, command-line-arguments.s+80(FP)
	0x0013 00019 (/home/xzl/work/golang-1.22/golang-1.22/test/codegen/slices.go:105)	FUNCDATA	$0, gclocals·ZzMiPAiVBg7DJ6dh/CjSag==(SB)
	0x0013 00019 (/home/xzl/work/golang-1.22/golang-1.22/test/codegen/slices.go:105)	FUNCDATA	$1, gclocals·dGrMWTWIngKGfVYjHi0adA==(SB)
	0x0013 00019 (/home/xzl/work/golang-1.22/golang-1.22/test/codegen/slices.go:105)	FUNCDATA	$5, command-line-arguments.SliceExtensionVar.arginfo1(SB)
	0x0013 00019 (/home/xzl/work/golang-1.22/golang-1.22/test/codegen/slices.go:105)	FUNCDATA	$6, command-line-arguments.SliceExtensionVar.argliveinfo(SB)
	0x0013 00019 (/home/xzl/work/golang-1.22/golang-1.22/test/codegen/slices.go:105)	PCDATA	$3, $1
	0x0013 00019 (/home/xzl/work/golang-1.22/golang-1.22/test/codegen/slices.go:110)	TESTQ	DI, DI
	0x0016 00022 (/home/xzl/work/golang-1.22/golang-1.22/test/codegen/slices.go:110)	JLT	113
	0x0018 00024 (/home/xzl/work/golang-1.22/golang-1.22/test/codegen/slices.go:110)	ADDQ	DI, BX
	0x001b 00027 (/home/xzl/work/golang-1.22/golang-1.22/test/codegen/slices.go:110)	NOP
	0x0020 00032 (/home/xzl/work/golang-1.22/golang-1.22/test/codegen/slices.go:110)	CMPQ	CX, BX
	0x0023 00035 (/home/xzl/work/golang-1.22/golang-1.22/test/codegen/slices.go:110)	JCC	59
	0x0025 00037 (/home/xzl/work/golang-1.22/golang-1.22/test/codegen/slices.go:110)	MOVQ	DI, command-line-arguments.l+104(SP)
	0x002a 00042 (/home/xzl/work/golang-1.22/golang-1.22/test/codegen/slices.go:110)	PCDATA	$3, $2
	0x002a 00042 (/home/xzl/work/golang-1.22/golang-1.22/test/codegen/slices.go:110)	LEAQ	type:uint8(SB), SI
	0x0031 00049 (/home/xzl/work/golang-1.22/golang-1.22/test/codegen/slices.go:110)	PCDATA	$1, $1
	0x0031 00049 (/home/xzl/work/golang-1.22/golang-1.22/test/codegen/slices.go:110)	CALL	runtime.growslice(SB)
	0x0036 00054 (/home/xzl/work/golang-1.22/golang-1.22/test/codegen/slices.go:110)	MOVQ	command-line-arguments.l+104(SP), DI
	0x003b 00059 (/home/xzl/work/golang-1.22/golang-1.22/test/codegen/slices.go:110)	PCDATA	$3, $1
	0x003b 00059 (/home/xzl/work/golang-1.22/golang-1.22/test/codegen/slices.go:110)	MOVQ	CX, command-line-arguments..autotmp_7+48(SP)
	0x0040 00064 (/home/xzl/work/golang-1.22/golang-1.22/test/codegen/slices.go:110)	MOVQ	BX, command-line-arguments..autotmp_8+40(SP)
	0x0045 00069 (/home/xzl/work/golang-1.22/golang-1.22/test/codegen/slices.go:110)	MOVQ	AX, command-line-arguments..autotmp_9+56(SP)
	0x004a 00074 (/home/xzl/work/golang-1.22/golang-1.22/test/codegen/slices.go:110)	SUBQ	DI, BX
	0x004d 00077 (/home/xzl/work/golang-1.22/golang-1.22/test/codegen/slices.go:110)	LEAQ	(AX)(BX*1), SI
	0x0051 00081 (/home/xzl/work/golang-1.22/golang-1.22/test/codegen/slices.go:110)	MOVQ	DI, BX
	0x0054 00084 (/home/xzl/work/golang-1.22/golang-1.22/test/codegen/slices.go:110)	MOVQ	SI, AX
	0x0057 00087 (/home/xzl/work/golang-1.22/golang-1.22/test/codegen/slices.go:110)	PCDATA	$1, $2
	0x0057 00087 (/home/xzl/work/golang-1.22/golang-1.22/test/codegen/slices.go:110)	CALL	runtime.memclrNoHeapPointers(SB)
	0x005c 00092 (/home/xzl/work/golang-1.22/golang-1.22/test/codegen/slices.go:110)	MOVQ	command-line-arguments..autotmp_9+56(SP), AX
	0x0061 00097 (/home/xzl/work/golang-1.22/golang-1.22/test/codegen/slices.go:110)	MOVQ	command-line-arguments..autotmp_8+40(SP), BX
	0x0066 00102 (/home/xzl/work/golang-1.22/golang-1.22/test/codegen/slices.go:110)	MOVQ	command-line-arguments..autotmp_7+48(SP), CX
	0x006b 00107 (/home/xzl/work/golang-1.22/golang-1.22/test/codegen/slices.go:110)	ADDQ	$64, SP
	0x006f 00111 (/home/xzl/work/golang-1.22/golang-1.22/test/codegen/slices.go:110)	POPQ	BP
	0x0070 00112 (/home/xzl/work/golang-1.22/golang-1.22/test/codegen/slices.go:110)	RET
	0x0071 00113 (/home/xzl/work/golang-1.22/golang-1.22/test/codegen/slices.go:110)	PCDATA	$1, $1
	0x0071 00113 (/home/xzl/work/golang-1.22/golang-1.22/test/codegen/slices.go:110)	CALL	runtime.panicmakeslicelen(SB)
	0x0076 00118 (/home/xzl/work/golang-1.22/golang-1.22/test/codegen/slices.go:110)	XCHGL	AX, AX
	0x0077 00119 (/home/xzl/work/golang-1.22/golang-1.22/test/codegen/slices.go:110)	NOP
	0x0077 00119 (/home/xzl/work/golang-1.22/golang-1.22/test/codegen/slices.go:105)	PCDATA	$1, $-1
	0x0077 00119 (/home/xzl/work/golang-1.22/golang-1.22/test/codegen/slices.go:105)	PCDATA	$0, $-2
	0x0077 00119 (/home/xzl/work/golang-1.22/golang-1.22/test/codegen/slices.go:105)	MOVQ	AX, 8(SP)
	0x007c 00124 (/home/xzl/work/golang-1.22/golang-1.22/test/codegen/slices.go:105)	MOVQ	BX, 16(SP)
	0x0081 00129 (/home/xzl/work/golang-1.22/golang-1.22/test/codegen/slices.go:105)	MOVQ	CX, 24(SP)
	0x0086 00134 (/home/xzl/work/golang-1.22/golang-1.22/test/codegen/slices.go:105)	MOVQ	DI, 32(SP)
	0x008b 00139 (/home/xzl/work/golang-1.22/golang-1.22/test/codegen/slices.go:105)	CALL	runtime.morestack_noctxt(SB)
	0x0090 00144 (/home/xzl/work/golang-1.22/golang-1.22/test/codegen/slices.go:105)	PCDATA	$0, $-1
	0x0090 00144 (/home/xzl/work/golang-1.22/golang-1.22/test/codegen/slices.go:105)	MOVQ	8(SP), AX
	0x0095 00149 (/home/xzl/work/golang-1.22/golang-1.22/test/codegen/slices.go:105)	MOVQ	16(SP), BX
	0x009a 00154 (/home/xzl/work/golang-1.22/golang-1.22/test/codegen/slices.go:105)	MOVQ	24(SP), CX
	0x009f 00159 (/home/xzl/work/golang-1.22/golang-1.22/test/codegen/slices.go:105)	MOVQ	32(SP), DI
	0x00a4 00164 (/home/xzl/work/golang-1.22/golang-1.22/test/codegen/slices.go:105)	JMP	0
	0x0000 49 3b 66 10 76 71 55 48 89 e5 48 83 ec 40 48 89  I;f.vqUH..H..@H.
	0x0010 44 24 50 48 85 ff 7c 59 48 01 fb 0f 1f 44 00 00  D$PH..|YH....D..
	0x0020 48 39 d9 73 16 48 89 7c 24 68 48 8d 35 00 00 00  H9.s.H.|$hH.5...
	0x0030 00 e8 00 00 00 00 48 8b 7c 24 68 48 89 4c 24 30  ......H.|$hH.L$0
	0x0040 48 89 5c 24 28 48 89 44 24 38 48 29 fb 48 8d 34  H.\$(H.D$8H).H.4
	0x0050 18 48 89 fb 48 89 f0 e8 00 00 00 00 48 8b 44 24  .H..H.......H.D$
	0x0060 38 48 8b 5c 24 28 48 8b 4c 24 30 48 83 c4 40 5d  8H.\$(H.L$0H..@]
	0x0070 c3 e8 00 00 00 00 90 48 89 44 24 08 48 89 5c 24  .......H.D$.H.\$
	0x0080 10 48 89 4c 24 18 48 89 7c 24 20 e8 00 00 00 00  .H.L$.H.|$ .....
	0x0090 48 8b 44 24 08 48 8b 5c 24 10 48 8b 4c 24 18 48  H.D$.H.\$.H.L$.H
	0x00a0 8b 7c 24 20 e9 57 ff ff ff                       .|$ .W...
	rel 45+4 t=R_PCREL type:uint8<0>+0
	rel 50+4 t=R_CALL runtime.growslice<1>+0
	rel 88+4 t=R_CALL runtime.memclrNoHeapPointers<1>+0
	rel 114+4 t=R_CALL runtime.panicmakeslicelen<1>+0
	rel 140+4 t=R_CALL runtime.morestack_noctxt<0>+0
command-line-arguments.SliceExtensionVarInt64<1> STEXT size=169 args=0x20 locals=0x48 funcid=0x0 align=0x0
	0x0000 00000 (/home/xzl/work/golang-1.22/golang-1.22/test/codegen/slices.go:113)	TEXT	command-line-arguments.SliceExtensionVarInt64(SB), ABIInternal, $72-32
	0x0000 00000 (/home/xzl/work/golang-1.22/golang-1.22/test/codegen/slices.go:113)	CMPQ	SP, 16(R14)
	0x0004 00004 (/home/xzl/work/golang-1.22/golang-1.22/test/codegen/slices.go:113)	PCDATA	$0, $-2
	0x0004 00004 (/home/xzl/work/golang-1.22/golang-1.22/test/codegen/slices.go:113)	JLS	119
	0x0006 00006 (/home/xzl/work/golang-1.22/golang-1.22/test/codegen/slices.go:113)	PCDATA	$0, $-1
	0x0006 00006 (/home/xzl/work/golang-1.22/golang-1.22/test/codegen/slices.go:113)	PUSHQ	BP
	0x0007 00007 (/home/xzl/work/golang-1.22/golang-1.22/test/codegen/slices.go:113)	MOVQ	SP, BP
	0x000a 00010 (/home/xzl/work/golang-1.22/golang-1.22/test/codegen/slices.go:113)	SUBQ	$64, SP
	0x000e 00014 (/home/xzl/work/golang-1.22/golang-1.22/test/codegen/slices.go:113)	MOVQ	AX, command-line-arguments.s+80(FP)
	0x0013 00019 (/home/xzl/work/golang-1.22/golang-1.22/test/codegen/slices.go:113)	FUNCDATA	$0, gclocals·ZzMiPAiVBg7DJ6dh/CjSag==(SB)
	0x0013 00019 (/home/xzl/work/golang-1.22/golang-1.22/test/codegen/slices.go:113)	FUNCDATA	$1, gclocals·dGrMWTWIngKGfVYjHi0adA==(SB)
	0x0013 00019 (/home/xzl/work/golang-1.22/golang-1.22/test/codegen/slices.go:113)	FUNCDATA	$5, command-line-arguments.SliceExtensionVarInt64.arginfo1(SB)
	0x0013 00019 (/home/xzl/work/golang-1.22/golang-1.22/test/codegen/slices.go:113)	FUNCDATA	$6, command-line-arguments.SliceExtensionVarInt64.argliveinfo(SB)
	0x0013 00019 (/home/xzl/work/golang-1.22/golang-1.22/test/codegen/slices.go:113)	PCDATA	$3, $1
	0x0013 00019 (/home/xzl/work/golang-1.22/golang-1.22/test/codegen/slices.go:117)	TESTQ	DI, DI
	0x0016 00022 (/home/xzl/work/golang-1.22/golang-1.22/test/codegen/slices.go:117)	JLT	113
	0x0018 00024 (/home/xzl/work/golang-1.22/golang-1.22/test/codegen/slices.go:117)	ADDQ	DI, BX
	0x001b 00027 (/home/xzl/work/golang-1.22/golang-1.22/test/codegen/slices.go:117)	NOP
	0x0020 00032 (/home/xzl/work/golang-1.22/golang-1.22/test/codegen/slices.go:117)	CMPQ	CX, BX
	0x0023 00035 (/home/xzl/work/golang-1.22/golang-1.22/test/codegen/slices.go:117)	JCC	59
	0x0025 00037 (/home/xzl/work/golang-1.22/golang-1.22/test/codegen/slices.go:117)	MOVQ	DI, command-line-arguments.l+104(SP)
	0x002a 00042 (/home/xzl/work/golang-1.22/golang-1.22/test/codegen/slices.go:117)	PCDATA	$3, $2
	0x002a 00042 (/home/xzl/work/golang-1.22/golang-1.22/test/codegen/slices.go:117)	LEAQ	type:uint8(SB), SI
	0x0031 00049 (/home/xzl/work/golang-1.22/golang-1.22/test/codegen/slices.go:117)	PCDATA	$1, $1
	0x0031 00049 (/home/xzl/work/golang-1.22/golang-1.22/test/codegen/slices.go:117)	CALL	runtime.growslice(SB)
	0x0036 00054 (/home/xzl/work/golang-1.22/golang-1.22/test/codegen/slices.go:117)	MOVQ	command-line-arguments.l+104(SP), DI
	0x003b 00059 (/home/xzl/work/golang-1.22/golang-1.22/test/codegen/slices.go:117)	PCDATA	$3, $1
	0x003b 00059 (/home/xzl/work/golang-1.22/golang-1.22/test/codegen/slices.go:117)	MOVQ	CX, command-line-arguments..autotmp_8+48(SP)
	0x0040 00064 (/home/xzl/work/golang-1.22/golang-1.22/test/codegen/slices.go:117)	MOVQ	BX, command-line-arguments..autotmp_9+40(SP)
	0x0045 00069 (/home/xzl/work/golang-1.22/golang-1.22/test/codegen/slices.go:117)	MOVQ	AX, command-line-arguments..autotmp_10+56(SP)
	0x004a 00074 (/home/xzl/work/golang-1.22/golang-1.22/test/codegen/slices.go:117)	SUBQ	DI, BX
	0x004d 00077 (/home/xzl/work/golang-1.22/golang-1.22/test/codegen/slices.go:117)	LEAQ	(AX)(BX*1), SI
	0x0051 00081 (/home/xzl/work/golang-1.22/golang-1.22/test/codegen/slices.go:117)	MOVQ	DI, BX
	0x0054 00084 (/home/xzl/work/golang-1.22/golang-1.22/test/codegen/slices.go:117)	MOVQ	SI, AX
	0x0057 00087 (/home/xzl/work/golang-1.22/golang-1.22/test/codegen/slices.go:117)	PCDATA	$1, $2
	0x0057 00087 (/home/xzl/work/golang-1.22/golang-1.22/test/codegen/slices.go:117)	CALL	runtime.memclrNoHeapPointers(SB)
	0x005c 00092 (/home/xzl/work/golang-1.22/golang-1.22/test/codegen/slices.go:117)	MOVQ	command-line-arguments..autotmp_10+56(SP), AX
	0x0061 00097 (/home/xzl/work/golang-1.22/golang-1.22/test/codegen/slices.go:117)	MOVQ	command-line-arguments..autotmp_9+40(SP), BX
	0x0066 00102 (/home/xzl/work/golang-1.22/golang-1.22/test/codegen/slices.go:117)	MOVQ	command-line-arguments..autotmp_8+48(SP), CX
	0x006b 00107 (/home/xzl/work/golang-1.22/golang-1.22/test/codegen/slices.go:117)	ADDQ	$64, SP
	0x006f 00111 (/home/xzl/work/golang-1.22/golang-1.22/test/codegen/slices.go:117)	POPQ	BP
	0x0070 00112 (/home/xzl/work/golang-1.22/golang-1.22/test/codegen/slices.go:117)	RET
	0x0071 00113 (/home/xzl/work/golang-1.22/golang-1.22/test/codegen/slices.go:117)	PCDATA	$1, $1
	0x0071 00113 (/home/xzl/work/golang-1.22/golang-1.22/test/codegen/slices.go:117)	CALL	runtime.panicmakeslicelen(SB)
	0x0076 00118 (/home/xzl/work/golang-1.22/golang-1.22/test/codegen/slices.go:117)	XCHGL	AX, AX
	0x0077 00119 (/home/xzl/work/golang-1.22/golang-1.22/test/codegen/slices.go:117)	NOP
	0x0077 00119 (/home/xzl/work/golang-1.22/golang-1.22/test/codegen/slices.go:113)	PCDATA	$1, $-1
	0x0077 00119 (/home/xzl/work/golang-1.22/golang-1.22/test/codegen/slices.go:113)	PCDATA	$0, $-2
	0x0077 00119 (/home/xzl/work/golang-1.22/golang-1.22/test/codegen/slices.go:113)	MOVQ	AX, 8(SP)
	0x007c 00124 (/home/xzl/work/golang-1.22/golang-1.22/test/codegen/slices.go:113)	MOVQ	BX, 16(SP)
	0x0081 00129 (/home/xzl/work/golang-1.22/golang-1.22/test/codegen/slices.go:113)	MOVQ	CX, 24(SP)
	0x0086 00134 (/home/xzl/work/golang-1.22/golang-1.22/test/codegen/slices.go:113)	MOVQ	DI, 32(SP)
	0x008b 00139 (/home/xzl/work/golang-1.22/golang-1.22/test/codegen/slices.go:113)	CALL	runtime.morestack_noctxt(SB)
	0x0090 00144 (/home/xzl/work/golang-1.22/golang-1.22/test/codegen/slices.go:113)	PCDATA	$0, $-1
	0x0090 00144 (/home/xzl/work/golang-1.22/golang-1.22/test/codegen/slices.go:113)	MOVQ	8(SP), AX
	0x0095 00149 (/home/xzl/work/golang-1.22/golang-1.22/test/codegen/slices.go:113)	MOVQ	16(SP), BX
	0x009a 00154 (/home/xzl/work/golang-1.22/golang-1.22/test/codegen/slices.go:113)	MOVQ	24(SP), CX
	0x009f 00159 (/home/xzl/work/golang-1.22/golang-1.22/test/codegen/slices.go:113)	MOVQ	32(SP), DI
	0x00a4 00164 (/home/xzl/work/golang-1.22/golang-1.22/test/codegen/slices.go:113)	JMP	0
	0x0000 49 3b 66 10 76 71 55 48 89 e5 48 83 ec 40 48 89  I;f.vqUH..H..@H.
	0x0010 44 24 50 48 85 ff 7c 59 48 01 fb 0f 1f 44 00 00  D$PH..|YH....D..
	0x0020 48 39 d9 73 16 48 89 7c 24 68 48 8d 35 00 00 00  H9.s.H.|$hH.5...
	0x0030 00 e8 00 00 00 00 48 8b 7c 24 68 48 89 4c 24 30  ......H.|$hH.L$0
	0x0040 48 89 5c 24 28 48 89 44 24 38 48 29 fb 48 8d 34  H.\$(H.D$8H).H.4
	0x0050 18 48 89 fb 48 89 f0 e8 00 00 00 00 48 8b 44 24  .H..H.......H.D$
	0x0060 38 48 8b 5c 24 28 48 8b 4c 24 30 48 83 c4 40 5d  8H.\$(H.L$0H..@]
	0x0070 c3 e8 00 00 00 00 90 48 89 44 24 08 48 89 5c 24  .......H.D$.H.\$
	0x0080 10 48 89 4c 24 18 48 89 7c 24 20 e8 00 00 00 00  .H.L$.H.|$ .....
	0x0090 48 8b 44 24 08 48 8b 5c 24 10 48 8b 4c 24 18 48  H.D$.H.\$.H.L$.H
	0x00a0 8b 7c 24 20 e9 57 ff ff ff                       .|$ .W...
	rel 45+4 t=R_PCREL type:uint8<0>+0
	rel 50+4 t=R_CALL runtime.growslice<1>+0
	rel 88+4 t=R_CALL runtime.memclrNoHeapPointers<1>+0
	rel 114+4 t=R_CALL runtime.panicmakeslicelen<1>+0
	rel 140+4 t=R_CALL runtime.morestack_noctxt<0>+0
command-line-arguments.SliceExtensionVarUint64<1> STEXT size=169 args=0x20 locals=0x48 funcid=0x0 align=0x0
	0x0000 00000 (/home/xzl/work/golang-1.22/golang-1.22/test/codegen/slices.go:120)	TEXT	command-line-arguments.SliceExtensionVarUint64(SB), ABIInternal, $72-32
	0x0000 00000 (/home/xzl/work/golang-1.22/golang-1.22/test/codegen/slices.go:120)	CMPQ	SP, 16(R14)
	0x0004 00004 (/home/xzl/work/golang-1.22/golang-1.22/test/codegen/slices.go:120)	PCDATA	$0, $-2
	0x0004 00004 (/home/xzl/work/golang-1.22/golang-1.22/test/codegen/slices.go:120)	JLS	119
	0x0006 00006 (/home/xzl/work/golang-1.22/golang-1.22/test/codegen/slices.go:120)	PCDATA	$0, $-1
	0x0006 00006 (/home/xzl/work/golang-1.22/golang-1.22/test/codegen/slices.go:120)	PUSHQ	BP
	0x0007 00007 (/home/xzl/work/golang-1.22/golang-1.22/test/codegen/slices.go:120)	MOVQ	SP, BP
	0x000a 00010 (/home/xzl/work/golang-1.22/golang-1.22/test/codegen/slices.go:120)	SUBQ	$64, SP
	0x000e 00014 (/home/xzl/work/golang-1.22/golang-1.22/test/codegen/slices.go:120)	MOVQ	AX, command-line-arguments.s+80(FP)
	0x0013 00019 (/home/xzl/work/golang-1.22/golang-1.22/test/codegen/slices.go:120)	FUNCDATA	$0, gclocals·ZzMiPAiVBg7DJ6dh/CjSag==(SB)
	0x0013 00019 (/home/xzl/work/golang-1.22/golang-1.22/test/codegen/slices.go:120)	FUNCDATA	$1, gclocals·dGrMWTWIngKGfVYjHi0adA==(SB)
	0x0013 00019 (/home/xzl/work/golang-1.22/golang-1.22/test/codegen/slices.go:120)	FUNCDATA	$5, command-line-arguments.SliceExtensionVarUint64.arginfo1(SB)
	0x0013 00019 (/home/xzl/work/golang-1.22/golang-1.22/test/codegen/slices.go:120)	FUNCDATA	$6, command-line-arguments.SliceExtensionVarUint64.argliveinfo(SB)
	0x0013 00019 (/home/xzl/work/golang-1.22/golang-1.22/test/codegen/slices.go:120)	PCDATA	$3, $1
	0x0013 00019 (/home/xzl/work/golang-1.22/golang-1.22/test/codegen/slices.go:124)	TESTQ	DI, DI
	0x0016 00022 (/home/xzl/work/golang-1.22/golang-1.22/test/codegen/slices.go:124)	JLT	113
	0x0018 00024 (/home/xzl/work/golang-1.22/golang-1.22/test/codegen/slices.go:124)	ADDQ	DI, BX
	0x001b 00027 (/home/xzl/work/golang-1.22/golang-1.22/test/codegen/slices.go:124)	NOP
	0x0020 00032 (/home/xzl/work/golang-1.22/golang-1.22/test/codegen/slices.go:124)	CMPQ	CX, BX
	0x0023 00035 (/home/xzl/work/golang-1.22/golang-1.22/test/codegen/slices.go:124)	JCC	59
	0x0025 00037 (/home/xzl/work/golang-1.22/golang-1.22/test/codegen/slices.go:124)	MOVQ	DI, command-line-arguments.l+104(SP)
	0x002a 00042 (/home/xzl/work/golang-1.22/golang-1.22/test/codegen/slices.go:124)	PCDATA	$3, $2
	0x002a 00042 (/home/xzl/work/golang-1.22/golang-1.22/test/codegen/slices.go:124)	LEAQ	type:uint8(SB), SI
	0x0031 00049 (/home/xzl/work/golang-1.22/golang-1.22/test/codegen/slices.go:124)	PCDATA	$1, $1
	0x0031 00049 (/home/xzl/work/golang-1.22/golang-1.22/test/codegen/slices.go:124)	CALL	runtime.growslice(SB)
	0x0036 00054 (/home/xzl/work/golang-1.22/golang-1.22/test/codegen/slices.go:124)	MOVQ	command-line-arguments.l+104(SP), DI
	0x003b 00059 (/home/xzl/work/golang-1.22/golang-1.22/test/codegen/slices.go:124)	PCDATA	$3, $1
	0x003b 00059 (/home/xzl/work/golang-1.22/golang-1.22/test/codegen/slices.go:124)	MOVQ	CX, command-line-arguments..autotmp_8+48(SP)
	0x0040 00064 (/home/xzl/work/golang-1.22/golang-1.22/test/codegen/slices.go:124)	MOVQ	BX, command-line-arguments..autotmp_9+40(SP)
	0x0045 00069 (/home/xzl/work/golang-1.22/golang-1.22/test/codegen/slices.go:124)	MOVQ	AX, command-line-arguments..autotmp_10+56(SP)
	0x004a 00074 (/home/xzl/work/golang-1.22/golang-1.22/test/codegen/slices.go:124)	SUBQ	DI, BX
	0x004d 00077 (/home/xzl/work/golang-1.22/golang-1.22/test/codegen/slices.go:124)	LEAQ	(AX)(BX*1), SI
	0x0051 00081 (/home/xzl/work/golang-1.22/golang-1.22/test/codegen/slices.go:124)	MOVQ	DI, BX
	0x0054 00084 (/home/xzl/work/golang-1.22/golang-1.22/test/codegen/slices.go:124)	MOVQ	SI, AX
	0x0057 00087 (/home/xzl/work/golang-1.22/golang-1.22/test/codegen/slices.go:124)	PCDATA	$1, $2
	0x0057 00087 (/home/xzl/work/golang-1.22/golang-1.22/test/codegen/slices.go:124)	CALL	runtime.memclrNoHeapPointers(SB)
	0x005c 00092 (/home/xzl/work/golang-1.22/golang-1.22/test/codegen/slices.go:124)	MOVQ	command-line-arguments..autotmp_10+56(SP), AX
	0x0061 00097 (/home/xzl/work/golang-1.22/golang-1.22/test/codegen/slices.go:124)	MOVQ	command-line-arguments..autotmp_9+40(SP), BX
	0x0066 00102 (/home/xzl/work/golang-1.22/golang-1.22/test/codegen/slices.go:124)	MOVQ	command-line-arguments..autotmp_8+48(SP), CX
	0x006b 00107 (/home/xzl/work/golang-1.22/golang-1.22/test/codegen/slices.go:124)	ADDQ	$64, SP
	0x006f 00111 (/home/xzl/work/golang-1.22/golang-1.22/test/codegen/slices.go:124)	POPQ	BP
	0x0070 00112 (/home/xzl/work/golang-1.22/golang-1.22/test/codegen/slices.go:124)	RET
	0x0071 00113 (/home/xzl/work/golang-1.22/golang-1.22/test/codegen/slices.go:124)	PCDATA	$1, $1
	0x0071 00113 (/home/xzl/work/golang-1.22/golang-1.22/test/codegen/slices.go:124)	CALL	runtime.panicmakeslicelen(SB)
	0x0076 00118 (/home/xzl/work/golang-1.22/golang-1.22/test/codegen/slices.go:124)	XCHGL	AX, AX
	0x0077 00119 (/home/xzl/work/golang-1.22/golang-1.22/test/codegen/slices.go:124)	NOP
	0x0077 00119 (/home/xzl/work/golang-1.22/golang-1.22/test/codegen/slices.go:120)	PCDATA	$1, $-1
	0x0077 00119 (/home/xzl/work/golang-1.22/golang-1.22/test/codegen/slices.go:120)	PCDATA	$0, $-2
	0x0077 00119 (/home/xzl/work/golang-1.22/golang-1.22/test/codegen/slices.go:120)	MOVQ	AX, 8(SP)
	0x007c 00124 (/home/xzl/work/golang-1.22/golang-1.22/test/codegen/slices.go:120)	MOVQ	BX, 16(SP)
	0x0081 00129 (/home/xzl/work/golang-1.22/golang-1.22/test/codegen/slices.go:120)	MOVQ	CX, 24(SP)
	0x0086 00134 (/home/xzl/work/golang-1.22/golang-1.22/test/codegen/slices.go:120)	MOVQ	DI, 32(SP)
	0x008b 00139 (/home/xzl/work/golang-1.22/golang-1.22/test/codegen/slices.go:120)	CALL	runtime.morestack_noctxt(SB)
	0x0090 00144 (/home/xzl/work/golang-1.22/golang-1.22/test/codegen/slices.go:120)	PCDATA	$0, $-1
	0x0090 00144 (/home/xzl/work/golang-1.22/golang-1.22/test/codegen/slices.go:120)	MOVQ	8(SP), AX
	0x0095 00149 (/home/xzl/work/golang-1.22/golang-1.22/test/codegen/slices.go:120)	MOVQ	16(SP), BX
	0x009a 00154 (/home/xzl/work/golang-1.22/golang-1.22/test/codegen/slices.go:120)	MOVQ	24(SP), CX
	0x009f 00159 (/home/xzl/work/golang-1.22/golang-1.22/test/codegen/slices.go:120)	MOVQ	32(SP), DI
	0x00a4 00164 (/home/xzl/work/golang-1.22/golang-1.22/test/codegen/slices.go:120)	JMP	0
	0x0000 49 3b 66 10 76 71 55 48 89 e5 48 83 ec 40 48 89  I;f.vqUH..H..@H.
	0x0010 44 24 50 48 85 ff 7c 59 48 01 fb 0f 1f 44 00 00  D$PH..|YH....D..
	0x0020 48 39 d9 73 16 48 89 7c 24 68 48 8d 35 00 00 00  H9.s.H.|$hH.5...
	0x0030 00 e8 00 00 00 00 48 8b 7c 24 68 48 89 4c 24 30  ......H.|$hH.L$0
	0x0040 48 89 5c 24 28 48 89 44 24 38 48 29 fb 48 8d 34  H.\$(H.D$8H).H.4
	0x0050 18 48 89 fb 48 89 f0 e8 00 00 00 00 48 8b 44 24  .H..H.......H.D$
	0x0060 38 48 8b 5c 24 28 48 8b 4c 24 30 48 83 c4 40 5d  8H.\$(H.L$0H..@]
	0x0070 c3 e8 00 00 00 00 90 48 89 44 24 08 48 89 5c 24  .......H.D$.H.\$
	0x0080 10 48 89 4c 24 18 48 89 7c 24 20 e8 00 00 00 00  .H.L$.H.|$ .....
	0x0090 48 8b 44 24 08 48 8b 5c 24 10 48 8b 4c 24 18 48  H.D$.H.\$.H.L$.H
	0x00a0 8b 7c 24 20 e9 57 ff ff ff                       .|$ .W...
	rel 45+4 t=R_PCREL type:uint8<0>+0
	rel 50+4 t=R_CALL runtime.growslice<1>+0
	rel 88+4 t=R_CALL runtime.memclrNoHeapPointers<1>+0
	rel 114+4 t=R_CALL runtime.panicmakeslicelen<1>+0
	rel 140+4 t=R_CALL runtime.morestack_noctxt<0>+0
command-line-arguments.SliceExtensionVarUint<1> STEXT size=169 args=0x20 locals=0x48 funcid=0x0 align=0x0
	0x0000 00000 (/home/xzl/work/golang-1.22/golang-1.22/test/codegen/slices.go:127)	TEXT	command-line-arguments.SliceExtensionVarUint(SB), ABIInternal, $72-32
	0x0000 00000 (/home/xzl/work/golang-1.22/golang-1.22/test/codegen/slices.go:127)	CMPQ	SP, 16(R14)
	0x0004 00004 (/home/xzl/work/golang-1.22/golang-1.22/test/codegen/slices.go:127)	PCDATA	$0, $-2
	0x0004 00004 (/home/xzl/work/golang-1.22/golang-1.22/test/codegen/slices.go:127)	JLS	119
	0x0006 00006 (/home/xzl/work/golang-1.22/golang-1.22/test/codegen/slices.go:127)	PCDATA	$0, $-1
	0x0006 00006 (/home/xzl/work/golang-1.22/golang-1.22/test/codegen/slices.go:127)	PUSHQ	BP
	0x0007 00007 (/home/xzl/work/golang-1.22/golang-1.22/test/codegen/slices.go:127)	MOVQ	SP, BP
	0x000a 00010 (/home/xzl/work/golang-1.22/golang-1.22/test/codegen/slices.go:127)	SUBQ	$64, SP
	0x000e 00014 (/home/xzl/work/golang-1.22/golang-1.22/test/codegen/slices.go:127)	MOVQ	AX, command-line-arguments.s+80(FP)
	0x0013 00019 (/home/xzl/work/golang-1.22/golang-1.22/test/codegen/slices.go:127)	FUNCDATA	$0, gclocals·ZzMiPAiVBg7DJ6dh/CjSag==(SB)
	0x0013 00019 (/home/xzl/work/golang-1.22/golang-1.22/test/codegen/slices.go:127)	FUNCDATA	$1, gclocals·dGrMWTWIngKGfVYjHi0adA==(SB)
	0x0013 00019 (/home/xzl/work/golang-1.22/golang-1.22/test/codegen/slices.go:127)	FUNCDATA	$5, command-line-arguments.SliceExtensionVarUint.arginfo1(SB)
	0x0013 00019 (/home/xzl/work/golang-1.22/golang-1.22/test/codegen/slices.go:127)	FUNCDATA	$6, command-line-arguments.SliceExtensionVarUint.argliveinfo(SB)
	0x0013 00019 (/home/xzl/work/golang-1.22/golang-1.22/test/codegen/slices.go:127)	PCDATA	$3, $1
	0x0013 00019 (/home/xzl/work/golang-1.22/golang-1.22/test/codegen/slices.go:131)	TESTQ	DI, DI
	0x0016 00022 (/home/xzl/work/golang-1.22/golang-1.22/test/codegen/slices.go:131)	JLT	113
	0x0018 00024 (/home/xzl/work/golang-1.22/golang-1.22/test/codegen/slices.go:131)	ADDQ	DI, BX
	0x001b 00027 (/home/xzl/work/golang-1.22/golang-1.22/test/codegen/slices.go:131)	NOP
	0x0020 00032 (/home/xzl/work/golang-1.22/golang-1.22/test/codegen/slices.go:131)	CMPQ	CX, BX
	0x0023 00035 (/home/xzl/work/golang-1.22/golang-1.22/test/codegen/slices.go:131)	JCC	59
	0x0025 00037 (/home/xzl/work/golang-1.22/golang-1.22/test/codegen/slices.go:131)	MOVQ	DI, command-line-arguments.l+104(SP)
	0x002a 00042 (/home/xzl/work/golang-1.22/golang-1.22/test/codegen/slices.go:131)	PCDATA	$3, $2
	0x002a 00042 (/home/xzl/work/golang-1.22/golang-1.22/test/codegen/slices.go:131)	LEAQ	type:uint8(SB), SI
	0x0031 00049 (/home/xzl/work/golang-1.22/golang-1.22/test/codegen/slices.go:131)	PCDATA	$1, $1
	0x0031 00049 (/home/xzl/work/golang-1.22/golang-1.22/test/codegen/slices.go:131)	CALL	runtime.growslice(SB)
	0x0036 00054 (/home/xzl/work/golang-1.22/golang-1.22/test/codegen/slices.go:131)	MOVQ	command-line-arguments.l+104(SP), DI
	0x003b 00059 (/home/xzl/work/golang-1.22/golang-1.22/test/codegen/slices.go:131)	PCDATA	$3, $1
	0x003b 00059 (/home/xzl/work/golang-1.22/golang-1.22/test/codegen/slices.go:131)	MOVQ	CX, command-line-arguments..autotmp_8+48(SP)
	0x0040 00064 (/home/xzl/work/golang-1.22/golang-1.22/test/codegen/slices.go:131)	MOVQ	BX, command-line-arguments..autotmp_9+40(SP)
	0x0045 00069 (/home/xzl/work/golang-1.22/golang-1.22/test/codegen/slices.go:131)	MOVQ	AX, command-line-arguments..autotmp_10+56(SP)
	0x004a 00074 (/home/xzl/work/golang-1.22/golang-1.22/test/codegen/slices.go:131)	SUBQ	DI, BX
	0x004d 00077 (/home/xzl/work/golang-1.22/golang-1.22/test/codegen/slices.go:131)	LEAQ	(AX)(BX*1), SI
	0x0051 00081 (/home/xzl/work/golang-1.22/golang-1.22/test/codegen/slices.go:131)	MOVQ	DI, BX
	0x0054 00084 (/home/xzl/work/golang-1.22/golang-1.22/test/codegen/slices.go:131)	MOVQ	SI, AX
	0x0057 00087 (/home/xzl/work/golang-1.22/golang-1.22/test/codegen/slices.go:131)	PCDATA	$1, $2
	0x0057 00087 (/home/xzl/work/golang-1.22/golang-1.22/test/codegen/slices.go:131)	CALL	runtime.memclrNoHeapPointers(SB)
	0x005c 00092 (/home/xzl/work/golang-1.22/golang-1.22/test/codegen/slices.go:131)	MOVQ	command-line-arguments..autotmp_10+56(SP), AX
	0x0061 00097 (/home/xzl/work/golang-1.22/golang-1.22/test/codegen/slices.go:131)	MOVQ	command-line-arguments..autotmp_9+40(SP), BX
	0x0066 00102 (/home/xzl/work/golang-1.22/golang-1.22/test/codegen/slices.go:131)	MOVQ	command-line-arguments..autotmp_8+48(SP), CX
	0x006b 00107 (/home/xzl/work/golang-1.22/golang-1.22/test/codegen/slices.go:131)	ADDQ	$64, SP
	0x006f 00111 (/home/xzl/work/golang-1.22/golang-1.22/test/codegen/slices.go:131)	POPQ	BP
	0x0070 00112 (/home/xzl/work/golang-1.22/golang-1.22/test/codegen/slices.go:131)	RET
	0x0071 00113 (/home/xzl/work/golang-1.22/golang-1.22/test/codegen/slices.go:131)	PCDATA	$1, $1
	0x0071 00113 (/home/xzl/work/golang-1.22/golang-1.22/test/codegen/slices.go:131)	CALL	runtime.panicmakeslicelen(SB)
	0x0076 00118 (/home/xzl/work/golang-1.22/golang-1.22/test/codegen/slices.go:131)	XCHGL	AX, AX
	0x0077 00119 (/home/xzl/work/golang-1.22/golang-1.22/test/codegen/slices.go:131)	NOP
	0x0077 00119 (/home/xzl/work/golang-1.22/golang-1.22/test/codegen/slices.go:127)	PCDATA	$1, $-1
	0x0077 00119 (/home/xzl/work/golang-1.22/golang-1.22/test/codegen/slices.go:127)	PCDATA	$0, $-2
	0x0077 00119 (/home/xzl/work/golang-1.22/golang-1.22/test/codegen/slices.go:127)	MOVQ	AX, 8(SP)
	0x007c 00124 (/home/xzl/work/golang-1.22/golang-1.22/test/codegen/slices.go:127)	MOVQ	BX, 16(SP)
	0x0081 00129 (/home/xzl/work/golang-1.22/golang-1.22/test/codegen/slices.go:127)	MOVQ	CX, 24(SP)
	0x0086 00134 (/home/xzl/work/golang-1.22/golang-1.22/test/codegen/slices.go:127)	MOVQ	DI, 32(SP)
	0x008b 00139 (/home/xzl/work/golang-1.22/golang-1.22/test/codegen/slices.go:127)	CALL	runtime.morestack_noctxt(SB)
	0x0090 00144 (/home/xzl/work/golang-1.22/golang-1.22/test/codegen/slices.go:127)	PCDATA	$0, $-1
	0x0090 00144 (/home/xzl/work/golang-1.22/golang-1.22/test/codegen/slices.go:127)	MOVQ	8(SP), AX
	0x0095 00149 (/home/xzl/work/golang-1.22/golang-1.22/test/codegen/slices.go:127)	MOVQ	16(SP), BX
	0x009a 00154 (/home/xzl/work/golang-1.22/golang-1.22/test/codegen/slices.go:127)	MOVQ	24(SP), CX
	0x009f 00159 (/home/xzl/work/golang-1.22/golang-1.22/test/codegen/slices.go:127)	MOVQ	32(SP), DI
	0x00a4 00164 (/home/xzl/work/golang-1.22/golang-1.22/test/codegen/slices.go:127)	JMP	0
	0x0000 49 3b 66 10 76 71 55 48 89 e5 48 83 ec 40 48 89  I;f.vqUH..H..@H.
	0x0010 44 24 50 48 85 ff 7c 59 48 01 fb 0f 1f 44 00 00  D$PH..|YH....D..
	0x0020 48 39 d9 73 16 48 89 7c 24 68 48 8d 35 00 00 00  H9.s.H.|$hH.5...
	0x0030 00 e8 00 00 00 00 48 8b 7c 24 68 48 89 4c 24 30  ......H.|$hH.L$0
	0x0040 48 89 5c 24 28 48 89 44 24 38 48 29 fb 48 8d 34  H.\$(H.D$8H).H.4
	0x0050 18 48 89 fb 48 89 f0 e8 00 00 00 00 48 8b 44 24  .H..H.......H.D$
	0x0060 38 48 8b 5c 24 28 48 8b 4c 24 30 48 83 c4 40 5d  8H.\$(H.L$0H..@]
	0x0070 c3 e8 00 00 00 00 90 48 89 44 24 08 48 89 5c 24  .......H.D$.H.\$
	0x0080 10 48 89 4c 24 18 48 89 7c 24 20 e8 00 00 00 00  .H.L$.H.|$ .....
	0x0090 48 8b 44 24 08 48 8b 5c 24 10 48 8b 4c 24 18 48  H.D$.H.\$.H.L$.H
	0x00a0 8b 7c 24 20 e9 57 ff ff ff                       .|$ .W...
	rel 45+4 t=R_PCREL type:uint8<0>+0
	rel 50+4 t=R_CALL runtime.growslice<1>+0
	rel 88+4 t=R_CALL runtime.memclrNoHeapPointers<1>+0
	rel 114+4 t=R_CALL runtime.panicmakeslicelen<1>+0
	rel 140+4 t=R_CALL runtime.morestack_noctxt<0>+0
command-line-arguments.SliceExtensionInt64<1> STEXT size=178 args=0x20 locals=0x48 funcid=0x0 align=0x0
	0x0000 00000 (/home/xzl/work/golang-1.22/golang-1.22/test/codegen/slices.go:134)	TEXT	command-line-arguments.SliceExtensionInt64(SB), ABIInternal, $72-32
	0x0000 00000 (/home/xzl/work/golang-1.22/golang-1.22/test/codegen/slices.go:134)	CMPQ	SP, 16(R14)
	0x0004 00004 (/home/xzl/work/golang-1.22/golang-1.22/test/codegen/slices.go:134)	PCDATA	$0, $-2
	0x0004 00004 (/home/xzl/work/golang-1.22/golang-1.22/test/codegen/slices.go:134)	JLS	128
	0x0006 00006 (/home/xzl/work/golang-1.22/golang-1.22/test/codegen/slices.go:134)	PCDATA	$0, $-1
	0x0006 00006 (/home/xzl/work/golang-1.22/golang-1.22/test/codegen/slices.go:134)	PUSHQ	BP
	0x0007 00007 (/home/xzl/work/golang-1.22/golang-1.22/test/codegen/slices.go:134)	MOVQ	SP, BP
	0x000a 00010 (/home/xzl/work/golang-1.22/golang-1.22/test/codegen/slices.go:134)	SUBQ	$64, SP
	0x000e 00014 (/home/xzl/work/golang-1.22/golang-1.22/test/codegen/slices.go:134)	MOVQ	AX, command-line-arguments.s+80(FP)
	0x0013 00019 (/home/xzl/work/golang-1.22/golang-1.22/test/codegen/slices.go:134)	FUNCDATA	$0, gclocals·ZzMiPAiVBg7DJ6dh/CjSag==(SB)
	0x0013 00019 (/home/xzl/work/golang-1.22/golang-1.22/test/codegen/slices.go:134)	FUNCDATA	$1, gclocals·dGrMWTWIngKGfVYjHi0adA==(SB)
	0x0013 00019 (/home/xzl/work/golang-1.22/golang-1.22/test/codegen/slices.go:134)	FUNCDATA	$5, command-line-arguments.SliceExtensionInt64.arginfo1(SB)
	0x0013 00019 (/home/xzl/work/golang-1.22/golang-1.22/test/codegen/slices.go:134)	FUNCDATA	$6, command-line-arguments.SliceExtensionInt64.argliveinfo(SB)
	0x0013 00019 (/home/xzl/work/golang-1.22/golang-1.22/test/codegen/slices.go:134)	PCDATA	$3, $1
	0x0013 00019 (/home/xzl/work/golang-1.22/golang-1.22/test/codegen/slices.go:137)	TESTQ	DI, DI
	0x0016 00022 (/home/xzl/work/golang-1.22/golang-1.22/test/codegen/slices.go:137)	JLT	122
	0x0018 00024 (/home/xzl/work/golang-1.22/golang-1.22/test/codegen/slices.go:137)	ADDQ	DI, BX
	0x001b 00027 (/home/xzl/work/golang-1.22/golang-1.22/test/codegen/slices.go:137)	NOP
	0x0020 00032 (/home/xzl/work/golang-1.22/golang-1.22/test/codegen/slices.go:137)	CMPQ	CX, BX
	0x0023 00035 (/home/xzl/work/golang-1.22/golang-1.22/test/codegen/slices.go:137)	JCC	59
	0x0025 00037 (/home/xzl/work/golang-1.22/golang-1.22/test/codegen/slices.go:137)	MOVQ	DI, command-line-arguments.l64+104(SP)
	0x002a 00042 (/home/xzl/work/golang-1.22/golang-1.22/test/codegen/slices.go:137)	PCDATA	$3, $2
	0x002a 00042 (/home/xzl/work/golang-1.22/golang-1.22/test/codegen/slices.go:137)	LEAQ	type:int(SB), SI
	0x0031 00049 (/home/xzl/work/golang-1.22/golang-1.22/test/codegen/slices.go:137)	PCDATA	$1, $1
	0x0031 00049 (/home/xzl/work/golang-1.22/golang-1.22/test/codegen/slices.go:137)	CALL	runtime.growslice(SB)
	0x0036 00054 (/home/xzl/work/golang-1.22/golang-1.22/test/codegen/slices.go:137)	MOVQ	command-line-arguments.l64+104(SP), DI
	0x003b 00059 (/home/xzl/work/golang-1.22/golang-1.22/test/codegen/slices.go:137)	PCDATA	$3, $1
	0x003b 00059 (/home/xzl/work/golang-1.22/golang-1.22/test/codegen/slices.go:137)	MOVQ	AX, command-line-arguments..autotmp_8+56(SP)
	0x0040 00064 (/home/xzl/work/golang-1.22/golang-1.22/test/codegen/slices.go:137)	MOVQ	CX, command-line-arguments..autotmp_9+40(SP)
	0x0045 00069 (/home/xzl/work/golang-1.22/golang-1.22/test/codegen/slices.go:137)	MOVQ	BX, command-line-arguments..autotmp_10+48(SP)
	0x004a 00074 (/home/xzl/work/golang-1.22/golang-1.22/test/codegen/slices.go:137)	SUBQ	DI, BX
	0x004d 00077 (/home/xzl/work/golang-1.22/golang-1.22/test/codegen/slices.go:137)	LEAQ	(AX)(BX*8), SI
	0x0051 00081 (/home/xzl/work/golang-1.22/golang-1.22/test/codegen/slices.go:137)	SHLQ	$3, DI
	0x0055 00085 (/home/xzl/work/golang-1.22/golang-1.22/test/codegen/slices.go:137)	MOVQ	DI, BX
	0x0058 00088 (/home/xzl/work/golang-1.22/golang-1.22/test/codegen/slices.go:137)	MOVQ	SI, AX
	0x005b 00091 (/home/xzl/work/golang-1.22/golang-1.22/test/codegen/slices.go:137)	PCDATA	$1, $2
	0x005b 00091 (/home/xzl/work/golang-1.22/golang-1.22/test/codegen/slices.go:137)	NOP
	0x0060 00096 (/home/xzl/work/golang-1.22/golang-1.22/test/codegen/slices.go:137)	CALL	runtime.memclrNoHeapPointers(SB)
	0x0065 00101 (/home/xzl/work/golang-1.22/golang-1.22/test/codegen/slices.go:137)	MOVQ	command-line-arguments..autotmp_8+56(SP), AX
	0x006a 00106 (/home/xzl/work/golang-1.22/golang-1.22/test/codegen/slices.go:137)	MOVQ	command-line-arguments..autotmp_10+48(SP), BX
	0x006f 00111 (/home/xzl/work/golang-1.22/golang-1.22/test/codegen/slices.go:137)	MOVQ	command-line-arguments..autotmp_9+40(SP), CX
	0x0074 00116 (/home/xzl/work/golang-1.22/golang-1.22/test/codegen/slices.go:137)	ADDQ	$64, SP
	0x0078 00120 (/home/xzl/work/golang-1.22/golang-1.22/test/codegen/slices.go:137)	POPQ	BP
	0x0079 00121 (/home/xzl/work/golang-1.22/golang-1.22/test/codegen/slices.go:137)	RET
	0x007a 00122 (/home/xzl/work/golang-1.22/golang-1.22/test/codegen/slices.go:137)	PCDATA	$1, $1
	0x007a 00122 (/home/xzl/work/golang-1.22/golang-1.22/test/codegen/slices.go:137)	CALL	runtime.panicmakeslicelen(SB)
	0x007f 00127 (/home/xzl/work/golang-1.22/golang-1.22/test/codegen/slices.go:137)	XCHGL	AX, AX
	0x0080 00128 (/home/xzl/work/golang-1.22/golang-1.22/test/codegen/slices.go:137)	NOP
	0x0080 00128 (/home/xzl/work/golang-1.22/golang-1.22/test/codegen/slices.go:134)	PCDATA	$1, $-1
	0x0080 00128 (/home/xzl/work/golang-1.22/golang-1.22/test/codegen/slices.go:134)	PCDATA	$0, $-2
	0x0080 00128 (/home/xzl/work/golang-1.22/golang-1.22/test/codegen/slices.go:134)	MOVQ	AX, 8(SP)
	0x0085 00133 (/home/xzl/work/golang-1.22/golang-1.22/test/codegen/slices.go:134)	MOVQ	BX, 16(SP)
	0x008a 00138 (/home/xzl/work/golang-1.22/golang-1.22/test/codegen/slices.go:134)	MOVQ	CX, 24(SP)
	0x008f 00143 (/home/xzl/work/golang-1.22/golang-1.22/test/codegen/slices.go:134)	MOVQ	DI, 32(SP)
	0x0094 00148 (/home/xzl/work/golang-1.22/golang-1.22/test/codegen/slices.go:134)	CALL	runtime.morestack_noctxt(SB)
	0x0099 00153 (/home/xzl/work/golang-1.22/golang-1.22/test/codegen/slices.go:134)	PCDATA	$0, $-1
	0x0099 00153 (/home/xzl/work/golang-1.22/golang-1.22/test/codegen/slices.go:134)	MOVQ	8(SP), AX
	0x009e 00158 (/home/xzl/work/golang-1.22/golang-1.22/test/codegen/slices.go:134)	MOVQ	16(SP), BX
	0x00a3 00163 (/home/xzl/work/golang-1.22/golang-1.22/test/codegen/slices.go:134)	MOVQ	24(SP), CX
	0x00a8 00168 (/home/xzl/work/golang-1.22/golang-1.22/test/codegen/slices.go:134)	MOVQ	32(SP), DI
	0x00ad 00173 (/home/xzl/work/golang-1.22/golang-1.22/test/codegen/slices.go:134)	JMP	0
	0x0000 49 3b 66 10 76 7a 55 48 89 e5 48 83 ec 40 48 89  I;f.vzUH..H..@H.
	0x0010 44 24 50 48 85 ff 7c 62 48 01 fb 0f 1f 44 00 00  D$PH..|bH....D..
	0x0020 48 39 d9 73 16 48 89 7c 24 68 48 8d 35 00 00 00  H9.s.H.|$hH.5...
	0x0030 00 e8 00 00 00 00 48 8b 7c 24 68 48 89 44 24 38  ......H.|$hH.D$8
	0x0040 48 89 4c 24 28 48 89 5c 24 30 48 29 fb 48 8d 34  H.L$(H.\$0H).H.4
	0x0050 d8 48 c1 e7 03 48 89 fb 48 89 f0 0f 1f 44 00 00  .H...H..H....D..
	0x0060 e8 00 00 00 00 48 8b 44 24 38 48 8b 5c 24 30 48  .....H.D$8H.\$0H
	0x0070 8b 4c 24 28 48 83 c4 40 5d c3 e8 00 00 00 00 90  .L$(H..@].......
	0x0080 48 89 44 24 08 48 89 5c 24 10 48 89 4c 24 18 48  H.D$.H.\$.H.L$.H
	0x0090 89 7c 24 20 e8 00 00 00 00 48 8b 44 24 08 48 8b  .|$ .....H.D$.H.
	0x00a0 5c 24 10 48 8b 4c 24 18 48 8b 7c 24 20 e9 4e ff  \$.H.L$.H.|$ .N.
	0x00b0 ff ff                                            ..
	rel 45+4 t=R_PCREL type:int<0>+0
	rel 50+4 t=R_CALL runtime.growslice<1>+0
	rel 97+4 t=R_CALL runtime.memclrNoHeapPointers<1>+0
	rel 123+4 t=R_CALL runtime.panicmakeslicelen<1>+0
	rel 149+4 t=R_CALL runtime.morestack_noctxt<0>+0
command-line-arguments.SliceMakeCopyLen<1> STEXT size=125 args=0x18 locals=0x30 funcid=0x0 align=0x0
	0x0000 00000 (/home/xzl/work/golang-1.22/golang-1.22/test/codegen/slices.go:146)	TEXT	command-line-arguments.SliceMakeCopyLen(SB), ABIInternal, $48-24
	0x0000 00000 (/home/xzl/work/golang-1.22/golang-1.22/test/codegen/slices.go:146)	CMPQ	SP, 16(R14)
	0x0004 00004 (/home/xzl/work/golang-1.22/golang-1.22/test/codegen/slices.go:146)	PCDATA	$0, $-2
	0x0004 00004 (/home/xzl/work/golang-1.22/golang-1.22/test/codegen/slices.go:146)	JLS	88
	0x0006 00006 (/home/xzl/work/golang-1.22/golang-1.22/test/codegen/slices.go:146)	PCDATA	$0, $-1
	0x0006 00006 (/home/xzl/work/golang-1.22/golang-1.22/test/codegen/slices.go:146)	PUSHQ	BP
	0x0007 00007 (/home/xzl/work/golang-1.22/golang-1.22/test/codegen/slices.go:146)	MOVQ	SP, BP
	0x000a 00010 (/home/xzl/work/golang-1.22/golang-1.22/test/codegen/slices.go:146)	SUBQ	$40, SP
	0x000e 00014 (/home/xzl/work/golang-1.22/golang-1.22/test/codegen/slices.go:146)	FUNCDATA	$0, gclocals·m/6RUmNv6NBhMUL8eleFFA==(SB)
	0x000e 00014 (/home/xzl/work/golang-1.22/golang-1.22/test/codegen/slices.go:146)	FUNCDATA	$1, gclocals·VtCL4RdUwCqwXEPeyJllRA==(SB)
	0x000e 00014 (/home/xzl/work/golang-1.22/golang-1.22/test/codegen/slices.go:146)	FUNCDATA	$5, command-line-arguments.SliceMakeCopyLen.arginfo1(SB)
	0x000e 00014 (/home/xzl/work/golang-1.22/golang-1.22/test/codegen/slices.go:146)	FUNCDATA	$6, command-line-arguments.SliceMakeCopyLen.argliveinfo(SB)
	0x000e 00014 (/home/xzl/work/golang-1.22/golang-1.22/test/codegen/slices.go:146)	PCDATA	$3, $1
	0x000e 00014 (/home/xzl/work/golang-1.22/golang-1.22/test/codegen/slices.go:155)	MOVQ	BX, command-line-arguments.s+64(SP)
	0x0013 00019 (/home/xzl/work/golang-1.22/golang-1.22/test/codegen/slices.go:155)	MOVQ	AX, command-line-arguments.s+56(SP)
	0x0018 00024 (/home/xzl/work/golang-1.22/golang-1.22/test/codegen/slices.go:155)	PCDATA	$3, $2
	0x0018 00024 (/home/xzl/work/golang-1.22/golang-1.22/test/codegen/slices.go:153)	SHLQ	$3, BX
	0x001c 00028 (/home/xzl/work/golang-1.22/golang-1.22/test/codegen/slices.go:153)	MOVQ	BX, command-line-arguments..autotmp_8+24(SP)
	0x0021 00033 (/home/xzl/work/golang-1.22/golang-1.22/test/codegen/slices.go:153)	XORL	CX, CX
	0x0023 00035 (/home/xzl/work/golang-1.22/golang-1.22/test/codegen/slices.go:153)	MOVQ	BX, AX
	0x0026 00038 (/home/xzl/work/golang-1.22/golang-1.22/test/codegen/slices.go:153)	XORL	BX, BX
	0x0028 00040 (/home/xzl/work/golang-1.22/golang-1.22/test/codegen/slices.go:153)	PCDATA	$1, $0
	0x0028 00040 (/home/xzl/work/golang-1.22/golang-1.22/test/codegen/slices.go:153)	CALL	runtime.mallocgc(SB)
	0x002d 00045 (/home/xzl/work/golang-1.22/golang-1.22/test/codegen/slices.go:153)	MOVQ	AX, command-line-arguments..autotmp_9+32(SP)
	0x0032 00050 (/home/xzl/work/golang-1.22/golang-1.22/test/codegen/slices.go:153)	MOVQ	command-line-arguments.s+56(SP), BX
	0x0037 00055 (/home/xzl/work/golang-1.22/golang-1.22/test/codegen/slices.go:153)	MOVQ	command-line-arguments..autotmp_8+24(SP), CX
	0x003c 00060 (/home/xzl/work/golang-1.22/golang-1.22/test/codegen/slices.go:153)	PCDATA	$1, $1
	0x003c 00060 (/home/xzl/work/golang-1.22/golang-1.22/test/codegen/slices.go:153)	NOP
	0x0040 00064 (/home/xzl/work/golang-1.22/golang-1.22/test/codegen/slices.go:153)	CALL	runtime.memmove(SB)
	0x0045 00069 (/home/xzl/work/golang-1.22/golang-1.22/test/codegen/slices.go:155)	MOVQ	command-line-arguments..autotmp_9+32(SP), AX
	0x004a 00074 (/home/xzl/work/golang-1.22/golang-1.22/test/codegen/slices.go:155)	MOVQ	command-line-arguments.s+64(SP), BX
	0x004f 00079 (/home/xzl/work/golang-1.22/golang-1.22/test/codegen/slices.go:155)	MOVQ	BX, CX
	0x0052 00082 (/home/xzl/work/golang-1.22/golang-1.22/test/codegen/slices.go:155)	ADDQ	$40, SP
	0x0056 00086 (/home/xzl/work/golang-1.22/golang-1.22/test/codegen/slices.go:155)	POPQ	BP
	0x0057 00087 (/home/xzl/work/golang-1.22/golang-1.22/test/codegen/slices.go:155)	RET
	0x0058 00088 (/home/xzl/work/golang-1.22/golang-1.22/test/codegen/slices.go:155)	NOP
	0x0058 00088 (/home/xzl/work/golang-1.22/golang-1.22/test/codegen/slices.go:146)	PCDATA	$1, $-1
	0x0058 00088 (/home/xzl/work/golang-1.22/golang-1.22/test/codegen/slices.go:146)	PCDATA	$0, $-2
	0x0058 00088 (/home/xzl/work/golang-1.22/golang-1.22/test/codegen/slices.go:146)	MOVQ	AX, 8(SP)
	0x005d 00093 (/home/xzl/work/golang-1.22/golang-1.22/test/codegen/slices.go:146)	MOVQ	BX, 16(SP)
	0x0062 00098 (/home/xzl/work/golang-1.22/golang-1.22/test/codegen/slices.go:146)	MOVQ	CX, 24(SP)
	0x0067 00103 (/home/xzl/work/golang-1.22/golang-1.22/test/codegen/slices.go:146)	CALL	runtime.morestack_noctxt(SB)
	0x006c 00108 (/home/xzl/work/golang-1.22/golang-1.22/test/codegen/slices.go:146)	PCDATA	$0, $-1
	0x006c 00108 (/home/xzl/work/golang-1.22/golang-1.22/test/codegen/slices.go:146)	MOVQ	8(SP), AX
	0x0071 00113 (/home/xzl/work/golang-1.22/golang-1.22/test/codegen/slices.go:146)	MOVQ	16(SP), BX
	0x0076 00118 (/home/xzl/work/golang-1.22/golang-1.22/test/codegen/slices.go:146)	MOVQ	24(SP), CX
	0x007b 00123 (/home/xzl/work/golang-1.22/golang-1.22/test/codegen/slices.go:146)	JMP	0
	0x0000 49 3b 66 10 76 52 55 48 89 e5 48 83 ec 28 48 89  I;f.vRUH..H..(H.
	0x0010 5c 24 40 48 89 44 24 38 48 c1 e3 03 48 89 5c 24  \$@H.D$8H...H.\$
	0x0020 18 31 c9 48 89 d8 31 db e8 00 00 00 00 48 89 44  .1.H..1......H.D
	0x0030 24 20 48 8b 5c 24 38 48 8b 4c 24 18 0f 1f 40 00  $ H.\$8H.L$...@.
	0x0040 e8 00 00 00 00 48 8b 44 24 20 48 8b 5c 24 40 48  .....H.D$ H.\$@H
	0x0050 89 d9 48 83 c4 28 5d c3 48 89 44 24 08 48 89 5c  ..H..(].H.D$.H.\
	0x0060 24 10 48 89 4c 24 18 e8 00 00 00 00 48 8b 44 24  $.H.L$......H.D$
	0x0070 08 48 8b 5c 24 10 48 8b 4c 24 18 eb 83           .H.\$.H.L$...
	rel 41+4 t=R_CALL runtime.mallocgc<1>+0
	rel 65+4 t=R_CALL runtime.memmove<1>+0
	rel 104+4 t=R_CALL runtime.morestack_noctxt<0>+0
command-line-arguments.SliceMakeCopyLenPtr<1> STEXT size=93 args=0x18 locals=0x28 funcid=0x0 align=0x0
	0x0000 00000 (/home/xzl/work/golang-1.22/golang-1.22/test/codegen/slices.go:158)	TEXT	command-line-arguments.SliceMakeCopyLenPtr(SB), ABIInternal, $40-24
	0x0000 00000 (/home/xzl/work/golang-1.22/golang-1.22/test/codegen/slices.go:158)	CMPQ	SP, 16(R14)
	0x0004 00004 (/home/xzl/work/golang-1.22/golang-1.22/test/codegen/slices.go:158)	PCDATA	$0, $-2
	0x0004 00004 (/home/xzl/work/golang-1.22/golang-1.22/test/codegen/slices.go:158)	JLS	56
	0x0006 00006 (/home/xzl/work/golang-1.22/golang-1.22/test/codegen/slices.go:158)	PCDATA	$0, $-1
	0x0006 00006 (/home/xzl/work/golang-1.22/golang-1.22/test/codegen/slices.go:158)	PUSHQ	BP
	0x0007 00007 (/home/xzl/work/golang-1.22/golang-1.22/test/codegen/slices.go:158)	MOVQ	SP, BP
	0x000a 00010 (/home/xzl/work/golang-1.22/golang-1.22/test/codegen/slices.go:158)	SUBQ	$32, SP
	0x000e 00014 (/home/xzl/work/golang-1.22/golang-1.22/test/codegen/slices.go:158)	MOVQ	AX, command-line-arguments.s+48(FP)
	0x0013 00019 (/home/xzl/work/golang-1.22/golang-1.22/test/codegen/slices.go:158)	FUNCDATA	$0, gclocals·wgcWObbY2HYnK2SU/U22lA==(SB)
	0x0013 00019 (/home/xzl/work/golang-1.22/golang-1.22/test/codegen/slices.go:158)	FUNCDATA	$1, gclocals·J5F+7Qw7O7ve2QcWC7DpeQ==(SB)
	0x0013 00019 (/home/xzl/work/golang-1.22/golang-1.22/test/codegen/slices.go:158)	FUNCDATA	$5, command-line-arguments.SliceMakeCopyLenPtr.arginfo1(SB)
	0x0013 00019 (/home/xzl/work/golang-1.22/golang-1.22/test/codegen/slices.go:158)	FUNCDATA	$6, command-line-arguments.SliceMakeCopyLenPtr.argliveinfo(SB)
	0x0013 00019 (/home/xzl/work/golang-1.22/golang-1.22/test/codegen/slices.go:158)	PCDATA	$3, $1
	0x0013 00019 (/home/xzl/work/golang-1.22/golang-1.22/test/codegen/slices.go:167)	MOVQ	BX, command-line-arguments.s+56(SP)
	0x0018 00024 (/home/xzl/work/golang-1.22/golang-1.22/test/codegen/slices.go:167)	PCDATA	$3, $2
	0x0018 00024 (/home/xzl/work/golang-1.22/golang-1.22/test/codegen/slices.go:165)	MOVQ	BX, CX
	0x001b 00027 (/home/xzl/work/golang-1.22/golang-1.22/test/codegen/slices.go:165)	MOVQ	AX, DI
	0x001e 00030 (/home/xzl/work/golang-1.22/golang-1.22/test/codegen/slices.go:165)	LEAQ	type:*int(SB), AX
	0x0025 00037 (/home/xzl/work/golang-1.22/golang-1.22/test/codegen/slices.go:165)	PCDATA	$1, $0
	0x0025 00037 (/home/xzl/work/golang-1.22/golang-1.22/test/codegen/slices.go:165)	CALL	runtime.makeslicecopy(SB)
	0x002a 00042 (/home/xzl/work/golang-1.22/golang-1.22/test/codegen/slices.go:167)	MOVQ	command-line-arguments.s+56(SP), BX
	0x002f 00047 (/home/xzl/work/golang-1.22/golang-1.22/test/codegen/slices.go:167)	MOVQ	BX, CX
	0x0032 00050 (/home/xzl/work/golang-1.22/golang-1.22/test/codegen/slices.go:167)	ADDQ	$32, SP
	0x0036 00054 (/home/xzl/work/golang-1.22/golang-1.22/test/codegen/slices.go:167)	POPQ	BP
	0x0037 00055 (/home/xzl/work/golang-1.22/golang-1.22/test/codegen/slices.go:167)	RET
	0x0038 00056 (/home/xzl/work/golang-1.22/golang-1.22/test/codegen/slices.go:167)	NOP
	0x0038 00056 (/home/xzl/work/golang-1.22/golang-1.22/test/codegen/slices.go:158)	PCDATA	$1, $-1
	0x0038 00056 (/home/xzl/work/golang-1.22/golang-1.22/test/codegen/slices.go:158)	PCDATA	$0, $-2
	0x0038 00056 (/home/xzl/work/golang-1.22/golang-1.22/test/codegen/slices.go:158)	MOVQ	AX, 8(SP)
	0x003d 00061 (/home/xzl/work/golang-1.22/golang-1.22/test/codegen/slices.go:158)	MOVQ	BX, 16(SP)
	0x0042 00066 (/home/xzl/work/golang-1.22/golang-1.22/test/codegen/slices.go:158)	MOVQ	CX, 24(SP)
	0x0047 00071 (/home/xzl/work/golang-1.22/golang-1.22/test/codegen/slices.go:158)	CALL	runtime.morestack_noctxt(SB)
	0x004c 00076 (/home/xzl/work/golang-1.22/golang-1.22/test/codegen/slices.go:158)	PCDATA	$0, $-1
	0x004c 00076 (/home/xzl/work/golang-1.22/golang-1.22/test/codegen/slices.go:158)	MOVQ	8(SP), AX
	0x0051 00081 (/home/xzl/work/golang-1.22/golang-1.22/test/codegen/slices.go:158)	MOVQ	16(SP), BX
	0x0056 00086 (/home/xzl/work/golang-1.22/golang-1.22/test/codegen/slices.go:158)	MOVQ	24(SP), CX
	0x005b 00091 (/home/xzl/work/golang-1.22/golang-1.22/test/codegen/slices.go:158)	JMP	0
	0x0000 49 3b 66 10 76 32 55 48 89 e5 48 83 ec 20 48 89  I;f.v2UH..H.. H.
	0x0010 44 24 30 48 89 5c 24 38 48 89 d9 48 89 c7 48 8d  D$0H.\$8H..H..H.
	0x0020 05 00 00 00 00 e8 00 00 00 00 48 8b 5c 24 38 48  ..........H.\$8H
	0x0030 89 d9 48 83 c4 20 5d c3 48 89 44 24 08 48 89 5c  ..H.. ].H.D$.H.\
	0x0040 24 10 48 89 4c 24 18 e8 00 00 00 00 48 8b 44 24  $.H.L$......H.D$
	0x0050 08 48 8b 5c 24 10 48 8b 4c 24 18 eb a3           .H.\$.H.L$...
	rel 33+4 t=R_PCREL type:*int<0>+0
	rel 38+4 t=R_CALL runtime.makeslicecopy<1>+0
	rel 72+4 t=R_CALL runtime.morestack_noctxt<0>+0
command-line-arguments.SliceMakeCopyConst<1> STEXT size=93 args=0x18 locals=0x28 funcid=0x0 align=0x0
	0x0000 00000 (/home/xzl/work/golang-1.22/golang-1.22/test/codegen/slices.go:170)	TEXT	command-line-arguments.SliceMakeCopyConst(SB), ABIInternal, $40-24
	0x0000 00000 (/home/xzl/work/golang-1.22/golang-1.22/test/codegen/slices.go:170)	CMPQ	SP, 16(R14)
	0x0004 00004 (/home/xzl/work/golang-1.22/golang-1.22/test/codegen/slices.go:170)	PCDATA	$0, $-2
	0x0004 00004 (/home/xzl/work/golang-1.22/golang-1.22/test/codegen/slices.go:170)	JLS	56
	0x0006 00006 (/home/xzl/work/golang-1.22/golang-1.22/test/codegen/slices.go:170)	PCDATA	$0, $-1
	0x0006 00006 (/home/xzl/work/golang-1.22/golang-1.22/test/codegen/slices.go:170)	PUSHQ	BP
	0x0007 00007 (/home/xzl/work/golang-1.22/golang-1.22/test/codegen/slices.go:170)	MOVQ	SP, BP
	0x000a 00010 (/home/xzl/work/golang-1.22/golang-1.22/test/codegen/slices.go:170)	SUBQ	$32, SP
	0x000e 00014 (/home/xzl/work/golang-1.22/golang-1.22/test/codegen/slices.go:170)	MOVQ	AX, command-line-arguments.s+48(FP)
	0x0013 00019 (/home/xzl/work/golang-1.22/golang-1.22/test/codegen/slices.go:170)	FUNCDATA	$0, gclocals·wgcWObbY2HYnK2SU/U22lA==(SB)
	0x0013 00019 (/home/xzl/work/golang-1.22/golang-1.22/test/codegen/slices.go:170)	FUNCDATA	$1, gclocals·J5F+7Qw7O7ve2QcWC7DpeQ==(SB)
	0x0013 00019 (/home/xzl/work/golang-1.22/golang-1.22/test/codegen/slices.go:170)	FUNCDATA	$5, command-line-arguments.SliceMakeCopyConst.arginfo1(SB)
	0x0013 00019 (/home/xzl/work/golang-1.22/golang-1.22/test/codegen/slices.go:170)	FUNCDATA	$6, command-line-arguments.SliceMakeCopyConst.argliveinfo(SB)
	0x0013 00019 (/home/xzl/work/golang-1.22/golang-1.22/test/codegen/slices.go:170)	PCDATA	$3, $1
	0x0013 00019 (/home/xzl/work/golang-1.22/golang-1.22/test/codegen/slices.go:174)	MOVQ	BX, CX
	0x0016 00022 (/home/xzl/work/golang-1.22/golang-1.22/test/codegen/slices.go:174)	MOVQ	AX, DI
	0x0019 00025 (/home/xzl/work/golang-1.22/golang-1.22/test/codegen/slices.go:174)	LEAQ	type:int(SB), AX
	0x0020 00032 (/home/xzl/work/golang-1.22/golang-1.22/test/codegen/slices.go:174)	MOVL	$4, BX
	0x0025 00037 (/home/xzl/work/golang-1.22/golang-1.22/test/codegen/slices.go:174)	PCDATA	$1, $1
	0x0025 00037 (/home/xzl/work/golang-1.22/golang-1.22/test/codegen/slices.go:174)	CALL	runtime.makeslicecopy(SB)
	0x002a 00042 (/home/xzl/work/golang-1.22/golang-1.22/test/codegen/slices.go:176)	MOVL	$4, BX
	0x002f 00047 (/home/xzl/work/golang-1.22/golang-1.22/test/codegen/slices.go:176)	MOVQ	BX, CX
	0x0032 00050 (/home/xzl/work/golang-1.22/golang-1.22/test/codegen/slices.go:176)	ADDQ	$32, SP
	0x0036 00054 (/home/xzl/work/golang-1.22/golang-1.22/test/codegen/slices.go:176)	POPQ	BP
	0x0037 00055 (/home/xzl/work/golang-1.22/golang-1.22/test/codegen/slices.go:176)	RET
	0x0038 00056 (/home/xzl/work/golang-1.22/golang-1.22/test/codegen/slices.go:176)	NOP
	0x0038 00056 (/home/xzl/work/golang-1.22/golang-1.22/test/codegen/slices.go:170)	PCDATA	$1, $-1
	0x0038 00056 (/home/xzl/work/golang-1.22/golang-1.22/test/codegen/slices.go:170)	PCDATA	$0, $-2
	0x0038 00056 (/home/xzl/work/golang-1.22/golang-1.22/test/codegen/slices.go:170)	MOVQ	AX, 8(SP)
	0x003d 00061 (/home/xzl/work/golang-1.22/golang-1.22/test/codegen/slices.go:170)	MOVQ	BX, 16(SP)
	0x0042 00066 (/home/xzl/work/golang-1.22/golang-1.22/test/codegen/slices.go:170)	MOVQ	CX, 24(SP)
	0x0047 00071 (/home/xzl/work/golang-1.22/golang-1.22/test/codegen/slices.go:170)	CALL	runtime.morestack_noctxt(SB)
	0x004c 00076 (/home/xzl/work/golang-1.22/golang-1.22/test/codegen/slices.go:170)	PCDATA	$0, $-1
	0x004c 00076 (/home/xzl/work/golang-1.22/golang-1.22/test/codegen/slices.go:170)	MOVQ	8(SP), AX
	0x0051 00081 (/home/xzl/work/golang-1.22/golang-1.22/test/codegen/slices.go:170)	MOVQ	16(SP), BX
	0x0056 00086 (/home/xzl/work/golang-1.22/golang-1.22/test/codegen/slices.go:170)	MOVQ	24(SP), CX
	0x005b 00091 (/home/xzl/work/golang-1.22/golang-1.22/test/codegen/slices.go:170)	JMP	0
	0x0000 49 3b 66 10 76 32 55 48 89 e5 48 83 ec 20 48 89  I;f.v2UH..H.. H.
	0x0010 44 24 30 48 89 d9 48 89 c7 48 8d 05 00 00 00 00  D$0H..H..H......
	0x0020 bb 04 00 00 00 e8 00 00 00 00 bb 04 00 00 00 48  ...............H
	0x0030 89 d9 48 83 c4 20 5d c3 48 89 44 24 08 48 89 5c  ..H.. ].H.D$.H.\
	0x0040 24 10 48 89 4c 24 18 e8 00 00 00 00 48 8b 44 24  $.H.L$......H.D$
	0x0050 08 48 8b 5c 24 10 48 8b 4c 24 18 eb a3           .H.\$.H.L$...
	rel 28+4 t=R_PCREL type:int<0>+0
	rel 38+4 t=R_CALL runtime.makeslicecopy<1>+0
	rel 72+4 t=R_CALL runtime.morestack_noctxt<0>+0
command-line-arguments.SliceMakeCopyConstPtr<1> STEXT size=93 args=0x18 locals=0x28 funcid=0x0 align=0x0
	0x0000 00000 (/home/xzl/work/golang-1.22/golang-1.22/test/codegen/slices.go:179)	TEXT	command-line-arguments.SliceMakeCopyConstPtr(SB), ABIInternal, $40-24
	0x0000 00000 (/home/xzl/work/golang-1.22/golang-1.22/test/codegen/slices.go:179)	CMPQ	SP, 16(R14)
	0x0004 00004 (/home/xzl/work/golang-1.22/golang-1.22/test/codegen/slices.go:179)	PCDATA	$0, $-2
	0x0004 00004 (/home/xzl/work/golang-1.22/golang-1.22/test/codegen/slices.go:179)	JLS	56
	0x0006 00006 (/home/xzl/work/golang-1.22/golang-1.22/test/codegen/slices.go:179)	PCDATA	$0, $-1
	0x0006 00006 (/home/xzl/work/golang-1.22/golang-1.22/test/codegen/slices.go:179)	PUSHQ	BP
	0x0007 00007 (/home/xzl/work/golang-1.22/golang-1.22/test/codegen/slices.go:179)	MOVQ	SP, BP
	0x000a 00010 (/home/xzl/work/golang-1.22/golang-1.22/test/codegen/slices.go:179)	SUBQ	$32, SP
	0x000e 00014 (/home/xzl/work/golang-1.22/golang-1.22/test/codegen/slices.go:179)	MOVQ	AX, command-line-arguments.s+48(FP)
	0x0013 00019 (/home/xzl/work/golang-1.22/golang-1.22/test/codegen/slices.go:179)	FUNCDATA	$0, gclocals·wgcWObbY2HYnK2SU/U22lA==(SB)
	0x0013 00019 (/home/xzl/work/golang-1.22/golang-1.22/test/codegen/slices.go:179)	FUNCDATA	$1, gclocals·J5F+7Qw7O7ve2QcWC7DpeQ==(SB)
	0x0013 00019 (/home/xzl/work/golang-1.22/golang-1.22/test/codegen/slices.go:179)	FUNCDATA	$5, command-line-arguments.SliceMakeCopyConstPtr.arginfo1(SB)
	0x0013 00019 (/home/xzl/work/golang-1.22/golang-1.22/test/codegen/slices.go:179)	FUNCDATA	$6, command-line-arguments.SliceMakeCopyConstPtr.argliveinfo(SB)
	0x0013 00019 (/home/xzl/work/golang-1.22/golang-1.22/test/codegen/slices.go:179)	PCDATA	$3, $1
	0x0013 00019 (/home/xzl/work/golang-1.22/golang-1.22/test/codegen/slices.go:183)	MOVQ	BX, CX
	0x0016 00022 (/home/xzl/work/golang-1.22/golang-1.22/test/codegen/slices.go:183)	MOVQ	AX, DI
	0x0019 00025 (/home/xzl/work/golang-1.22/golang-1.22/test/codegen/slices.go:183)	LEAQ	type:*int(SB), AX
	0x0020 00032 (/home/xzl/work/golang-1.22/golang-1.22/test/codegen/slices.go:183)	MOVL	$4, BX
	0x0025 00037 (/home/xzl/work/golang-1.22/golang-1.22/test/codegen/slices.go:183)	PCDATA	$1, $1
	0x0025 00037 (/home/xzl/work/golang-1.22/golang-1.22/test/codegen/slices.go:183)	CALL	runtime.makeslicecopy(SB)
	0x002a 00042 (/home/xzl/work/golang-1.22/golang-1.22/test/codegen/slices.go:185)	MOVL	$4, BX
	0x002f 00047 (/home/xzl/work/golang-1.22/golang-1.22/test/codegen/slices.go:185)	MOVQ	BX, CX
	0x0032 00050 (/home/xzl/work/golang-1.22/golang-1.22/test/codegen/slices.go:185)	ADDQ	$32, SP
	0x0036 00054 (/home/xzl/work/golang-1.22/golang-1.22/test/codegen/slices.go:185)	POPQ	BP
	0x0037 00055 (/home/xzl/work/golang-1.22/golang-1.22/test/codegen/slices.go:185)	RET
	0x0038 00056 (/home/xzl/work/golang-1.22/golang-1.22/test/codegen/slices.go:185)	NOP
	0x0038 00056 (/home/xzl/work/golang-1.22/golang-1.22/test/codegen/slices.go:179)	PCDATA	$1, $-1
	0x0038 00056 (/home/xzl/work/golang-1.22/golang-1.22/test/codegen/slices.go:179)	PCDATA	$0, $-2
	0x0038 00056 (/home/xzl/work/golang-1.22/golang-1.22/test/codegen/slices.go:179)	MOVQ	AX, 8(SP)
	0x003d 00061 (/home/xzl/work/golang-1.22/golang-1.22/test/codegen/slices.go:179)	MOVQ	BX, 16(SP)
	0x0042 00066 (/home/xzl/work/golang-1.22/golang-1.22/test/codegen/slices.go:179)	MOVQ	CX, 24(SP)
	0x0047 00071 (/home/xzl/work/golang-1.22/golang-1.22/test/codegen/slices.go:179)	CALL	runtime.morestack_noctxt(SB)
	0x004c 00076 (/home/xzl/work/golang-1.22/golang-1.22/test/codegen/slices.go:179)	PCDATA	$0, $-1
	0x004c 00076 (/home/xzl/work/golang-1.22/golang-1.22/test/codegen/slices.go:179)	MOVQ	8(SP), AX
	0x0051 00081 (/home/xzl/work/golang-1.22/golang-1.22/test/codegen/slices.go:179)	MOVQ	16(SP), BX
	0x0056 00086 (/home/xzl/work/golang-1.22/golang-1.22/test/codegen/slices.go:179)	MOVQ	24(SP), CX
	0x005b 00091 (/home/xzl/work/golang-1.22/golang-1.22/test/codegen/slices.go:179)	JMP	0
	0x0000 49 3b 66 10 76 32 55 48 89 e5 48 83 ec 20 48 89  I;f.v2UH..H.. H.
	0x0010 44 24 30 48 89 d9 48 89 c7 48 8d 05 00 00 00 00  D$0H..H..H......
	0x0020 bb 04 00 00 00 e8 00 00 00 00 bb 04 00 00 00 48  ...............H
	0x0030 89 d9 48 83 c4 20 5d c3 48 89 44 24 08 48 89 5c  ..H.. ].H.D$.H.\
	0x0040 24 10 48 89 4c 24 18 e8 00 00 00 00 48 8b 44 24  $.H.L$......H.D$
	0x0050 08 48 8b 5c 24 10 48 8b 4c 24 18 eb a3           .H.\$.H.L$...
	rel 28+4 t=R_PCREL type:*int<0>+0
	rel 38+4 t=R_CALL runtime.makeslicecopy<1>+0
	rel 72+4 t=R_CALL runtime.morestack_noctxt<0>+0
command-line-arguments.SliceMakeCopyNoOptNoDeref<1> STEXT size=173 args=0x18 locals=0x48 funcid=0x0 align=0x0
	0x0000 00000 (/home/xzl/work/golang-1.22/golang-1.22/test/codegen/slices.go:188)	TEXT	command-line-arguments.SliceMakeCopyNoOptNoDeref(SB), ABIInternal, $72-24
	0x0000 00000 (/home/xzl/work/golang-1.22/golang-1.22/test/codegen/slices.go:188)	CMPQ	SP, 16(R14)
	0x0004 00004 (/home/xzl/work/golang-1.22/golang-1.22/test/codegen/slices.go:188)	PCDATA	$0, $-2
	0x0004 00004 (/home/xzl/work/golang-1.22/golang-1.22/test/codegen/slices.go:188)	JLS	133
	0x0006 00006 (/home/xzl/work/golang-1.22/golang-1.22/test/codegen/slices.go:188)	PCDATA	$0, $-1
	0x0006 00006 (/home/xzl/work/golang-1.22/golang-1.22/test/codegen/slices.go:188)	PUSHQ	BP
	0x0007 00007 (/home/xzl/work/golang-1.22/golang-1.22/test/codegen/slices.go:188)	MOVQ	SP, BP
	0x000a 00010 (/home/xzl/work/golang-1.22/golang-1.22/test/codegen/slices.go:188)	SUBQ	$64, SP
	0x000e 00014 (/home/xzl/work/golang-1.22/golang-1.22/test/codegen/slices.go:188)	FUNCDATA	$0, gclocals·bb+LSCCik3x40Cn8eFqL9w==(SB)
	0x000e 00014 (/home/xzl/work/golang-1.22/golang-1.22/test/codegen/slices.go:188)	FUNCDATA	$1, gclocals·7RWRkQP0PDegNGEQbN7Bcw==(SB)
	0x000e 00014 (/home/xzl/work/golang-1.22/golang-1.22/test/codegen/slices.go:188)	FUNCDATA	$2, command-line-arguments.SliceMakeCopyNoOptNoDeref.stkobj(SB)
	0x000e 00014 (/home/xzl/work/golang-1.22/golang-1.22/test/codegen/slices.go:188)	FUNCDATA	$5, command-line-arguments.SliceMakeCopyNoOptNoDeref.arginfo1(SB)
	0x000e 00014 (/home/xzl/work/golang-1.22/golang-1.22/test/codegen/slices.go:188)	FUNCDATA	$6, command-line-arguments.SliceMakeCopyNoOptNoDeref.argliveinfo(SB)
	0x000e 00014 (/home/xzl/work/golang-1.22/golang-1.22/test/codegen/slices.go:188)	PCDATA	$3, $1
	0x000e 00014 (/home/xzl/work/golang-1.22/golang-1.22/test/codegen/slices.go:196)	MOVQ	BX, command-line-arguments.s+88(SP)
	0x0013 00019 (/home/xzl/work/golang-1.22/golang-1.22/test/codegen/slices.go:196)	MOVQ	AX, command-line-arguments.s+80(SP)
	0x0018 00024 (/home/xzl/work/golang-1.22/golang-1.22/test/codegen/slices.go:196)	PCDATA	$3, $2
	0x0018 00024 (/home/xzl/work/golang-1.22/golang-1.22/test/codegen/slices.go:192)	MOVQ	$0, command-line-arguments..autotmp_4+40(SP)
	0x0021 00033 (/home/xzl/work/golang-1.22/golang-1.22/test/codegen/slices.go:189)	MOVUPS	X15, command-line-arguments..autotmp_4+48(SP)
	0x0027 00039 (/home/xzl/work/golang-1.22/golang-1.22/test/codegen/slices.go:192)	MOVL	$4, CX
	0x002c 00044 (/home/xzl/work/golang-1.22/golang-1.22/test/codegen/slices.go:192)	LEAQ	type:*int(SB), AX
	0x0033 00051 (/home/xzl/work/golang-1.22/golang-1.22/test/codegen/slices.go:192)	MOVQ	CX, BX
	0x0036 00054 (/home/xzl/work/golang-1.22/golang-1.22/test/codegen/slices.go:192)	PCDATA	$1, $1
	0x0036 00054 (/home/xzl/work/golang-1.22/golang-1.22/test/codegen/slices.go:192)	CALL	runtime.makeslice(SB)
	0x003b 00059 (/home/xzl/work/golang-1.22/golang-1.22/test/codegen/slices.go:192)	MOVQ	$4, command-line-arguments..autotmp_4+48(SP)
	0x0044 00068 (/home/xzl/work/golang-1.22/golang-1.22/test/codegen/slices.go:192)	MOVQ	$4, command-line-arguments..autotmp_4+56(SP)
	0x004d 00077 (/home/xzl/work/golang-1.22/golang-1.22/test/codegen/slices.go:192)	MOVQ	AX, command-line-arguments..autotmp_4+40(SP)
	0x0052 00082 (/home/xzl/work/golang-1.22/golang-1.22/test/codegen/slices.go:195)	MOVQ	AX, BX
	0x0055 00085 (/home/xzl/work/golang-1.22/golang-1.22/test/codegen/slices.go:195)	MOVL	$4, CX
	0x005a 00090 (/home/xzl/work/golang-1.22/golang-1.22/test/codegen/slices.go:195)	MOVQ	command-line-arguments.s+80(SP), DI
	0x005f 00095 (/home/xzl/work/golang-1.22/golang-1.22/test/codegen/slices.go:195)	MOVQ	command-line-arguments.s+88(SP), SI
	0x0064 00100 (/home/xzl/work/golang-1.22/golang-1.22/test/codegen/slices.go:195)	LEAQ	type:*int(SB), AX
	0x006b 00107 (/home/xzl/work/golang-1.22/golang-1.22/test/codegen/slices.go:195)	PCDATA	$1, $2
	0x006b 00107 (/home/xzl/work/golang-1.22/golang-1.22/test/codegen/slices.go:195)	CALL	runtime.typedslicecopy(SB)
	0x0070 00112 (/home/xzl/work/golang-1.22/golang-1.22/test/codegen/slices.go:196)	MOVQ	command-line-arguments..autotmp_4+40(SP), AX
	0x0075 00117 (/home/xzl/work/golang-1.22/golang-1.22/test/codegen/slices.go:196)	MOVQ	command-line-arguments..autotmp_4+48(SP), BX
	0x007a 00122 (/home/xzl/work/golang-1.22/golang-1.22/test/codegen/slices.go:196)	MOVQ	command-line-arguments..autotmp_4+56(SP), CX
	0x007f 00127 (/home/xzl/work/golang-1.22/golang-1.22/test/codegen/slices.go:196)	ADDQ	$64, SP
	0x0083 00131 (/home/xzl/work/golang-1.22/golang-1.22/test/codegen/slices.go:196)	POPQ	BP
	0x0084 00132 (/home/xzl/work/golang-1.22/golang-1.22/test/codegen/slices.go:196)	RET
	0x0085 00133 (/home/xzl/work/golang-1.22/golang-1.22/test/codegen/slices.go:196)	NOP
	0x0085 00133 (/home/xzl/work/golang-1.22/golang-1.22/test/codegen/slices.go:188)	PCDATA	$1, $-1
	0x0085 00133 (/home/xzl/work/golang-1.22/golang-1.22/test/codegen/slices.go:188)	PCDATA	$0, $-2
	0x0085 00133 (/home/xzl/work/golang-1.22/golang-1.22/test/codegen/slices.go:188)	MOVQ	AX, 8(SP)
	0x008a 00138 (/home/xzl/work/golang-1.22/golang-1.22/test/codegen/slices.go:188)	MOVQ	BX, 16(SP)
	0x008f 00143 (/home/xzl/work/golang-1.22/golang-1.22/test/codegen/slices.go:188)	MOVQ	CX, 24(SP)
	0x0094 00148 (/home/xzl/work/golang-1.22/golang-1.22/test/codegen/slices.go:188)	CALL	runtime.morestack_noctxt(SB)
	0x0099 00153 (/home/xzl/work/golang-1.22/golang-1.22/test/codegen/slices.go:188)	PCDATA	$0, $-1
	0x0099 00153 (/home/xzl/work/golang-1.22/golang-1.22/test/codegen/slices.go:188)	MOVQ	8(SP), AX
	0x009e 00158 (/home/xzl/work/golang-1.22/golang-1.22/test/codegen/slices.go:188)	MOVQ	16(SP), BX
	0x00a3 00163 (/home/xzl/work/golang-1.22/golang-1.22/test/codegen/slices.go:188)	MOVQ	24(SP), CX
	0x00a8 00168 (/home/xzl/work/golang-1.22/golang-1.22/test/codegen/slices.go:188)	JMP	0
	0x0000 49 3b 66 10 76 7f 55 48 89 e5 48 83 ec 40 48 89  I;f.v.UH..H..@H.
	0x0010 5c 24 58 48 89 44 24 50 48 c7 44 24 28 00 00 00  \$XH.D$PH.D$(...
	0x0020 00 44 0f 11 7c 24 30 b9 04 00 00 00 48 8d 05 00  .D..|$0.....H...
	0x0030 00 00 00 48 89 cb e8 00 00 00 00 48 c7 44 24 30  ...H.......H.D$0
	0x0040 04 00 00 00 48 c7 44 24 38 04 00 00 00 48 89 44  ....H.D$8....H.D
	0x0050 24 28 48 89 c3 b9 04 00 00 00 48 8b 7c 24 50 48  $(H.......H.|$PH
	0x0060 8b 74 24 58 48 8d 05 00 00 00 00 e8 00 00 00 00  .t$XH...........
	0x0070 48 8b 44 24 28 48 8b 5c 24 30 48 8b 4c 24 38 48  H.D$(H.\$0H.L$8H
	0x0080 83 c4 40 5d c3 48 89 44 24 08 48 89 5c 24 10 48  ..@].H.D$.H.\$.H
	0x0090 89 4c 24 18 e8 00 00 00 00 48 8b 44 24 08 48 8b  .L$......H.D$.H.
	0x00a0 5c 24 10 48 8b 4c 24 18 e9 53 ff ff ff           \$.H.L$..S...
	rel 47+4 t=R_PCREL type:*int<0>+0
	rel 55+4 t=R_CALL runtime.makeslice<1>+0
	rel 103+4 t=R_PCREL type:*int<0>+0
	rel 108+4 t=R_CALL runtime.typedslicecopy<1>+0
	rel 149+4 t=R_CALL runtime.morestack_noctxt<0>+0
command-line-arguments.SliceMakeCopyNoOptNoVar<1> STEXT size=173 args=0x18 locals=0x48 funcid=0x0 align=0x0
	0x0000 00000 (/home/xzl/work/golang-1.22/golang-1.22/test/codegen/slices.go:199)	TEXT	command-line-arguments.SliceMakeCopyNoOptNoVar(SB), ABIInternal, $72-24
	0x0000 00000 (/home/xzl/work/golang-1.22/golang-1.22/test/codegen/slices.go:199)	CMPQ	SP, 16(R14)
	0x0004 00004 (/home/xzl/work/golang-1.22/golang-1.22/test/codegen/slices.go:199)	PCDATA	$0, $-2
	0x0004 00004 (/home/xzl/work/golang-1.22/golang-1.22/test/codegen/slices.go:199)	JLS	133
	0x0006 00006 (/home/xzl/work/golang-1.22/golang-1.22/test/codegen/slices.go:199)	PCDATA	$0, $-1
	0x0006 00006 (/home/xzl/work/golang-1.22/golang-1.22/test/codegen/slices.go:199)	PUSHQ	BP
	0x0007 00007 (/home/xzl/work/golang-1.22/golang-1.22/test/codegen/slices.go:199)	MOVQ	SP, BP
	0x000a 00010 (/home/xzl/work/golang-1.22/golang-1.22/test/codegen/slices.go:199)	SUBQ	$64, SP
	0x000e 00014 (/home/xzl/work/golang-1.22/golang-1.22/test/codegen/slices.go:199)	FUNCDATA	$0, gclocals·bb+LSCCik3x40Cn8eFqL9w==(SB)
	0x000e 00014 (/home/xzl/work/golang-1.22/golang-1.22/test/codegen/slices.go:199)	FUNCDATA	$1, gclocals·7RWRkQP0PDegNGEQbN7Bcw==(SB)
	0x000e 00014 (/home/xzl/work/golang-1.22/golang-1.22/test/codegen/slices.go:199)	FUNCDATA	$2, command-line-arguments.SliceMakeCopyNoOptNoVar.stkobj(SB)
	0x000e 00014 (/home/xzl/work/golang-1.22/golang-1.22/test/codegen/slices.go:199)	FUNCDATA	$5, command-line-arguments.SliceMakeCopyNoOptNoVar.arginfo1(SB)
	0x000e 00014 (/home/xzl/work/golang-1.22/golang-1.22/test/codegen/slices.go:199)	FUNCDATA	$6, command-line-arguments.SliceMakeCopyNoOptNoVar.argliveinfo(SB)
	0x000e 00014 (/home/xzl/work/golang-1.22/golang-1.22/test/codegen/slices.go:199)	PCDATA	$3, $1
	0x000e 00014 (/home/xzl/work/golang-1.22/golang-1.22/test/codegen/slices.go:207)	MOVQ	AX, command-line-arguments.s+80(SP)
	0x0013 00019 (/home/xzl/work/golang-1.22/golang-1.22/test/codegen/slices.go:207)	MOVQ	BX, command-line-arguments.s+88(SP)
	0x0018 00024 (/home/xzl/work/golang-1.22/golang-1.22/test/codegen/slices.go:207)	PCDATA	$3, $2
	0x0018 00024 (/home/xzl/work/golang-1.22/golang-1.22/test/codegen/slices.go:203)	MOVQ	$0, command-line-arguments..autotmp_4+40(SP)
	0x0021 00033 (/home/xzl/work/golang-1.22/golang-1.22/test/codegen/slices.go:200)	MOVUPS	X15, command-line-arguments..autotmp_4+48(SP)
	0x0027 00039 (/home/xzl/work/golang-1.22/golang-1.22/test/codegen/slices.go:203)	MOVL	$4, CX
	0x002c 00044 (/home/xzl/work/golang-1.22/golang-1.22/test/codegen/slices.go:203)	LEAQ	type:*int(SB), AX
	0x0033 00051 (/home/xzl/work/golang-1.22/golang-1.22/test/codegen/slices.go:203)	MOVQ	CX, BX
	0x0036 00054 (/home/xzl/work/golang-1.22/golang-1.22/test/codegen/slices.go:203)	PCDATA	$1, $1
	0x0036 00054 (/home/xzl/work/golang-1.22/golang-1.22/test/codegen/slices.go:203)	CALL	runtime.makeslice(SB)
	0x003b 00059 (/home/xzl/work/golang-1.22/golang-1.22/test/codegen/slices.go:203)	MOVQ	$4, command-line-arguments..autotmp_4+48(SP)
	0x0044 00068 (/home/xzl/work/golang-1.22/golang-1.22/test/codegen/slices.go:203)	MOVQ	$4, command-line-arguments..autotmp_4+56(SP)
	0x004d 00077 (/home/xzl/work/golang-1.22/golang-1.22/test/codegen/slices.go:203)	MOVQ	AX, command-line-arguments..autotmp_4+40(SP)
	0x0052 00082 (/home/xzl/work/golang-1.22/golang-1.22/test/codegen/slices.go:206)	MOVQ	AX, BX
	0x0055 00085 (/home/xzl/work/golang-1.22/golang-1.22/test/codegen/slices.go:206)	MOVL	$4, CX
	0x005a 00090 (/home/xzl/work/golang-1.22/golang-1.22/test/codegen/slices.go:206)	MOVQ	command-line-arguments.s+80(SP), DI
	0x005f 00095 (/home/xzl/work/golang-1.22/golang-1.22/test/codegen/slices.go:206)	MOVQ	command-line-arguments.s+88(SP), SI
	0x0064 00100 (/home/xzl/work/golang-1.22/golang-1.22/test/codegen/slices.go:206)	LEAQ	type:*int(SB), AX
	0x006b 00107 (/home/xzl/work/golang-1.22/golang-1.22/test/codegen/slices.go:206)	PCDATA	$1, $2
	0x006b 00107 (/home/xzl/work/golang-1.22/golang-1.22/test/codegen/slices.go:206)	CALL	runtime.typedslicecopy(SB)
	0x0070 00112 (/home/xzl/work/golang-1.22/golang-1.22/test/codegen/slices.go:207)	MOVQ	command-line-arguments..autotmp_4+40(SP), AX
	0x0075 00117 (/home/xzl/work/golang-1.22/golang-1.22/test/codegen/slices.go:207)	MOVQ	command-line-arguments..autotmp_4+48(SP), BX
	0x007a 00122 (/home/xzl/work/golang-1.22/golang-1.22/test/codegen/slices.go:207)	MOVQ	command-line-arguments..autotmp_4+56(SP), CX
	0x007f 00127 (/home/xzl/work/golang-1.22/golang-1.22/test/codegen/slices.go:207)	ADDQ	$64, SP
	0x0083 00131 (/home/xzl/work/golang-1.22/golang-1.22/test/codegen/slices.go:207)	POPQ	BP
	0x0084 00132 (/home/xzl/work/golang-1.22/golang-1.22/test/codegen/slices.go:207)	RET
	0x0085 00133 (/home/xzl/work/golang-1.22/golang-1.22/test/codegen/slices.go:207)	NOP
	0x0085 00133 (/home/xzl/work/golang-1.22/golang-1.22/test/codegen/slices.go:199)	PCDATA	$1, $-1
	0x0085 00133 (/home/xzl/work/golang-1.22/golang-1.22/test/codegen/slices.go:199)	PCDATA	$0, $-2
	0x0085 00133 (/home/xzl/work/golang-1.22/golang-1.22/test/codegen/slices.go:199)	MOVQ	AX, 8(SP)
	0x008a 00138 (/home/xzl/work/golang-1.22/golang-1.22/test/codegen/slices.go:199)	MOVQ	BX, 16(SP)
	0x008f 00143 (/home/xzl/work/golang-1.22/golang-1.22/test/codegen/slices.go:199)	MOVQ	CX, 24(SP)
	0x0094 00148 (/home/xzl/work/golang-1.22/golang-1.22/test/codegen/slices.go:199)	CALL	runtime.morestack_noctxt(SB)
	0x0099 00153 (/home/xzl/work/golang-1.22/golang-1.22/test/codegen/slices.go:199)	PCDATA	$0, $-1
	0x0099 00153 (/home/xzl/work/golang-1.22/golang-1.22/test/codegen/slices.go:199)	MOVQ	8(SP), AX
	0x009e 00158 (/home/xzl/work/golang-1.22/golang-1.22/test/codegen/slices.go:199)	MOVQ	16(SP), BX
	0x00a3 00163 (/home/xzl/work/golang-1.22/golang-1.22/test/codegen/slices.go:199)	MOVQ	24(SP), CX
	0x00a8 00168 (/home/xzl/work/golang-1.22/golang-1.22/test/codegen/slices.go:199)	JMP	0
	0x0000 49 3b 66 10 76 7f 55 48 89 e5 48 83 ec 40 48 89  I;f.v.UH..H..@H.
	0x0010 44 24 50 48 89 5c 24 58 48 c7 44 24 28 00 00 00  D$PH.\$XH.D$(...
	0x0020 00 44 0f 11 7c 24 30 b9 04 00 00 00 48 8d 05 00  .D..|$0.....H...
	0x0030 00 00 00 48 89 cb e8 00 00 00 00 48 c7 44 24 30  ...H.......H.D$0
	0x0040 04 00 00 00 48 c7 44 24 38 04 00 00 00 48 89 44  ....H.D$8....H.D
	0x0050 24 28 48 89 c3 b9 04 00 00 00 48 8b 7c 24 50 48  $(H.......H.|$PH
	0x0060 8b 74 24 58 48 8d 05 00 00 00 00 e8 00 00 00 00  .t$XH...........
	0x0070 48 8b 44 24 28 48 8b 5c 24 30 48 8b 4c 24 38 48  H.D$(H.\$0H.L$8H
	0x0080 83 c4 40 5d c3 48 89 44 24 08 48 89 5c 24 10 48  ..@].H.D$.H.\$.H
	0x0090 89 4c 24 18 e8 00 00 00 00 48 8b 44 24 08 48 8b  .L$......H.D$.H.
	0x00a0 5c 24 10 48 8b 4c 24 18 e9 53 ff ff ff           \$.H.L$..S...
	rel 47+4 t=R_PCREL type:*int<0>+0
	rel 55+4 t=R_CALL runtime.makeslice<1>+0
	rel 103+4 t=R_PCREL type:*int<0>+0
	rel 108+4 t=R_CALL runtime.typedslicecopy<1>+0
	rel 149+4 t=R_CALL runtime.morestack_noctxt<0>+0
command-line-arguments.SliceMakeCopyNoOptBlank<1> STEXT size=91 args=0x18 locals=0x30 funcid=0x0 align=0x0
	0x0000 00000 (/home/xzl/work/golang-1.22/golang-1.22/test/codegen/slices.go:210)	TEXT	command-line-arguments.SliceMakeCopyNoOptBlank(SB), ABIInternal, $48-24
	0x0000 00000 (/home/xzl/work/golang-1.22/golang-1.22/test/codegen/slices.go:210)	CMPQ	SP, 16(R14)
	0x0004 00004 (/home/xzl/work/golang-1.22/golang-1.22/test/codegen/slices.go:210)	PCDATA	$0, $-2
	0x0004 00004 (/home/xzl/work/golang-1.22/golang-1.22/test/codegen/slices.go:210)	JLS	54
	0x0006 00006 (/home/xzl/work/golang-1.22/golang-1.22/test/codegen/slices.go:210)	PCDATA	$0, $-1
	0x0006 00006 (/home/xzl/work/golang-1.22/golang-1.22/test/codegen/slices.go:210)	PUSHQ	BP
	0x0007 00007 (/home/xzl/work/golang-1.22/golang-1.22/test/codegen/slices.go:210)	MOVQ	SP, BP
	0x000a 00010 (/home/xzl/work/golang-1.22/golang-1.22/test/codegen/slices.go:210)	SUBQ	$40, SP
	0x000e 00014 (/home/xzl/work/golang-1.22/golang-1.22/test/codegen/slices.go:210)	MOVQ	AX, command-line-arguments.s+56(FP)
	0x0013 00019 (/home/xzl/work/golang-1.22/golang-1.22/test/codegen/slices.go:210)	FUNCDATA	$0, gclocals·wgcWObbY2HYnK2SU/U22lA==(SB)
	0x0013 00019 (/home/xzl/work/golang-1.22/golang-1.22/test/codegen/slices.go:210)	FUNCDATA	$1, gclocals·J5F+7Qw7O7ve2QcWC7DpeQ==(SB)
	0x0013 00019 (/home/xzl/work/golang-1.22/golang-1.22/test/codegen/slices.go:210)	FUNCDATA	$5, command-line-arguments.SliceMakeCopyNoOptBlank.arginfo1(SB)
	0x0013 00019 (/home/xzl/work/golang-1.22/golang-1.22/test/codegen/slices.go:210)	FUNCDATA	$6, command-line-arguments.SliceMakeCopyNoOptBlank.argliveinfo(SB)
	0x0013 00019 (/home/xzl/work/golang-1.22/golang-1.22/test/codegen/slices.go:210)	PCDATA	$3, $1
	0x0013 00019 (/home/xzl/work/golang-1.22/golang-1.22/test/codegen/slices.go:216)	XORL	CX, CX
	0x0015 00021 (/home/xzl/work/golang-1.22/golang-1.22/test/codegen/slices.go:216)	MOVQ	AX, DI
	0x0018 00024 (/home/xzl/work/golang-1.22/golang-1.22/test/codegen/slices.go:216)	MOVQ	BX, SI
	0x001b 00027 (/home/xzl/work/golang-1.22/golang-1.22/test/codegen/slices.go:216)	LEAQ	type:*int(SB), AX
	0x0022 00034 (/home/xzl/work/golang-1.22/golang-1.22/test/codegen/slices.go:216)	XORL	BX, BX
	0x0024 00036 (/home/xzl/work/golang-1.22/golang-1.22/test/codegen/slices.go:216)	PCDATA	$1, $1
	0x0024 00036 (/home/xzl/work/golang-1.22/golang-1.22/test/codegen/slices.go:216)	CALL	runtime.typedslicecopy(SB)
	0x0029 00041 (/home/xzl/work/golang-1.22/golang-1.22/test/codegen/slices.go:217)	XORL	AX, AX
	0x002b 00043 (/home/xzl/work/golang-1.22/golang-1.22/test/codegen/slices.go:217)	XORL	BX, BX
	0x002d 00045 (/home/xzl/work/golang-1.22/golang-1.22/test/codegen/slices.go:217)	MOVQ	BX, CX
	0x0030 00048 (/home/xzl/work/golang-1.22/golang-1.22/test/codegen/slices.go:217)	ADDQ	$40, SP
	0x0034 00052 (/home/xzl/work/golang-1.22/golang-1.22/test/codegen/slices.go:217)	POPQ	BP
	0x0035 00053 (/home/xzl/work/golang-1.22/golang-1.22/test/codegen/slices.go:217)	RET
	0x0036 00054 (/home/xzl/work/golang-1.22/golang-1.22/test/codegen/slices.go:217)	NOP
	0x0036 00054 (/home/xzl/work/golang-1.22/golang-1.22/test/codegen/slices.go:210)	PCDATA	$1, $-1
	0x0036 00054 (/home/xzl/work/golang-1.22/golang-1.22/test/codegen/slices.go:210)	PCDATA	$0, $-2
	0x0036 00054 (/home/xzl/work/golang-1.22/golang-1.22/test/codegen/slices.go:210)	MOVQ	AX, 8(SP)
	0x003b 00059 (/home/xzl/work/golang-1.22/golang-1.22/test/codegen/slices.go:210)	MOVQ	BX, 16(SP)
	0x0040 00064 (/home/xzl/work/golang-1.22/golang-1.22/test/codegen/slices.go:210)	MOVQ	CX, 24(SP)
	0x0045 00069 (/home/xzl/work/golang-1.22/golang-1.22/test/codegen/slices.go:210)	CALL	runtime.morestack_noctxt(SB)
	0x004a 00074 (/home/xzl/work/golang-1.22/golang-1.22/test/codegen/slices.go:210)	PCDATA	$0, $-1
	0x004a 00074 (/home/xzl/work/golang-1.22/golang-1.22/test/codegen/slices.go:210)	MOVQ	8(SP), AX
	0x004f 00079 (/home/xzl/work/golang-1.22/golang-1.22/test/codegen/slices.go:210)	MOVQ	16(SP), BX
	0x0054 00084 (/home/xzl/work/golang-1.22/golang-1.22/test/codegen/slices.go:210)	MOVQ	24(SP), CX
	0x0059 00089 (/home/xzl/work/golang-1.22/golang-1.22/test/codegen/slices.go:210)	JMP	0
	0x0000 49 3b 66 10 76 30 55 48 89 e5 48 83 ec 28 48 89  I;f.v0UH..H..(H.
	0x0010 44 24 38 31 c9 48 89 c7 48 89 de 48 8d 05 00 00  D$81.H..H..H....
	0x0020 00 00 31 db e8 00 00 00 00 31 c0 31 db 48 89 d9  ..1......1.1.H..
	0x0030 48 83 c4 28 5d c3 48 89 44 24 08 48 89 5c 24 10  H..(].H.D$.H.\$.
	0x0040 48 89 4c 24 18 e8 00 00 00 00 48 8b 44 24 08 48  H.L$......H.D$.H
	0x0050 8b 5c 24 10 48 8b 4c 24 18 eb a5                 .\$.H.L$...
	rel 30+4 t=R_PCREL type:*int<0>+0
	rel 37+4 t=R_CALL runtime.typedslicecopy<1>+0
	rel 70+4 t=R_CALL runtime.morestack_noctxt<0>+0
command-line-arguments.SliceMakeCopyNoOptNoMake<1> STEXT size=91 args=0x18 locals=0x30 funcid=0x0 align=0x0
	0x0000 00000 (/home/xzl/work/golang-1.22/golang-1.22/test/codegen/slices.go:220)	TEXT	command-line-arguments.SliceMakeCopyNoOptNoMake(SB), ABIInternal, $48-24
	0x0000 00000 (/home/xzl/work/golang-1.22/golang-1.22/test/codegen/slices.go:220)	CMPQ	SP, 16(R14)
	0x0004 00004 (/home/xzl/work/golang-1.22/golang-1.22/test/codegen/slices.go:220)	PCDATA	$0, $-2
	0x0004 00004 (/home/xzl/work/golang-1.22/golang-1.22/test/codegen/slices.go:220)	JLS	54
	0x0006 00006 (/home/xzl/work/golang-1.22/golang-1.22/test/codegen/slices.go:220)	PCDATA	$0, $-1
	0x0006 00006 (/home/xzl/work/golang-1.22/golang-1.22/test/codegen/slices.go:220)	PUSHQ	BP
	0x0007 00007 (/home/xzl/work/golang-1.22/golang-1.22/test/codegen/slices.go:220)	MOVQ	SP, BP
	0x000a 00010 (/home/xzl/work/golang-1.22/golang-1.22/test/codegen/slices.go:220)	SUBQ	$40, SP
	0x000e 00014 (/home/xzl/work/golang-1.22/golang-1.22/test/codegen/slices.go:220)	MOVQ	AX, command-line-arguments.s+56(FP)
	0x0013 00019 (/home/xzl/work/golang-1.22/golang-1.22/test/codegen/slices.go:220)	FUNCDATA	$0, gclocals·wgcWObbY2HYnK2SU/U22lA==(SB)
	0x0013 00019 (/home/xzl/work/golang-1.22/golang-1.22/test/codegen/slices.go:220)	FUNCDATA	$1, gclocals·J5F+7Qw7O7ve2QcWC7DpeQ==(SB)
	0x0013 00019 (/home/xzl/work/golang-1.22/golang-1.22/test/codegen/slices.go:220)	FUNCDATA	$5, command-line-arguments.SliceMakeCopyNoOptNoMake.arginfo1(SB)
	0x0013 00019 (/home/xzl/work/golang-1.22/golang-1.22/test/codegen/slices.go:220)	FUNCDATA	$6, command-line-arguments.SliceMakeCopyNoOptNoMake.argliveinfo(SB)
	0x0013 00019 (/home/xzl/work/golang-1.22/golang-1.22/test/codegen/slices.go:220)	PCDATA	$3, $1
	0x0013 00019 (/home/xzl/work/golang-1.22/golang-1.22/test/codegen/slices.go:226)	XORL	CX, CX
	0x0015 00021 (/home/xzl/work/golang-1.22/golang-1.22/test/codegen/slices.go:226)	MOVQ	AX, DI
	0x0018 00024 (/home/xzl/work/golang-1.22/golang-1.22/test/codegen/slices.go:226)	MOVQ	BX, SI
	0x001b 00027 (/home/xzl/work/golang-1.22/golang-1.22/test/codegen/slices.go:226)	LEAQ	type:*int(SB), AX
	0x0022 00034 (/home/xzl/work/golang-1.22/golang-1.22/test/codegen/slices.go:226)	XORL	BX, BX
	0x0024 00036 (/home/xzl/work/golang-1.22/golang-1.22/test/codegen/slices.go:226)	PCDATA	$1, $1
	0x0024 00036 (/home/xzl/work/golang-1.22/golang-1.22/test/codegen/slices.go:226)	CALL	runtime.typedslicecopy(SB)
	0x0029 00041 (/home/xzl/work/golang-1.22/golang-1.22/test/codegen/slices.go:227)	XORL	AX, AX
	0x002b 00043 (/home/xzl/work/golang-1.22/golang-1.22/test/codegen/slices.go:227)	XORL	BX, BX
	0x002d 00045 (/home/xzl/work/golang-1.22/golang-1.22/test/codegen/slices.go:227)	MOVQ	BX, CX
	0x0030 00048 (/home/xzl/work/golang-1.22/golang-1.22/test/codegen/slices.go:227)	ADDQ	$40, SP
	0x0034 00052 (/home/xzl/work/golang-1.22/golang-1.22/test/codegen/slices.go:227)	POPQ	BP
	0x0035 00053 (/home/xzl/work/golang-1.22/golang-1.22/test/codegen/slices.go:227)	RET
	0x0036 00054 (/home/xzl/work/golang-1.22/golang-1.22/test/codegen/slices.go:227)	NOP
	0x0036 00054 (/home/xzl/work/golang-1.22/golang-1.22/test/codegen/slices.go:220)	PCDATA	$1, $-1
	0x0036 00054 (/home/xzl/work/golang-1.22/golang-1.22/test/codegen/slices.go:220)	PCDATA	$0, $-2
	0x0036 00054 (/home/xzl/work/golang-1.22/golang-1.22/test/codegen/slices.go:220)	MOVQ	AX, 8(SP)
	0x003b 00059 (/home/xzl/work/golang-1.22/golang-1.22/test/codegen/slices.go:220)	MOVQ	BX, 16(SP)
	0x0040 00064 (/home/xzl/work/golang-1.22/golang-1.22/test/codegen/slices.go:220)	MOVQ	CX, 24(SP)
	0x0045 00069 (/home/xzl/work/golang-1.22/golang-1.22/test/codegen/slices.go:220)	CALL	runtime.morestack_noctxt(SB)
	0x004a 00074 (/home/xzl/work/golang-1.22/golang-1.22/test/codegen/slices.go:220)	PCDATA	$0, $-1
	0x004a 00074 (/home/xzl/work/golang-1.22/golang-1.22/test/codegen/slices.go:220)	MOVQ	8(SP), AX
	0x004f 00079 (/home/xzl/work/golang-1.22/golang-1.22/test/codegen/slices.go:220)	MOVQ	16(SP), BX
	0x0054 00084 (/home/xzl/work/golang-1.22/golang-1.22/test/codegen/slices.go:220)	MOVQ	24(SP), CX
	0x0059 00089 (/home/xzl/work/golang-1.22/golang-1.22/test/codegen/slices.go:220)	JMP	0
	0x0000 49 3b 66 10 76 30 55 48 89 e5 48 83 ec 28 48 89  I;f.v0UH..H..(H.
	0x0010 44 24 38 31 c9 48 89 c7 48 89 de 48 8d 05 00 00  D$81.H..H..H....
	0x0020 00 00 31 db e8 00 00 00 00 31 c0 31 db 48 89 d9  ..1......1.1.H..
	0x0030 48 83 c4 28 5d c3 48 89 44 24 08 48 89 5c 24 10  H..(].H.D$.H.\$.
	0x0040 48 89 4c 24 18 e8 00 00 00 00 48 8b 44 24 08 48  H.L$......H.D$.H
	0x0050 8b 5c 24 10 48 8b 4c 24 18 eb a5                 .\$.H.L$...
	rel 30+4 t=R_PCREL type:*int<0>+0
	rel 37+4 t=R_CALL runtime.typedslicecopy<1>+0
	rel 70+4 t=R_CALL runtime.morestack_noctxt<0>+0
command-line-arguments.SliceMakeCopyNoOptNoHeapAlloc<1> STEXT size=107 args=0x18 locals=0x50 funcid=0x0 align=0x0
	0x0000 00000 (/home/xzl/work/golang-1.22/golang-1.22/test/codegen/slices.go:230)	TEXT	command-line-arguments.SliceMakeCopyNoOptNoHeapAlloc(SB), ABIInternal, $80-24
	0x0000 00000 (/home/xzl/work/golang-1.22/golang-1.22/test/codegen/slices.go:230)	CMPQ	SP, 16(R14)
	0x0004 00004 (/home/xzl/work/golang-1.22/golang-1.22/test/codegen/slices.go:230)	PCDATA	$0, $-2
	0x0004 00004 (/home/xzl/work/golang-1.22/golang-1.22/test/codegen/slices.go:230)	JLS	70
	0x0006 00006 (/home/xzl/work/golang-1.22/golang-1.22/test/codegen/slices.go:230)	PCDATA	$0, $-1
	0x0006 00006 (/home/xzl/work/golang-1.22/golang-1.22/test/codegen/slices.go:230)	PUSHQ	BP
	0x0007 00007 (/home/xzl/work/golang-1.22/golang-1.22/test/codegen/slices.go:230)	MOVQ	SP, BP
	0x000a 00010 (/home/xzl/work/golang-1.22/golang-1.22/test/codegen/slices.go:230)	SUBQ	$72, SP
	0x000e 00014 (/home/xzl/work/golang-1.22/golang-1.22/test/codegen/slices.go:230)	MOVQ	AX, command-line-arguments.s+88(FP)
	0x0013 00019 (/home/xzl/work/golang-1.22/golang-1.22/test/codegen/slices.go:230)	FUNCDATA	$0, gclocals·wgcWObbY2HYnK2SU/U22lA==(SB)
	0x0013 00019 (/home/xzl/work/golang-1.22/golang-1.22/test/codegen/slices.go:230)	FUNCDATA	$1, gclocals·EXTrhv4b3ahawRWAszmcVw==(SB)
	0x0013 00019 (/home/xzl/work/golang-1.22/golang-1.22/test/codegen/slices.go:230)	FUNCDATA	$2, command-line-arguments.SliceMakeCopyNoOptNoHeapAlloc.stkobj(SB)
	0x0013 00019 (/home/xzl/work/golang-1.22/golang-1.22/test/codegen/slices.go:230)	FUNCDATA	$5, command-line-arguments.SliceMakeCopyNoOptNoHeapAlloc.arginfo1(SB)
	0x0013 00019 (/home/xzl/work/golang-1.22/golang-1.22/test/codegen/slices.go:230)	FUNCDATA	$6, command-line-arguments.SliceMakeCopyNoOptNoHeapAlloc.argliveinfo(SB)
	0x0013 00019 (/home/xzl/work/golang-1.22/golang-1.22/test/codegen/slices.go:230)	PCDATA	$3, $1
	0x0013 00019 (/home/xzl/work/golang-1.22/golang-1.22/test/codegen/slices.go:232)	MOVUPS	X15, command-line-arguments..autotmp_4+40(SP)
	0x0019 00025 (/home/xzl/work/golang-1.22/golang-1.22/test/codegen/slices.go:232)	MOVUPS	X15, command-line-arguments..autotmp_4+56(SP)
	0x001f 00031 (/home/xzl/work/golang-1.22/golang-1.22/test/codegen/slices.go:235)	MOVL	$4, CX
	0x0024 00036 (/home/xzl/work/golang-1.22/golang-1.22/test/codegen/slices.go:235)	MOVQ	AX, DI
	0x0027 00039 (/home/xzl/work/golang-1.22/golang-1.22/test/codegen/slices.go:235)	MOVQ	BX, SI
	0x002a 00042 (/home/xzl/work/golang-1.22/golang-1.22/test/codegen/slices.go:235)	LEAQ	type:*int(SB), AX
	0x0031 00049 (/home/xzl/work/golang-1.22/golang-1.22/test/codegen/slices.go:235)	LEAQ	command-line-arguments..autotmp_4+40(SP), BX
	0x0036 00054 (/home/xzl/work/golang-1.22/golang-1.22/test/codegen/slices.go:235)	PCDATA	$1, $1
	0x0036 00054 (/home/xzl/work/golang-1.22/golang-1.22/test/codegen/slices.go:235)	CALL	runtime.typedslicecopy(SB)
	0x003b 00059 (/home/xzl/work/golang-1.22/golang-1.22/test/codegen/slices.go:236)	MOVL	$4, AX
	0x0040 00064 (/home/xzl/work/golang-1.22/golang-1.22/test/codegen/slices.go:236)	ADDQ	$72, SP
	0x0044 00068 (/home/xzl/work/golang-1.22/golang-1.22/test/codegen/slices.go:236)	POPQ	BP
	0x0045 00069 (/home/xzl/work/golang-1.22/golang-1.22/test/codegen/slices.go:236)	RET
	0x0046 00070 (/home/xzl/work/golang-1.22/golang-1.22/test/codegen/slices.go:236)	NOP
	0x0046 00070 (/home/xzl/work/golang-1.22/golang-1.22/test/codegen/slices.go:230)	PCDATA	$1, $-1
	0x0046 00070 (/home/xzl/work/golang-1.22/golang-1.22/test/codegen/slices.go:230)	PCDATA	$0, $-2
	0x0046 00070 (/home/xzl/work/golang-1.22/golang-1.22/test/codegen/slices.go:230)	MOVQ	AX, 8(SP)
	0x004b 00075 (/home/xzl/work/golang-1.22/golang-1.22/test/codegen/slices.go:230)	MOVQ	BX, 16(SP)
	0x0050 00080 (/home/xzl/work/golang-1.22/golang-1.22/test/codegen/slices.go:230)	MOVQ	CX, 24(SP)
	0x0055 00085 (/home/xzl/work/golang-1.22/golang-1.22/test/codegen/slices.go:230)	CALL	runtime.morestack_noctxt(SB)
	0x005a 00090 (/home/xzl/work/golang-1.22/golang-1.22/test/codegen/slices.go:230)	PCDATA	$0, $-1
	0x005a 00090 (/home/xzl/work/golang-1.22/golang-1.22/test/codegen/slices.go:230)	MOVQ	8(SP), AX
	0x005f 00095 (/home/xzl/work/golang-1.22/golang-1.22/test/codegen/slices.go:230)	MOVQ	16(SP), BX
	0x0064 00100 (/home/xzl/work/golang-1.22/golang-1.22/test/codegen/slices.go:230)	MOVQ	24(SP), CX
	0x0069 00105 (/home/xzl/work/golang-1.22/golang-1.22/test/codegen/slices.go:230)	JMP	0
	0x0000 49 3b 66 10 76 40 55 48 89 e5 48 83 ec 48 48 89  I;f.v@UH..H..HH.
	0x0010 44 24 58 44 0f 11 7c 24 28 44 0f 11 7c 24 38 b9  D$XD..|$(D..|$8.
	0x0020 04 00 00 00 48 89 c7 48 89 de 48 8d 05 00 00 00  ....H..H..H.....
	0x0030 00 48 8d 5c 24 28 e8 00 00 00 00 b8 04 00 00 00  .H.\$(..........
	0x0040 48 83 c4 48 5d c3 48 89 44 24 08 48 89 5c 24 10  H..H].H.D$.H.\$.
	0x0050 48 89 4c 24 18 e8 00 00 00 00 48 8b 44 24 08 48  H.L$......H.D$.H
	0x0060 8b 5c 24 10 48 8b 4c 24 18 eb 95                 .\$.H.L$...
	rel 45+4 t=R_PCREL type:*int<0>+0
	rel 55+4 t=R_CALL runtime.typedslicecopy<1>+0
	rel 86+4 t=R_CALL runtime.morestack_noctxt<0>+0
command-line-arguments.SliceMakeCopyNoOptNoCap<1> STEXT size=133 args=0x18 locals=0x38 funcid=0x0 align=0x0
	0x0000 00000 (/home/xzl/work/golang-1.22/golang-1.22/test/codegen/slices.go:239)	TEXT	command-line-arguments.SliceMakeCopyNoOptNoCap(SB), ABIInternal, $56-24
	0x0000 00000 (/home/xzl/work/golang-1.22/golang-1.22/test/codegen/slices.go:239)	CMPQ	SP, 16(R14)
	0x0004 00004 (/home/xzl/work/golang-1.22/golang-1.22/test/codegen/slices.go:239)	PCDATA	$0, $-2
	0x0004 00004 (/home/xzl/work/golang-1.22/golang-1.22/test/codegen/slices.go:239)	JLS	93
	0x0006 00006 (/home/xzl/work/golang-1.22/golang-1.22/test/codegen/slices.go:239)	PCDATA	$0, $-1
	0x0006 00006 (/home/xzl/work/golang-1.22/golang-1.22/test/codegen/slices.go:239)	PUSHQ	BP
	0x0007 00007 (/home/xzl/work/golang-1.22/golang-1.22/test/codegen/slices.go:239)	MOVQ	SP, BP
	0x000a 00010 (/home/xzl/work/golang-1.22/golang-1.22/test/codegen/slices.go:239)	SUBQ	$48, SP
	0x000e 00014 (/home/xzl/work/golang-1.22/golang-1.22/test/codegen/slices.go:239)	FUNCDATA	$0, gclocals·ZzMiPAiVBg7DJ6dh/CjSag==(SB)
	0x000e 00014 (/home/xzl/work/golang-1.22/golang-1.22/test/codegen/slices.go:239)	FUNCDATA	$1, gclocals·VtCL4RdUwCqwXEPeyJllRA==(SB)
	0x000e 00014 (/home/xzl/work/golang-1.22/golang-1.22/test/codegen/slices.go:239)	FUNCDATA	$5, command-line-arguments.SliceMakeCopyNoOptNoCap.arginfo1(SB)
	0x000e 00014 (/home/xzl/work/golang-1.22/golang-1.22/test/codegen/slices.go:239)	FUNCDATA	$6, command-line-arguments.SliceMakeCopyNoOptNoCap.argliveinfo(SB)
	0x000e 00014 (/home/xzl/work/golang-1.22/golang-1.22/test/codegen/slices.go:239)	PCDATA	$3, $1
	0x000e 00014 (/home/xzl/work/golang-1.22/golang-1.22/test/codegen/slices.go:246)	MOVQ	BX, command-line-arguments.s+72(SP)
	0x0013 00019 (/home/xzl/work/golang-1.22/golang-1.22/test/codegen/slices.go:246)	MOVQ	AX, command-line-arguments.s+64(SP)
	0x0018 00024 (/home/xzl/work/golang-1.22/golang-1.22/test/codegen/slices.go:246)	PCDATA	$3, $2
	0x0018 00024 (/home/xzl/work/golang-1.22/golang-1.22/test/codegen/slices.go:242)	MOVL	$4, CX
	0x001d 00029 (/home/xzl/work/golang-1.22/golang-1.22/test/codegen/slices.go:242)	LEAQ	type:*int(SB), AX
	0x0024 00036 (/home/xzl/work/golang-1.22/golang-1.22/test/codegen/slices.go:242)	XORL	BX, BX
	0x0026 00038 (/home/xzl/work/golang-1.22/golang-1.22/test/codegen/slices.go:242)	PCDATA	$1, $0
	0x0026 00038 (/home/xzl/work/golang-1.22/golang-1.22/test/codegen/slices.go:242)	CALL	runtime.makeslice(SB)
	0x002b 00043 (/home/xzl/work/golang-1.22/golang-1.22/test/codegen/slices.go:242)	MOVQ	AX, command-line-arguments..autotmp_6+40(SP)
	0x0030 00048 (/home/xzl/work/golang-1.22/golang-1.22/test/codegen/slices.go:245)	MOVQ	AX, BX
	0x0033 00051 (/home/xzl/work/golang-1.22/golang-1.22/test/codegen/slices.go:245)	XORL	CX, CX
	0x0035 00053 (/home/xzl/work/golang-1.22/golang-1.22/test/codegen/slices.go:245)	MOVQ	command-line-arguments.s+64(SP), DI
	0x003a 00058 (/home/xzl/work/golang-1.22/golang-1.22/test/codegen/slices.go:245)	MOVQ	command-line-arguments.s+72(SP), SI
	0x003f 00063 (/home/xzl/work/golang-1.22/golang-1.22/test/codegen/slices.go:245)	LEAQ	type:*int(SB), AX
	0x0046 00070 (/home/xzl/work/golang-1.22/golang-1.22/test/codegen/slices.go:245)	PCDATA	$1, $1
	0x0046 00070 (/home/xzl/work/golang-1.22/golang-1.22/test/codegen/slices.go:245)	CALL	runtime.typedslicecopy(SB)
	0x004b 00075 (/home/xzl/work/golang-1.22/golang-1.22/test/codegen/slices.go:246)	MOVQ	command-line-arguments..autotmp_6+40(SP), AX
	0x0050 00080 (/home/xzl/work/golang-1.22/golang-1.22/test/codegen/slices.go:246)	XORL	BX, BX
	0x0052 00082 (/home/xzl/work/golang-1.22/golang-1.22/test/codegen/slices.go:246)	MOVL	$4, CX
	0x0057 00087 (/home/xzl/work/golang-1.22/golang-1.22/test/codegen/slices.go:246)	ADDQ	$48, SP
	0x005b 00091 (/home/xzl/work/golang-1.22/golang-1.22/test/codegen/slices.go:246)	POPQ	BP
	0x005c 00092 (/home/xzl/work/golang-1.22/golang-1.22/test/codegen/slices.go:246)	RET
	0x005d 00093 (/home/xzl/work/golang-1.22/golang-1.22/test/codegen/slices.go:246)	NOP
	0x005d 00093 (/home/xzl/work/golang-1.22/golang-1.22/test/codegen/slices.go:239)	PCDATA	$1, $-1
	0x005d 00093 (/home/xzl/work/golang-1.22/golang-1.22/test/codegen/slices.go:239)	PCDATA	$0, $-2
	0x005d 00093 (/home/xzl/work/golang-1.22/golang-1.22/test/codegen/slices.go:239)	MOVQ	AX, 8(SP)
	0x0062 00098 (/home/xzl/work/golang-1.22/golang-1.22/test/codegen/slices.go:239)	MOVQ	BX, 16(SP)
	0x0067 00103 (/home/xzl/work/golang-1.22/golang-1.22/test/codegen/slices.go:239)	MOVQ	CX, 24(SP)
	0x006c 00108 (/home/xzl/work/golang-1.22/golang-1.22/test/codegen/slices.go:239)	CALL	runtime.morestack_noctxt(SB)
	0x0071 00113 (/home/xzl/work/golang-1.22/golang-1.22/test/codegen/slices.go:239)	PCDATA	$0, $-1
	0x0071 00113 (/home/xzl/work/golang-1.22/golang-1.22/test/codegen/slices.go:239)	MOVQ	8(SP), AX
	0x0076 00118 (/home/xzl/work/golang-1.22/golang-1.22/test/codegen/slices.go:239)	MOVQ	16(SP), BX
	0x007b 00123 (/home/xzl/work/golang-1.22/golang-1.22/test/codegen/slices.go:239)	MOVQ	24(SP), CX
	0x0080 00128 (/home/xzl/work/golang-1.22/golang-1.22/test/codegen/slices.go:239)	JMP	0
	0x0000 49 3b 66 10 76 57 55 48 89 e5 48 83 ec 30 48 89  I;f.vWUH..H..0H.
	0x0010 5c 24 48 48 89 44 24 40 b9 04 00 00 00 48 8d 05  \$HH.D$@.....H..
	0x0020 00 00 00 00 31 db e8 00 00 00 00 48 89 44 24 28  ....1......H.D$(
	0x0030 48 89 c3 31 c9 48 8b 7c 24 40 48 8b 74 24 48 48  H..1.H.|$@H.t$HH
	0x0040 8d 05 00 00 00 00 e8 00 00 00 00 48 8b 44 24 28  ...........H.D$(
	0x0050 31 db b9 04 00 00 00 48 83 c4 30 5d c3 48 89 44  1......H..0].H.D
	0x0060 24 08 48 89 5c 24 10 48 89 4c 24 18 e8 00 00 00  $.H.\$.H.L$.....
	0x0070 00 48 8b 44 24 08 48 8b 5c 24 10 48 8b 4c 24 18  .H.D$.H.\$.H.L$.
	0x0080 e9 7b ff ff ff                                   .{...
	rel 32+4 t=R_PCREL type:*int<0>+0
	rel 39+4 t=R_CALL runtime.makeslice<1>+0
	rel 66+4 t=R_PCREL type:*int<0>+0
	rel 71+4 t=R_CALL runtime.typedslicecopy<1>+0
	rel 109+4 t=R_CALL runtime.morestack_noctxt<0>+0
command-line-arguments.SliceMakeCopyNoOptNoCopy<1> STEXT size=58 args=0x18 locals=0x20 funcid=0x0 align=0x0
	0x0000 00000 (/home/xzl/work/golang-1.22/golang-1.22/test/codegen/slices.go:249)	TEXT	command-line-arguments.SliceMakeCopyNoOptNoCopy(SB), ABIInternal, $32-24
	0x0000 00000 (/home/xzl/work/golang-1.22/golang-1.22/test/codegen/slices.go:249)	CMPQ	SP, 16(R14)
	0x0004 00004 (/home/xzl/work/golang-1.22/golang-1.22/test/codegen/slices.go:249)	PCDATA	$0, $-2
	0x0004 00004 (/home/xzl/work/golang-1.22/golang-1.22/test/codegen/slices.go:249)	JLS	51
	0x0006 00006 (/home/xzl/work/golang-1.22/golang-1.22/test/codegen/slices.go:249)	PCDATA	$0, $-1
	0x0006 00006 (/home/xzl/work/golang-1.22/golang-1.22/test/codegen/slices.go:249)	PUSHQ	BP
	0x0007 00007 (/home/xzl/work/golang-1.22/golang-1.22/test/codegen/slices.go:249)	MOVQ	SP, BP
	0x000a 00010 (/home/xzl/work/golang-1.22/golang-1.22/test/codegen/slices.go:249)	SUBQ	$24, SP
	0x000e 00014 (/home/xzl/work/golang-1.22/golang-1.22/test/codegen/slices.go:249)	FUNCDATA	$0, gclocals·Plqv2ff52JtlYaDd2Rwxbg==(SB)
	0x000e 00014 (/home/xzl/work/golang-1.22/golang-1.22/test/codegen/slices.go:249)	FUNCDATA	$1, gclocals·g2BeySu+wFnoycgXfElmcg==(SB)
	0x000e 00014 (/home/xzl/work/golang-1.22/golang-1.22/test/codegen/slices.go:249)	FUNCDATA	$5, command-line-arguments.SliceMakeCopyNoOptNoCopy.arginfo1(SB)
	0x000e 00014 (/home/xzl/work/golang-1.22/golang-1.22/test/codegen/slices.go:249)	FUNCDATA	$6, command-line-arguments.SliceMakeCopyNoOptNoCopy.argliveinfo(SB)
	0x000e 00014 (/home/xzl/work/golang-1.22/golang-1.22/test/codegen/slices.go:249)	PCDATA	$3, $1
	0x000e 00014 (/home/xzl/work/golang-1.22/golang-1.22/test/codegen/slices.go:253)	LEAQ	type:*int(SB), AX
	0x0015 00021 (/home/xzl/work/golang-1.22/golang-1.22/test/codegen/slices.go:253)	MOVL	$4, BX
	0x001a 00026 (/home/xzl/work/golang-1.22/golang-1.22/test/codegen/slices.go:253)	MOVQ	BX, CX
	0x001d 00029 (/home/xzl/work/golang-1.22/golang-1.22/test/codegen/slices.go:253)	PCDATA	$1, $0
	0x001d 00029 (/home/xzl/work/golang-1.22/golang-1.22/test/codegen/slices.go:253)	NOP
	0x0020 00032 (/home/xzl/work/golang-1.22/golang-1.22/test/codegen/slices.go:253)	CALL	runtime.makeslice(SB)
	0x0025 00037 (/home/xzl/work/golang-1.22/golang-1.22/test/codegen/slices.go:256)	MOVL	$4, BX
	0x002a 00042 (/home/xzl/work/golang-1.22/golang-1.22/test/codegen/slices.go:256)	MOVQ	BX, CX
	0x002d 00045 (/home/xzl/work/golang-1.22/golang-1.22/test/codegen/slices.go:256)	ADDQ	$24, SP
	0x0031 00049 (/home/xzl/work/golang-1.22/golang-1.22/test/codegen/slices.go:256)	POPQ	BP
	0x0032 00050 (/home/xzl/work/golang-1.22/golang-1.22/test/codegen/slices.go:256)	RET
	0x0033 00051 (/home/xzl/work/golang-1.22/golang-1.22/test/codegen/slices.go:256)	NOP
	0x0033 00051 (/home/xzl/work/golang-1.22/golang-1.22/test/codegen/slices.go:249)	PCDATA	$1, $-1
	0x0033 00051 (/home/xzl/work/golang-1.22/golang-1.22/test/codegen/slices.go:249)	PCDATA	$0, $-2
	0x0033 00051 (/home/xzl/work/golang-1.22/golang-1.22/test/codegen/slices.go:249)	CALL	runtime.morestack_noctxt(SB)
	0x0038 00056 (/home/xzl/work/golang-1.22/golang-1.22/test/codegen/slices.go:249)	PCDATA	$0, $-1
	0x0038 00056 (/home/xzl/work/golang-1.22/golang-1.22/test/codegen/slices.go:249)	JMP	0
	0x0000 49 3b 66 10 76 2d 55 48 89 e5 48 83 ec 18 48 8d  I;f.v-UH..H...H.
	0x0010 05 00 00 00 00 bb 04 00 00 00 48 89 d9 0f 1f 00  ..........H.....
	0x0020 e8 00 00 00 00 bb 04 00 00 00 48 89 d9 48 83 c4  ..........H..H..
	0x0030 18 5d c3 e8 00 00 00 00 eb c6                    .]........
	rel 17+4 t=R_PCREL type:*int<0>+0
	rel 33+4 t=R_CALL runtime.makeslice<1>+0
	rel 52+4 t=R_CALL runtime.morestack_noctxt<0>+0
command-line-arguments.SliceMakeCopyNoOptWrongOrder<1> STEXT size=138 args=0x18 locals=0x38 funcid=0x0 align=0x0
	0x0000 00000 (/home/xzl/work/golang-1.22/golang-1.22/test/codegen/slices.go:259)	TEXT	command-line-arguments.SliceMakeCopyNoOptWrongOrder(SB), ABIInternal, $56-24
	0x0000 00000 (/home/xzl/work/golang-1.22/golang-1.22/test/codegen/slices.go:259)	CMPQ	SP, 16(R14)
	0x0004 00004 (/home/xzl/work/golang-1.22/golang-1.22/test/codegen/slices.go:259)	PCDATA	$0, $-2
	0x0004 00004 (/home/xzl/work/golang-1.22/golang-1.22/test/codegen/slices.go:259)	JLS	98
	0x0006 00006 (/home/xzl/work/golang-1.22/golang-1.22/test/codegen/slices.go:259)	PCDATA	$0, $-1
	0x0006 00006 (/home/xzl/work/golang-1.22/golang-1.22/test/codegen/slices.go:259)	PUSHQ	BP
	0x0007 00007 (/home/xzl/work/golang-1.22/golang-1.22/test/codegen/slices.go:259)	MOVQ	SP, BP
	0x000a 00010 (/home/xzl/work/golang-1.22/golang-1.22/test/codegen/slices.go:259)	SUBQ	$48, SP
	0x000e 00014 (/home/xzl/work/golang-1.22/golang-1.22/test/codegen/slices.go:259)	FUNCDATA	$0, gclocals·ZzMiPAiVBg7DJ6dh/CjSag==(SB)
	0x000e 00014 (/home/xzl/work/golang-1.22/golang-1.22/test/codegen/slices.go:259)	FUNCDATA	$1, gclocals·VtCL4RdUwCqwXEPeyJllRA==(SB)
	0x000e 00014 (/home/xzl/work/golang-1.22/golang-1.22/test/codegen/slices.go:259)	FUNCDATA	$5, command-line-arguments.SliceMakeCopyNoOptWrongOrder.arginfo1(SB)
	0x000e 00014 (/home/xzl/work/golang-1.22/golang-1.22/test/codegen/slices.go:259)	FUNCDATA	$6, command-line-arguments.SliceMakeCopyNoOptWrongOrder.argliveinfo(SB)
	0x000e 00014 (/home/xzl/work/golang-1.22/golang-1.22/test/codegen/slices.go:259)	PCDATA	$3, $1
	0x000e 00014 (/home/xzl/work/golang-1.22/golang-1.22/test/codegen/slices.go:266)	MOVQ	BX, command-line-arguments.s+72(SP)
	0x0013 00019 (/home/xzl/work/golang-1.22/golang-1.22/test/codegen/slices.go:266)	MOVQ	AX, command-line-arguments.s+64(SP)
	0x0018 00024 (/home/xzl/work/golang-1.22/golang-1.22/test/codegen/slices.go:266)	PCDATA	$3, $2
	0x0018 00024 (/home/xzl/work/golang-1.22/golang-1.22/test/codegen/slices.go:262)	MOVL	$4, CX
	0x001d 00029 (/home/xzl/work/golang-1.22/golang-1.22/test/codegen/slices.go:262)	LEAQ	type:*int(SB), AX
	0x0024 00036 (/home/xzl/work/golang-1.22/golang-1.22/test/codegen/slices.go:262)	MOVQ	CX, BX
	0x0027 00039 (/home/xzl/work/golang-1.22/golang-1.22/test/codegen/slices.go:262)	PCDATA	$1, $0
	0x0027 00039 (/home/xzl/work/golang-1.22/golang-1.22/test/codegen/slices.go:262)	CALL	runtime.makeslice(SB)
	0x002c 00044 (/home/xzl/work/golang-1.22/golang-1.22/test/codegen/slices.go:262)	MOVQ	AX, command-line-arguments..autotmp_6+40(SP)
	0x0031 00049 (/home/xzl/work/golang-1.22/golang-1.22/test/codegen/slices.go:265)	MOVQ	command-line-arguments.s+64(SP), BX
	0x0036 00054 (/home/xzl/work/golang-1.22/golang-1.22/test/codegen/slices.go:265)	MOVQ	command-line-arguments.s+72(SP), CX
	0x003b 00059 (/home/xzl/work/golang-1.22/golang-1.22/test/codegen/slices.go:265)	MOVQ	AX, DI
	0x003e 00062 (/home/xzl/work/golang-1.22/golang-1.22/test/codegen/slices.go:265)	MOVL	$4, SI
	0x0043 00067 (/home/xzl/work/golang-1.22/golang-1.22/test/codegen/slices.go:265)	LEAQ	type:*int(SB), AX
	0x004a 00074 (/home/xzl/work/golang-1.22/golang-1.22/test/codegen/slices.go:265)	PCDATA	$1, $1
	0x004a 00074 (/home/xzl/work/golang-1.22/golang-1.22/test/codegen/slices.go:265)	CALL	runtime.typedslicecopy(SB)
	0x004f 00079 (/home/xzl/work/golang-1.22/golang-1.22/test/codegen/slices.go:266)	MOVQ	command-line-arguments..autotmp_6+40(SP), AX
	0x0054 00084 (/home/xzl/work/golang-1.22/golang-1.22/test/codegen/slices.go:266)	MOVL	$4, BX
	0x0059 00089 (/home/xzl/work/golang-1.22/golang-1.22/test/codegen/slices.go:266)	MOVQ	BX, CX
	0x005c 00092 (/home/xzl/work/golang-1.22/golang-1.22/test/codegen/slices.go:266)	ADDQ	$48, SP
	0x0060 00096 (/home/xzl/work/golang-1.22/golang-1.22/test/codegen/slices.go:266)	POPQ	BP
	0x0061 00097 (/home/xzl/work/golang-1.22/golang-1.22/test/codegen/slices.go:266)	RET
	0x0062 00098 (/home/xzl/work/golang-1.22/golang-1.22/test/codegen/slices.go:266)	NOP
	0x0062 00098 (/home/xzl/work/golang-1.22/golang-1.22/test/codegen/slices.go:259)	PCDATA	$1, $-1
	0x0062 00098 (/home/xzl/work/golang-1.22/golang-1.22/test/codegen/slices.go:259)	PCDATA	$0, $-2
	0x0062 00098 (/home/xzl/work/golang-1.22/golang-1.22/test/codegen/slices.go:259)	MOVQ	AX, 8(SP)
	0x0067 00103 (/home/xzl/work/golang-1.22/golang-1.22/test/codegen/slices.go:259)	MOVQ	BX, 16(SP)
	0x006c 00108 (/home/xzl/work/golang-1.22/golang-1.22/test/codegen/slices.go:259)	MOVQ	CX, 24(SP)
	0x0071 00113 (/home/xzl/work/golang-1.22/golang-1.22/test/codegen/slices.go:259)	CALL	runtime.morestack_noctxt(SB)
	0x0076 00118 (/home/xzl/work/golang-1.22/golang-1.22/test/codegen/slices.go:259)	PCDATA	$0, $-1
	0x0076 00118 (/home/xzl/work/golang-1.22/golang-1.22/test/codegen/slices.go:259)	MOVQ	8(SP), AX
	0x007b 00123 (/home/xzl/work/golang-1.22/golang-1.22/test/codegen/slices.go:259)	MOVQ	16(SP), BX
	0x0080 00128 (/home/xzl/work/golang-1.22/golang-1.22/test/codegen/slices.go:259)	MOVQ	24(SP), CX
	0x0085 00133 (/home/xzl/work/golang-1.22/golang-1.22/test/codegen/slices.go:259)	JMP	0
	0x0000 49 3b 66 10 76 5c 55 48 89 e5 48 83 ec 30 48 89  I;f.v\UH..H..0H.
	0x0010 5c 24 48 48 89 44 24 40 b9 04 00 00 00 48 8d 05  \$HH.D$@.....H..
	0x0020 00 00 00 00 48 89 cb e8 00 00 00 00 48 89 44 24  ....H.......H.D$
	0x0030 28 48 8b 5c 24 40 48 8b 4c 24 48 48 89 c7 be 04  (H.\$@H.L$HH....
	0x0040 00 00 00 48 8d 05 00 00 00 00 e8 00 00 00 00 48  ...H...........H
	0x0050 8b 44 24 28 bb 04 00 00 00 48 89 d9 48 83 c4 30  .D$(.....H..H..0
	0x0060 5d c3 48 89 44 24 08 48 89 5c 24 10 48 89 4c 24  ].H.D$.H.\$.H.L$
	0x0070 18 e8 00 00 00 00 48 8b 44 24 08 48 8b 5c 24 10  ......H.D$.H.\$.
	0x0080 48 8b 4c 24 18 e9 76 ff ff ff                    H.L$..v...
	rel 32+4 t=R_PCREL type:*int<0>+0
	rel 40+4 t=R_CALL runtime.makeslice<1>+0
	rel 70+4 t=R_PCREL type:*int<0>+0
	rel 75+4 t=R_CALL runtime.typedslicecopy<1>+0
	rel 114+4 t=R_CALL runtime.morestack_noctxt<0>+0
command-line-arguments.SliceMakeCopyNoOptWrongAssign<1> STEXT size=95 args=0x18 locals=0x38 funcid=0x0 align=0x0
	0x0000 00000 (/home/xzl/work/golang-1.22/golang-1.22/test/codegen/slices.go:269)	TEXT	command-line-arguments.SliceMakeCopyNoOptWrongAssign(SB), ABIInternal, $56-24
	0x0000 00000 (/home/xzl/work/golang-1.22/golang-1.22/test/codegen/slices.go:269)	CMPQ	SP, 16(R14)
	0x0004 00004 (/home/xzl/work/golang-1.22/golang-1.22/test/codegen/slices.go:269)	PCDATA	$0, $-2
	0x0004 00004 (/home/xzl/work/golang-1.22/golang-1.22/test/codegen/slices.go:269)	JLS	88
	0x0006 00006 (/home/xzl/work/golang-1.22/golang-1.22/test/codegen/slices.go:269)	PCDATA	$0, $-1
	0x0006 00006 (/home/xzl/work/golang-1.22/golang-1.22/test/codegen/slices.go:269)	PUSHQ	BP
	0x0007 00007 (/home/xzl/work/golang-1.22/golang-1.22/test/codegen/slices.go:269)	MOVQ	SP, BP
	0x000a 00010 (/home/xzl/work/golang-1.22/golang-1.22/test/codegen/slices.go:269)	SUBQ	$48, SP
	0x000e 00014 (/home/xzl/work/golang-1.22/golang-1.22/test/codegen/slices.go:269)	FUNCDATA	$0, gclocals·wBS4fiKwwXBG0Q3AcyXF/Q==(SB)
	0x000e 00014 (/home/xzl/work/golang-1.22/golang-1.22/test/codegen/slices.go:269)	FUNCDATA	$1, gclocals·CnDyI2HjYXFz19SsOj98tw==(SB)
	0x000e 00014 (/home/xzl/work/golang-1.22/golang-1.22/test/codegen/slices.go:269)	FUNCDATA	$5, command-line-arguments.SliceMakeCopyNoOptWrongAssign.arginfo1(SB)
	0x000e 00014 (/home/xzl/work/golang-1.22/golang-1.22/test/codegen/slices.go:269)	FUNCDATA	$6, command-line-arguments.SliceMakeCopyNoOptWrongAssign.argliveinfo(SB)
	0x000e 00014 (/home/xzl/work/golang-1.22/golang-1.22/test/codegen/slices.go:269)	PCDATA	$3, $1
	0x000e 00014 (/home/xzl/work/golang-1.22/golang-1.22/test/codegen/slices.go:273)	LEAQ	type:*int(SB), AX
	0x0015 00021 (/home/xzl/work/golang-1.22/golang-1.22/test/codegen/slices.go:273)	MOVL	$4, BX
	0x001a 00026 (/home/xzl/work/golang-1.22/golang-1.22/test/codegen/slices.go:273)	MOVQ	BX, CX
	0x001d 00029 (/home/xzl/work/golang-1.22/golang-1.22/test/codegen/slices.go:273)	PCDATA	$1, $0
	0x001d 00029 (/home/xzl/work/golang-1.22/golang-1.22/test/codegen/slices.go:273)	NOP
	0x0020 00032 (/home/xzl/work/golang-1.22/golang-1.22/test/codegen/slices.go:273)	CALL	runtime.makeslice(SB)
	0x0025 00037 (/home/xzl/work/golang-1.22/golang-1.22/test/codegen/slices.go:273)	MOVQ	AX, command-line-arguments..autotmp_6+40(SP)
	0x002a 00042 (/home/xzl/work/golang-1.22/golang-1.22/test/codegen/slices.go:276)	XORL	BX, BX
	0x002c 00044 (/home/xzl/work/golang-1.22/golang-1.22/test/codegen/slices.go:276)	XORL	CX, CX
	0x002e 00046 (/home/xzl/work/golang-1.22/golang-1.22/test/codegen/slices.go:276)	MOVQ	AX, DI
	0x0031 00049 (/home/xzl/work/golang-1.22/golang-1.22/test/codegen/slices.go:276)	MOVL	$4, SI
	0x0036 00054 (/home/xzl/work/golang-1.22/golang-1.22/test/codegen/slices.go:276)	LEAQ	type:*int(SB), AX
	0x003d 00061 (/home/xzl/work/golang-1.22/golang-1.22/test/codegen/slices.go:276)	PCDATA	$1, $1
	0x003d 00061 (/home/xzl/work/golang-1.22/golang-1.22/test/codegen/slices.go:276)	NOP
	0x0040 00064 (/home/xzl/work/golang-1.22/golang-1.22/test/codegen/slices.go:276)	CALL	runtime.typedslicecopy(SB)
	0x0045 00069 (/home/xzl/work/golang-1.22/golang-1.22/test/codegen/slices.go:277)	MOVQ	command-line-arguments..autotmp_6+40(SP), AX
	0x004a 00074 (/home/xzl/work/golang-1.22/golang-1.22/test/codegen/slices.go:277)	MOVL	$4, BX
	0x004f 00079 (/home/xzl/work/golang-1.22/golang-1.22/test/codegen/slices.go:277)	MOVQ	BX, CX
	0x0052 00082 (/home/xzl/work/golang-1.22/golang-1.22/test/codegen/slices.go:277)	ADDQ	$48, SP
	0x0056 00086 (/home/xzl/work/golang-1.22/golang-1.22/test/codegen/slices.go:277)	POPQ	BP
	0x0057 00087 (/home/xzl/work/golang-1.22/golang-1.22/test/codegen/slices.go:277)	RET
	0x0058 00088 (/home/xzl/work/golang-1.22/golang-1.22/test/codegen/slices.go:277)	NOP
	0x0058 00088 (/home/xzl/work/golang-1.22/golang-1.22/test/codegen/slices.go:269)	PCDATA	$1, $-1
	0x0058 00088 (/home/xzl/work/golang-1.22/golang-1.22/test/codegen/slices.go:269)	PCDATA	$0, $-2
	0x0058 00088 (/home/xzl/work/golang-1.22/golang-1.22/test/codegen/slices.go:269)	CALL	runtime.morestack_noctxt(SB)
	0x005d 00093 (/home/xzl/work/golang-1.22/golang-1.22/test/codegen/slices.go:269)	PCDATA	$0, $-1
	0x005d 00093 (/home/xzl/work/golang-1.22/golang-1.22/test/codegen/slices.go:269)	JMP	0
	0x0000 49 3b 66 10 76 52 55 48 89 e5 48 83 ec 30 48 8d  I;f.vRUH..H..0H.
	0x0010 05 00 00 00 00 bb 04 00 00 00 48 89 d9 0f 1f 00  ..........H.....
	0x0020 e8 00 00 00 00 48 89 44 24 28 31 db 31 c9 48 89  .....H.D$(1.1.H.
	0x0030 c7 be 04 00 00 00 48 8d 05 00 00 00 00 0f 1f 00  ......H.........
	0x0040 e8 00 00 00 00 48 8b 44 24 28 bb 04 00 00 00 48  .....H.D$(.....H
	0x0050 89 d9 48 83 c4 30 5d c3 e8 00 00 00 00 eb a1     ..H..0]........
	rel 17+4 t=R_PCREL type:*int<0>+0
	rel 33+4 t=R_CALL runtime.makeslice<1>+0
	rel 57+4 t=R_PCREL type:*int<0>+0
	rel 65+4 t=R_CALL runtime.typedslicecopy<1>+0
	rel 89+4 t=R_CALL runtime.morestack_noctxt<0>+0
command-line-arguments.SliceMakeCopyNoOptCopyLength<1> STEXT size=138 args=0x18 locals=0x38 funcid=0x0 align=0x0
	0x0000 00000 (/home/xzl/work/golang-1.22/golang-1.22/test/codegen/slices.go:280)	TEXT	command-line-arguments.SliceMakeCopyNoOptCopyLength(SB), ABIInternal, $56-24
	0x0000 00000 (/home/xzl/work/golang-1.22/golang-1.22/test/codegen/slices.go:280)	CMPQ	SP, 16(R14)
	0x0004 00004 (/home/xzl/work/golang-1.22/golang-1.22/test/codegen/slices.go:280)	PCDATA	$0, $-2
	0x0004 00004 (/home/xzl/work/golang-1.22/golang-1.22/test/codegen/slices.go:280)	JLS	98
	0x0006 00006 (/home/xzl/work/golang-1.22/golang-1.22/test/codegen/slices.go:280)	PCDATA	$0, $-1
	0x0006 00006 (/home/xzl/work/golang-1.22/golang-1.22/test/codegen/slices.go:280)	PUSHQ	BP
	0x0007 00007 (/home/xzl/work/golang-1.22/golang-1.22/test/codegen/slices.go:280)	MOVQ	SP, BP
	0x000a 00010 (/home/xzl/work/golang-1.22/golang-1.22/test/codegen/slices.go:280)	SUBQ	$48, SP
	0x000e 00014 (/home/xzl/work/golang-1.22/golang-1.22/test/codegen/slices.go:280)	FUNCDATA	$0, gclocals·ZzMiPAiVBg7DJ6dh/CjSag==(SB)
	0x000e 00014 (/home/xzl/work/golang-1.22/golang-1.22/test/codegen/slices.go:280)	FUNCDATA	$1, gclocals·VtCL4RdUwCqwXEPeyJllRA==(SB)
	0x000e 00014 (/home/xzl/work/golang-1.22/golang-1.22/test/codegen/slices.go:280)	FUNCDATA	$5, command-line-arguments.SliceMakeCopyNoOptCopyLength.arginfo1(SB)
	0x000e 00014 (/home/xzl/work/golang-1.22/golang-1.22/test/codegen/slices.go:280)	FUNCDATA	$6, command-line-arguments.SliceMakeCopyNoOptCopyLength.argliveinfo(SB)
	0x000e 00014 (/home/xzl/work/golang-1.22/golang-1.22/test/codegen/slices.go:280)	PCDATA	$3, $1
	0x000e 00014 (/home/xzl/work/golang-1.22/golang-1.22/test/codegen/slices.go:287)	MOVQ	BX, command-line-arguments.s+72(SP)
	0x0013 00019 (/home/xzl/work/golang-1.22/golang-1.22/test/codegen/slices.go:287)	MOVQ	AX, command-line-arguments.s+64(SP)
	0x0018 00024 (/home/xzl/work/golang-1.22/golang-1.22/test/codegen/slices.go:287)	PCDATA	$3, $2
	0x0018 00024 (/home/xzl/work/golang-1.22/golang-1.22/test/codegen/slices.go:283)	MOVL	$4, CX
	0x001d 00029 (/home/xzl/work/golang-1.22/golang-1.22/test/codegen/slices.go:283)	LEAQ	type:*int(SB), AX
	0x0024 00036 (/home/xzl/work/golang-1.22/golang-1.22/test/codegen/slices.go:283)	MOVQ	CX, BX
	0x0027 00039 (/home/xzl/work/golang-1.22/golang-1.22/test/codegen/slices.go:283)	PCDATA	$1, $0
	0x0027 00039 (/home/xzl/work/golang-1.22/golang-1.22/test/codegen/slices.go:283)	CALL	runtime.makeslice(SB)
	0x002c 00044 (/home/xzl/work/golang-1.22/golang-1.22/test/codegen/slices.go:283)	MOVQ	AX, command-line-arguments..autotmp_8+40(SP)
	0x0031 00049 (/home/xzl/work/golang-1.22/golang-1.22/test/codegen/slices.go:286)	MOVQ	AX, BX
	0x0034 00052 (/home/xzl/work/golang-1.22/golang-1.22/test/codegen/slices.go:286)	MOVL	$4, CX
	0x0039 00057 (/home/xzl/work/golang-1.22/golang-1.22/test/codegen/slices.go:286)	MOVQ	command-line-arguments.s+64(SP), DI
	0x003e 00062 (/home/xzl/work/golang-1.22/golang-1.22/test/codegen/slices.go:286)	MOVQ	command-line-arguments.s+72(SP), SI
	0x0043 00067 (/home/xzl/work/golang-1.22/golang-1.22/test/codegen/slices.go:286)	LEAQ	type:*int(SB), AX
	0x004a 00074 (/home/xzl/work/golang-1.22/golang-1.22/test/codegen/slices.go:286)	PCDATA	$1, $1
	0x004a 00074 (/home/xzl/work/golang-1.22/golang-1.22/test/codegen/slices.go:286)	CALL	runtime.typedslicecopy(SB)
	0x004f 00079 (/home/xzl/work/golang-1.22/golang-1.22/test/codegen/slices.go:287)	MOVQ	command-line-arguments..autotmp_8+40(SP), BX
	0x0054 00084 (/home/xzl/work/golang-1.22/golang-1.22/test/codegen/slices.go:287)	MOVL	$4, CX
	0x0059 00089 (/home/xzl/work/golang-1.22/golang-1.22/test/codegen/slices.go:287)	MOVQ	CX, DI
	0x005c 00092 (/home/xzl/work/golang-1.22/golang-1.22/test/codegen/slices.go:287)	ADDQ	$48, SP
	0x0060 00096 (/home/xzl/work/golang-1.22/golang-1.22/test/codegen/slices.go:287)	POPQ	BP
	0x0061 00097 (/home/xzl/work/golang-1.22/golang-1.22/test/codegen/slices.go:287)	RET
	0x0062 00098 (/home/xzl/work/golang-1.22/golang-1.22/test/codegen/slices.go:287)	NOP
	0x0062 00098 (/home/xzl/work/golang-1.22/golang-1.22/test/codegen/slices.go:280)	PCDATA	$1, $-1
	0x0062 00098 (/home/xzl/work/golang-1.22/golang-1.22/test/codegen/slices.go:280)	PCDATA	$0, $-2
	0x0062 00098 (/home/xzl/work/golang-1.22/golang-1.22/test/codegen/slices.go:280)	MOVQ	AX, 8(SP)
	0x0067 00103 (/home/xzl/work/golang-1.22/golang-1.22/test/codegen/slices.go:280)	MOVQ	BX, 16(SP)
	0x006c 00108 (/home/xzl/work/golang-1.22/golang-1.22/test/codegen/slices.go:280)	MOVQ	CX, 24(SP)
	0x0071 00113 (/home/xzl/work/golang-1.22/golang-1.22/test/codegen/slices.go:280)	CALL	runtime.morestack_noctxt(SB)
	0x0076 00118 (/home/xzl/work/golang-1.22/golang-1.22/test/codegen/slices.go:280)	PCDATA	$0, $-1
	0x0076 00118 (/home/xzl/work/golang-1.22/golang-1.22/test/codegen/slices.go:280)	MOVQ	8(SP), AX
	0x007b 00123 (/home/xzl/work/golang-1.22/golang-1.22/test/codegen/slices.go:280)	MOVQ	16(SP), BX
	0x0080 00128 (/home/xzl/work/golang-1.22/golang-1.22/test/codegen/slices.go:280)	MOVQ	24(SP), CX
	0x0085 00133 (/home/xzl/work/golang-1.22/golang-1.22/test/codegen/slices.go:280)	JMP	0
	0x0000 49 3b 66 10 76 5c 55 48 89 e5 48 83 ec 30 48 89  I;f.v\UH..H..0H.
	0x0010 5c 24 48 48 89 44 24 40 b9 04 00 00 00 48 8d 05  \$HH.D$@.....H..
	0x0020 00 00 00 00 48 89 cb e8 00 00 00 00 48 89 44 24  ....H.......H.D$
	0x0030 28 48 89 c3 b9 04 00 00 00 48 8b 7c 24 40 48 8b  (H.......H.|$@H.
	0x0040 74 24 48 48 8d 05 00 00 00 00 e8 00 00 00 00 48  t$HH...........H
	0x0050 8b 5c 24 28 b9 04 00 00 00 48 89 cf 48 83 c4 30  .\$(.....H..H..0
	0x0060 5d c3 48 89 44 24 08 48 89 5c 24 10 48 89 4c 24  ].H.D$.H.\$.H.L$
	0x0070 18 e8 00 00 00 00 48 8b 44 24 08 48 8b 5c 24 10  ......H.D$.H.\$.
	0x0080 48 8b 4c 24 18 e9 76 ff ff ff                    H.L$..v...
	rel 32+4 t=R_PCREL type:*int<0>+0
	rel 40+4 t=R_CALL runtime.makeslice<1>+0
	rel 70+4 t=R_PCREL type:*int<0>+0
	rel 75+4 t=R_CALL runtime.typedslicecopy<1>+0
	rel 114+4 t=R_CALL runtime.morestack_noctxt<0>+0
command-line-arguments.SliceMakeCopyNoOptSelfCopy<1> STEXT size=95 args=0x18 locals=0x38 funcid=0x0 align=0x0
	0x0000 00000 (/home/xzl/work/golang-1.22/golang-1.22/test/codegen/slices.go:290)	TEXT	command-line-arguments.SliceMakeCopyNoOptSelfCopy(SB), ABIInternal, $56-24
	0x0000 00000 (/home/xzl/work/golang-1.22/golang-1.22/test/codegen/slices.go:290)	CMPQ	SP, 16(R14)
	0x0004 00004 (/home/xzl/work/golang-1.22/golang-1.22/test/codegen/slices.go:290)	PCDATA	$0, $-2
	0x0004 00004 (/home/xzl/work/golang-1.22/golang-1.22/test/codegen/slices.go:290)	JLS	88
	0x0006 00006 (/home/xzl/work/golang-1.22/golang-1.22/test/codegen/slices.go:290)	PCDATA	$0, $-1
	0x0006 00006 (/home/xzl/work/golang-1.22/golang-1.22/test/codegen/slices.go:290)	PUSHQ	BP
	0x0007 00007 (/home/xzl/work/golang-1.22/golang-1.22/test/codegen/slices.go:290)	MOVQ	SP, BP
	0x000a 00010 (/home/xzl/work/golang-1.22/golang-1.22/test/codegen/slices.go:290)	SUBQ	$48, SP
	0x000e 00014 (/home/xzl/work/golang-1.22/golang-1.22/test/codegen/slices.go:290)	FUNCDATA	$0, gclocals·wBS4fiKwwXBG0Q3AcyXF/Q==(SB)
	0x000e 00014 (/home/xzl/work/golang-1.22/golang-1.22/test/codegen/slices.go:290)	FUNCDATA	$1, gclocals·CnDyI2HjYXFz19SsOj98tw==(SB)
	0x000e 00014 (/home/xzl/work/golang-1.22/golang-1.22/test/codegen/slices.go:290)	FUNCDATA	$5, command-line-arguments.SliceMakeCopyNoOptSelfCopy.arginfo1(SB)
	0x000e 00014 (/home/xzl/work/golang-1.22/golang-1.22/test/codegen/slices.go:290)	FUNCDATA	$6, command-line-arguments.SliceMakeCopyNoOptSelfCopy.argliveinfo(SB)
	0x000e 00014 (/home/xzl/work/golang-1.22/golang-1.22/test/codegen/slices.go:290)	PCDATA	$3, $1
	0x000e 00014 (/home/xzl/work/golang-1.22/golang-1.22/test/codegen/slices.go:293)	LEAQ	type:*int(SB), AX
	0x0015 00021 (/home/xzl/work/golang-1.22/golang-1.22/test/codegen/slices.go:293)	MOVL	$4, BX
	0x001a 00026 (/home/xzl/work/golang-1.22/golang-1.22/test/codegen/slices.go:293)	MOVQ	BX, CX
	0x001d 00029 (/home/xzl/work/golang-1.22/golang-1.22/test/codegen/slices.go:293)	PCDATA	$1, $0
	0x001d 00029 (/home/xzl/work/golang-1.22/golang-1.22/test/codegen/slices.go:293)	NOP
	0x0020 00032 (/home/xzl/work/golang-1.22/golang-1.22/test/codegen/slices.go:293)	CALL	runtime.makeslice(SB)
	0x0025 00037 (/home/xzl/work/golang-1.22/golang-1.22/test/codegen/slices.go:293)	MOVQ	AX, command-line-arguments..autotmp_6+40(SP)
	0x002a 00042 (/home/xzl/work/golang-1.22/golang-1.22/test/codegen/slices.go:296)	MOVQ	AX, BX
	0x002d 00045 (/home/xzl/work/golang-1.22/golang-1.22/test/codegen/slices.go:296)	MOVL	$4, CX
	0x0032 00050 (/home/xzl/work/golang-1.22/golang-1.22/test/codegen/slices.go:296)	MOVQ	BX, DI
	0x0035 00053 (/home/xzl/work/golang-1.22/golang-1.22/test/codegen/slices.go:296)	MOVQ	CX, SI
	0x0038 00056 (/home/xzl/work/golang-1.22/golang-1.22/test/codegen/slices.go:296)	LEAQ	type:*int(SB), AX
	0x003f 00063 (/home/xzl/work/golang-1.22/golang-1.22/test/codegen/slices.go:296)	PCDATA	$1, $1
	0x003f 00063 (/home/xzl/work/golang-1.22/golang-1.22/test/codegen/slices.go:296)	NOP
	0x0040 00064 (/home/xzl/work/golang-1.22/golang-1.22/test/codegen/slices.go:296)	CALL	runtime.typedslicecopy(SB)
	0x0045 00069 (/home/xzl/work/golang-1.22/golang-1.22/test/codegen/slices.go:297)	MOVQ	command-line-arguments..autotmp_6+40(SP), AX
	0x004a 00074 (/home/xzl/work/golang-1.22/golang-1.22/test/codegen/slices.go:297)	MOVL	$4, BX
	0x004f 00079 (/home/xzl/work/golang-1.22/golang-1.22/test/codegen/slices.go:297)	MOVQ	BX, CX
	0x0052 00082 (/home/xzl/work/golang-1.22/golang-1.22/test/codegen/slices.go:297)	ADDQ	$48, SP
	0x0056 00086 (/home/xzl/work/golang-1.22/golang-1.22/test/codegen/slices.go:297)	POPQ	BP
	0x0057 00087 (/home/xzl/work/golang-1.22/golang-1.22/test/codegen/slices.go:297)	RET
	0x0058 00088 (/home/xzl/work/golang-1.22/golang-1.22/test/codegen/slices.go:297)	NOP
	0x0058 00088 (/home/xzl/work/golang-1.22/golang-1.22/test/codegen/slices.go:290)	PCDATA	$1, $-1
	0x0058 00088 (/home/xzl/work/golang-1.22/golang-1.22/test/codegen/slices.go:290)	PCDATA	$0, $-2
	0x0058 00088 (/home/xzl/work/golang-1.22/golang-1.22/test/codegen/slices.go:290)	CALL	runtime.morestack_noctxt(SB)
	0x005d 00093 (/home/xzl/work/golang-1.22/golang-1.22/test/codegen/slices.go:290)	PCDATA	$0, $-1
	0x005d 00093 (/home/xzl/work/golang-1.22/golang-1.22/test/codegen/slices.go:290)	JMP	0
	0x0000 49 3b 66 10 76 52 55 48 89 e5 48 83 ec 30 48 8d  I;f.vRUH..H..0H.
	0x0010 05 00 00 00 00 bb 04 00 00 00 48 89 d9 0f 1f 00  ..........H.....
	0x0020 e8 00 00 00 00 48 89 44 24 28 48 89 c3 b9 04 00  .....H.D$(H.....
	0x0030 00 00 48 89 df 48 89 ce 48 8d 05 00 00 00 00 90  ..H..H..H.......
	0x0040 e8 00 00 00 00 48 8b 44 24 28 bb 04 00 00 00 48  .....H.D$(.....H
	0x0050 89 d9 48 83 c4 30 5d c3 e8 00 00 00 00 eb a1     ..H..0]........
	rel 17+4 t=R_PCREL type:*int<0>+0
	rel 33+4 t=R_CALL runtime.makeslice<1>+0
	rel 59+4 t=R_PCREL type:*int<0>+0
	rel 65+4 t=R_CALL runtime.typedslicecopy<1>+0
	rel 89+4 t=R_CALL runtime.morestack_noctxt<0>+0
command-line-arguments.SliceMakeCopyNoOptTargetReference<1> STEXT size=158 args=0x18 locals=0x38 funcid=0x0 align=0x0
	0x0000 00000 (/home/xzl/work/golang-1.22/golang-1.22/test/codegen/slices.go:300)	TEXT	command-line-arguments.SliceMakeCopyNoOptTargetReference(SB), ABIInternal, $56-24
	0x0000 00000 (/home/xzl/work/golang-1.22/golang-1.22/test/codegen/slices.go:300)	CMPQ	SP, 16(R14)
	0x0004 00004 (/home/xzl/work/golang-1.22/golang-1.22/test/codegen/slices.go:300)	PCDATA	$0, $-2
	0x0004 00004 (/home/xzl/work/golang-1.22/golang-1.22/test/codegen/slices.go:300)	JLS	118
	0x0006 00006 (/home/xzl/work/golang-1.22/golang-1.22/test/codegen/slices.go:300)	PCDATA	$0, $-1
	0x0006 00006 (/home/xzl/work/golang-1.22/golang-1.22/test/codegen/slices.go:300)	PUSHQ	BP
	0x0007 00007 (/home/xzl/work/golang-1.22/golang-1.22/test/codegen/slices.go:300)	MOVQ	SP, BP
	0x000a 00010 (/home/xzl/work/golang-1.22/golang-1.22/test/codegen/slices.go:300)	SUBQ	$48, SP
	0x000e 00014 (/home/xzl/work/golang-1.22/golang-1.22/test/codegen/slices.go:300)	FUNCDATA	$0, gclocals·ZzMiPAiVBg7DJ6dh/CjSag==(SB)
	0x000e 00014 (/home/xzl/work/golang-1.22/golang-1.22/test/codegen/slices.go:300)	FUNCDATA	$1, gclocals·VtCL4RdUwCqwXEPeyJllRA==(SB)
	0x000e 00014 (/home/xzl/work/golang-1.22/golang-1.22/test/codegen/slices.go:300)	FUNCDATA	$5, command-line-arguments.SliceMakeCopyNoOptTargetReference.arginfo1(SB)
	0x000e 00014 (/home/xzl/work/golang-1.22/golang-1.22/test/codegen/slices.go:300)	FUNCDATA	$6, command-line-arguments.SliceMakeCopyNoOptTargetReference.argliveinfo(SB)
	0x000e 00014 (/home/xzl/work/golang-1.22/golang-1.22/test/codegen/slices.go:300)	PCDATA	$3, $1
	0x000e 00014 (/home/xzl/work/golang-1.22/golang-1.22/test/codegen/slices.go:306)	MOVQ	CX, command-line-arguments.s+80(SP)
	0x0013 00019 (/home/xzl/work/golang-1.22/golang-1.22/test/codegen/slices.go:306)	MOVQ	AX, command-line-arguments.s+64(SP)
	0x0018 00024 (/home/xzl/work/golang-1.22/golang-1.22/test/codegen/slices.go:306)	PCDATA	$3, $2
	0x0018 00024 (/home/xzl/work/golang-1.22/golang-1.22/test/codegen/slices.go:303)	MOVL	$4, BX
	0x001d 00029 (/home/xzl/work/golang-1.22/golang-1.22/test/codegen/slices.go:303)	LEAQ	type:*int(SB), AX
	0x0024 00036 (/home/xzl/work/golang-1.22/golang-1.22/test/codegen/slices.go:303)	MOVQ	BX, CX
	0x0027 00039 (/home/xzl/work/golang-1.22/golang-1.22/test/codegen/slices.go:303)	PCDATA	$1, $0
	0x0027 00039 (/home/xzl/work/golang-1.22/golang-1.22/test/codegen/slices.go:303)	CALL	runtime.makeslice(SB)
	0x002c 00044 (/home/xzl/work/golang-1.22/golang-1.22/test/codegen/slices.go:306)	MOVQ	command-line-arguments.s+80(SP), DX
	0x0031 00049 (/home/xzl/work/golang-1.22/golang-1.22/test/codegen/slices.go:306)	CMPQ	DX, $4
	0x0035 00053 (/home/xzl/work/golang-1.22/golang-1.22/test/codegen/slices.go:306)	JCS	107
	0x0037 00055 (/home/xzl/work/golang-1.22/golang-1.22/test/codegen/slices.go:303)	MOVQ	AX, command-line-arguments..autotmp_8+40(SP)
	0x003c 00060 (/home/xzl/work/golang-1.22/golang-1.22/test/codegen/slices.go:306)	MOVQ	AX, BX
	0x003f 00063 (/home/xzl/work/golang-1.22/golang-1.22/test/codegen/slices.go:306)	MOVL	$4, CX
	0x0044 00068 (/home/xzl/work/golang-1.22/golang-1.22/test/codegen/slices.go:306)	MOVQ	command-line-arguments.s+64(SP), DI
	0x0049 00073 (/home/xzl/work/golang-1.22/golang-1.22/test/codegen/slices.go:306)	MOVQ	CX, SI
	0x004c 00076 (/home/xzl/work/golang-1.22/golang-1.22/test/codegen/slices.go:306)	LEAQ	type:*int(SB), AX
	0x0053 00083 (/home/xzl/work/golang-1.22/golang-1.22/test/codegen/slices.go:306)	PCDATA	$1, $1
	0x0053 00083 (/home/xzl/work/golang-1.22/golang-1.22/test/codegen/slices.go:306)	CALL	runtime.typedslicecopy(SB)
	0x0058 00088 (/home/xzl/work/golang-1.22/golang-1.22/test/codegen/slices.go:307)	MOVQ	command-line-arguments..autotmp_8+40(SP), AX
	0x005d 00093 (/home/xzl/work/golang-1.22/golang-1.22/test/codegen/slices.go:307)	MOVL	$4, BX
	0x0062 00098 (/home/xzl/work/golang-1.22/golang-1.22/test/codegen/slices.go:307)	MOVQ	BX, CX
	0x0065 00101 (/home/xzl/work/golang-1.22/golang-1.22/test/codegen/slices.go:307)	ADDQ	$48, SP
	0x0069 00105 (/home/xzl/work/golang-1.22/golang-1.22/test/codegen/slices.go:307)	POPQ	BP
	0x006a 00106 (/home/xzl/work/golang-1.22/golang-1.22/test/codegen/slices.go:307)	RET
	0x006b 00107 (/home/xzl/work/golang-1.22/golang-1.22/test/codegen/slices.go:306)	MOVL	$4, CX
	0x0070 00112 (/home/xzl/work/golang-1.22/golang-1.22/test/codegen/slices.go:306)	PCDATA	$1, $2
	0x0070 00112 (/home/xzl/work/golang-1.22/golang-1.22/test/codegen/slices.go:306)	CALL	runtime.panicSliceAcap(SB)
	0x0075 00117 (/home/xzl/work/golang-1.22/golang-1.22/test/codegen/slices.go:306)	XCHGL	AX, AX
	0x0076 00118 (/home/xzl/work/golang-1.22/golang-1.22/test/codegen/slices.go:306)	NOP
	0x0076 00118 (/home/xzl/work/golang-1.22/golang-1.22/test/codegen/slices.go:300)	PCDATA	$1, $-1
	0x0076 00118 (/home/xzl/work/golang-1.22/golang-1.22/test/codegen/slices.go:300)	PCDATA	$0, $-2
	0x0076 00118 (/home/xzl/work/golang-1.22/golang-1.22/test/codegen/slices.go:300)	MOVQ	AX, 8(SP)
	0x007b 00123 (/home/xzl/work/golang-1.22/golang-1.22/test/codegen/slices.go:300)	MOVQ	BX, 16(SP)
	0x0080 00128 (/home/xzl/work/golang-1.22/golang-1.22/test/codegen/slices.go:300)	MOVQ	CX, 24(SP)
	0x0085 00133 (/home/xzl/work/golang-1.22/golang-1.22/test/codegen/slices.go:300)	CALL	runtime.morestack_noctxt(SB)
	0x008a 00138 (/home/xzl/work/golang-1.22/golang-1.22/test/codegen/slices.go:300)	PCDATA	$0, $-1
	0x008a 00138 (/home/xzl/work/golang-1.22/golang-1.22/test/codegen/slices.go:300)	MOVQ	8(SP), AX
	0x008f 00143 (/home/xzl/work/golang-1.22/golang-1.22/test/codegen/slices.go:300)	MOVQ	16(SP), BX
	0x0094 00148 (/home/xzl/work/golang-1.22/golang-1.22/test/codegen/slices.go:300)	MOVQ	24(SP), CX
	0x0099 00153 (/home/xzl/work/golang-1.22/golang-1.22/test/codegen/slices.go:300)	JMP	0
	0x0000 49 3b 66 10 76 70 55 48 89 e5 48 83 ec 30 48 89  I;f.vpUH..H..0H.
	0x0010 4c 24 50 48 89 44 24 40 bb 04 00 00 00 48 8d 05  L$PH.D$@.....H..
	0x0020 00 00 00 00 48 89 d9 e8 00 00 00 00 48 8b 54 24  ....H.......H.T$
	0x0030 50 48 83 fa 04 72 34 48 89 44 24 28 48 89 c3 b9  PH...r4H.D$(H...
	0x0040 04 00 00 00 48 8b 7c 24 40 48 89 ce 48 8d 05 00  ....H.|$@H..H...
	0x0050 00 00 00 e8 00 00 00 00 48 8b 44 24 28 bb 04 00  ........H.D$(...
	0x0060 00 00 48 89 d9 48 83 c4 30 5d c3 b9 04 00 00 00  ..H..H..0]......
	0x0070 e8 00 00 00 00 90 48 89 44 24 08 48 89 5c 24 10  ......H.D$.H.\$.
	0x0080 48 89 4c 24 18 e8 00 00 00 00 48 8b 44 24 08 48  H.L$......H.D$.H
	0x0090 8b 5c 24 10 48 8b 4c 24 18 e9 62 ff ff ff        .\$.H.L$..b...
	rel 32+4 t=R_PCREL type:*int<0>+0
	rel 40+4 t=R_CALL runtime.makeslice<1>+0
	rel 79+4 t=R_PCREL type:*int<0>+0
	rel 84+4 t=R_CALL runtime.typedslicecopy<1>+0
	rel 113+4 t=R_CALL runtime.panicSliceAcap<1>+0
	rel 134+4 t=R_CALL runtime.morestack_noctxt<0>+0
command-line-arguments.SliceMakeCopyNoOptCap<1> STEXT size=137 args=0x18 locals=0x28 funcid=0x0 align=0x0
	0x0000 00000 (/home/xzl/work/golang-1.22/golang-1.22/test/codegen/slices.go:310)	TEXT	command-line-arguments.SliceMakeCopyNoOptCap(SB), ABIInternal, $40-24
	0x0000 00000 (/home/xzl/work/golang-1.22/golang-1.22/test/codegen/slices.go:310)	CMPQ	SP, 16(R14)
	0x0004 00004 (/home/xzl/work/golang-1.22/golang-1.22/test/codegen/slices.go:310)	PCDATA	$0, $-2
	0x0004 00004 (/home/xzl/work/golang-1.22/golang-1.22/test/codegen/slices.go:310)	JLS	97
	0x0006 00006 (/home/xzl/work/golang-1.22/golang-1.22/test/codegen/slices.go:310)	PCDATA	$0, $-1
	0x0006 00006 (/home/xzl/work/golang-1.22/golang-1.22/test/codegen/slices.go:310)	PUSHQ	BP
	0x0007 00007 (/home/xzl/work/golang-1.22/golang-1.22/test/codegen/slices.go:310)	MOVQ	SP, BP
	0x000a 00010 (/home/xzl/work/golang-1.22/golang-1.22/test/codegen/slices.go:310)	SUBQ	$32, SP
	0x000e 00014 (/home/xzl/work/golang-1.22/golang-1.22/test/codegen/slices.go:310)	FUNCDATA	$0, gclocals·m/6RUmNv6NBhMUL8eleFFA==(SB)
	0x000e 00014 (/home/xzl/work/golang-1.22/golang-1.22/test/codegen/slices.go:310)	FUNCDATA	$1, gclocals·VtCL4RdUwCqwXEPeyJllRA==(SB)
	0x000e 00014 (/home/xzl/work/golang-1.22/golang-1.22/test/codegen/slices.go:310)	FUNCDATA	$5, command-line-arguments.SliceMakeCopyNoOptCap.arginfo1(SB)
	0x000e 00014 (/home/xzl/work/golang-1.22/golang-1.22/test/codegen/slices.go:310)	FUNCDATA	$6, command-line-arguments.SliceMakeCopyNoOptCap.argliveinfo(SB)
	0x000e 00014 (/home/xzl/work/golang-1.22/golang-1.22/test/codegen/slices.go:310)	PCDATA	$3, $1
	0x000e 00014 (/home/xzl/work/golang-1.22/golang-1.22/test/codegen/slices.go:316)	MOVQ	BX, command-line-arguments.s+56(SP)
	0x0013 00019 (/home/xzl/work/golang-1.22/golang-1.22/test/codegen/slices.go:316)	MOVQ	AX, command-line-arguments.s+48(SP)
	0x0018 00024 (/home/xzl/work/golang-1.22/golang-1.22/test/codegen/slices.go:316)	PCDATA	$3, $2
	0x0018 00024 (/home/xzl/work/golang-1.22/golang-1.22/test/codegen/slices.go:313)	MOVL	$9, CX
	0x001d 00029 (/home/xzl/work/golang-1.22/golang-1.22/test/codegen/slices.go:313)	LEAQ	type:int(SB), AX
	0x0024 00036 (/home/xzl/work/golang-1.22/golang-1.22/test/codegen/slices.go:313)	PCDATA	$1, $0
	0x0024 00036 (/home/xzl/work/golang-1.22/golang-1.22/test/codegen/slices.go:313)	CALL	runtime.makeslice(SB)
	0x0029 00041 (/home/xzl/work/golang-1.22/golang-1.22/test/codegen/slices.go:316)	MOVQ	command-line-arguments.s+48(SP), BX
	0x002e 00046 (/home/xzl/work/golang-1.22/golang-1.22/test/codegen/slices.go:316)	CMPQ	AX, BX
	0x0031 00049 (/home/xzl/work/golang-1.22/golang-1.22/test/codegen/slices.go:316)	JEQ	81
	0x0033 00051 (/home/xzl/work/golang-1.22/golang-1.22/test/codegen/slices.go:313)	MOVQ	AX, command-line-arguments..autotmp_11+24(SP)
	0x0038 00056 (/home/xzl/work/golang-1.22/golang-1.22/test/codegen/slices.go:316)	MOVQ	command-line-arguments.s+56(SP), CX
	0x003d 00061 (/home/xzl/work/golang-1.22/golang-1.22/test/codegen/slices.go:316)	MOVQ	CX, DX
	0x0040 00064 (/home/xzl/work/golang-1.22/golang-1.22/test/codegen/slices.go:316)	SHLQ	$3, DX
	0x0044 00068 (/home/xzl/work/golang-1.22/golang-1.22/test/codegen/slices.go:316)	MOVQ	DX, CX
	0x0047 00071 (/home/xzl/work/golang-1.22/golang-1.22/test/codegen/slices.go:316)	PCDATA	$1, $1
	0x0047 00071 (/home/xzl/work/golang-1.22/golang-1.22/test/codegen/slices.go:316)	CALL	runtime.memmove(SB)
	0x004c 00076 (/home/xzl/work/golang-1.22/golang-1.22/test/codegen/slices.go:317)	MOVQ	command-line-arguments..autotmp_11+24(SP), AX
	0x0051 00081 (/home/xzl/work/golang-1.22/golang-1.22/test/codegen/slices.go:317)	MOVQ	command-line-arguments.s+56(SP), BX
	0x0056 00086 (/home/xzl/work/golang-1.22/golang-1.22/test/codegen/slices.go:317)	MOVL	$9, CX
	0x005b 00091 (/home/xzl/work/golang-1.22/golang-1.22/test/codegen/slices.go:317)	ADDQ	$32, SP
	0x005f 00095 (/home/xzl/work/golang-1.22/golang-1.22/test/codegen/slices.go:317)	POPQ	BP
	0x0060 00096 (/home/xzl/work/golang-1.22/golang-1.22/test/codegen/slices.go:317)	RET
	0x0061 00097 (/home/xzl/work/golang-1.22/golang-1.22/test/codegen/slices.go:317)	NOP
	0x0061 00097 (/home/xzl/work/golang-1.22/golang-1.22/test/codegen/slices.go:310)	PCDATA	$1, $-1
	0x0061 00097 (/home/xzl/work/golang-1.22/golang-1.22/test/codegen/slices.go:310)	PCDATA	$0, $-2
	0x0061 00097 (/home/xzl/work/golang-1.22/golang-1.22/test/codegen/slices.go:310)	MOVQ	AX, 8(SP)
	0x0066 00102 (/home/xzl/work/golang-1.22/golang-1.22/test/codegen/slices.go:310)	MOVQ	BX, 16(SP)
	0x006b 00107 (/home/xzl/work/golang-1.22/golang-1.22/test/codegen/slices.go:310)	MOVQ	CX, 24(SP)
	0x0070 00112 (/home/xzl/work/golang-1.22/golang-1.22/test/codegen/slices.go:310)	CALL	runtime.morestack_noctxt(SB)
	0x0075 00117 (/home/xzl/work/golang-1.22/golang-1.22/test/codegen/slices.go:310)	PCDATA	$0, $-1
	0x0075 00117 (/home/xzl/work/golang-1.22/golang-1.22/test/codegen/slices.go:310)	MOVQ	8(SP), AX
	0x007a 00122 (/home/xzl/work/golang-1.22/golang-1.22/test/codegen/slices.go:310)	MOVQ	16(SP), BX
	0x007f 00127 (/home/xzl/work/golang-1.22/golang-1.22/test/codegen/slices.go:310)	MOVQ	24(SP), CX
	0x0084 00132 (/home/xzl/work/golang-1.22/golang-1.22/test/codegen/slices.go:310)	JMP	0
	0x0000 49 3b 66 10 76 5b 55 48 89 e5 48 83 ec 20 48 89  I;f.v[UH..H.. H.
	0x0010 5c 24 38 48 89 44 24 30 b9 09 00 00 00 48 8d 05  \$8H.D$0.....H..
	0x0020 00 00 00 00 e8 00 00 00 00 48 8b 5c 24 30 48 39  .........H.\$0H9
	0x0030 d8 74 1e 48 89 44 24 18 48 8b 4c 24 38 48 89 ca  .t.H.D$.H.L$8H..
	0x0040 48 c1 e2 03 48 89 d1 e8 00 00 00 00 48 8b 44 24  H...H.......H.D$
	0x0050 18 48 8b 5c 24 38 b9 09 00 00 00 48 83 c4 20 5d  .H.\$8.....H.. ]
	0x0060 c3 48 89 44 24 08 48 89 5c 24 10 48 89 4c 24 18  .H.D$.H.\$.H.L$.
	0x0070 e8 00 00 00 00 48 8b 44 24 08 48 8b 5c 24 10 48  .....H.D$.H.\$.H
	0x0080 8b 4c 24 18 e9 77 ff ff ff                       .L$..w...
	rel 32+4 t=R_PCREL type:int<0>+0
	rel 37+4 t=R_CALL runtime.makeslice<1>+0
	rel 72+4 t=R_CALL runtime.memmove<1>+0
	rel 113+4 t=R_CALL runtime.morestack_noctxt<0>+0
command-line-arguments.SliceMakeCopyNoMemmoveDifferentLen<1> STEXT size=100 args=0x18 locals=0x30 funcid=0x0 align=0x0
	0x0000 00000 (/home/xzl/work/golang-1.22/golang-1.22/test/codegen/slices.go:320)	TEXT	command-line-arguments.SliceMakeCopyNoMemmoveDifferentLen(SB), ABIInternal, $48-24
	0x0000 00000 (/home/xzl/work/golang-1.22/golang-1.22/test/codegen/slices.go:320)	CMPQ	SP, 16(R14)
	0x0004 00004 (/home/xzl/work/golang-1.22/golang-1.22/test/codegen/slices.go:320)	PCDATA	$0, $-2
	0x0004 00004 (/home/xzl/work/golang-1.22/golang-1.22/test/codegen/slices.go:320)	JLS	63
	0x0006 00006 (/home/xzl/work/golang-1.22/golang-1.22/test/codegen/slices.go:320)	PCDATA	$0, $-1
	0x0006 00006 (/home/xzl/work/golang-1.22/golang-1.22/test/codegen/slices.go:320)	PUSHQ	BP
	0x0007 00007 (/home/xzl/work/golang-1.22/golang-1.22/test/codegen/slices.go:320)	MOVQ	SP, BP
	0x000a 00010 (/home/xzl/work/golang-1.22/golang-1.22/test/codegen/slices.go:320)	SUBQ	$40, SP
	0x000e 00014 (/home/xzl/work/golang-1.22/golang-1.22/test/codegen/slices.go:320)	MOVQ	AX, command-line-arguments.s+56(FP)
	0x0013 00019 (/home/xzl/work/golang-1.22/golang-1.22/test/codegen/slices.go:320)	FUNCDATA	$0, gclocals·wgcWObbY2HYnK2SU/U22lA==(SB)
	0x0013 00019 (/home/xzl/work/golang-1.22/golang-1.22/test/codegen/slices.go:320)	FUNCDATA	$1, gclocals·J5F+7Qw7O7ve2QcWC7DpeQ==(SB)
	0x0013 00019 (/home/xzl/work/golang-1.22/golang-1.22/test/codegen/slices.go:320)	FUNCDATA	$5, command-line-arguments.SliceMakeCopyNoMemmoveDifferentLen.arginfo1(SB)
	0x0013 00019 (/home/xzl/work/golang-1.22/golang-1.22/test/codegen/slices.go:320)	FUNCDATA	$6, command-line-arguments.SliceMakeCopyNoMemmoveDifferentLen.argliveinfo(SB)
	0x0013 00019 (/home/xzl/work/golang-1.22/golang-1.22/test/codegen/slices.go:320)	PCDATA	$3, $1
	0x0013 00019 (/home/xzl/work/golang-1.22/golang-1.22/test/codegen/slices.go:323)	LEAQ	-1(BX), DX
	0x0017 00023 (/home/xzl/work/golang-1.22/golang-1.22/test/codegen/slices.go:323)	MOVQ	DX, command-line-arguments.a.len+32(SP)
	0x001c 00028 (/home/xzl/work/golang-1.22/golang-1.22/test/codegen/slices.go:323)	MOVQ	BX, CX
	0x001f 00031 (/home/xzl/work/golang-1.22/golang-1.22/test/codegen/slices.go:323)	MOVQ	AX, DI
	0x0022 00034 (/home/xzl/work/golang-1.22/golang-1.22/test/codegen/slices.go:323)	LEAQ	type:int(SB), AX
	0x0029 00041 (/home/xzl/work/golang-1.22/golang-1.22/test/codegen/slices.go:323)	MOVQ	DX, BX
	0x002c 00044 (/home/xzl/work/golang-1.22/golang-1.22/test/codegen/slices.go:323)	PCDATA	$1, $1
	0x002c 00044 (/home/xzl/work/golang-1.22/golang-1.22/test/codegen/slices.go:323)	CALL	runtime.makeslicecopy(SB)
	0x0031 00049 (/home/xzl/work/golang-1.22/golang-1.22/test/codegen/slices.go:326)	MOVQ	command-line-arguments.a.len+32(SP), BX
	0x0036 00054 (/home/xzl/work/golang-1.22/golang-1.22/test/codegen/slices.go:326)	MOVQ	BX, CX
	0x0039 00057 (/home/xzl/work/golang-1.22/golang-1.22/test/codegen/slices.go:326)	ADDQ	$40, SP
	0x003d 00061 (/home/xzl/work/golang-1.22/golang-1.22/test/codegen/slices.go:326)	POPQ	BP
	0x003e 00062 (/home/xzl/work/golang-1.22/golang-1.22/test/codegen/slices.go:326)	RET
	0x003f 00063 (/home/xzl/work/golang-1.22/golang-1.22/test/codegen/slices.go:326)	NOP
	0x003f 00063 (/home/xzl/work/golang-1.22/golang-1.22/test/codegen/slices.go:320)	PCDATA	$1, $-1
	0x003f 00063 (/home/xzl/work/golang-1.22/golang-1.22/test/codegen/slices.go:320)	PCDATA	$0, $-2
	0x003f 00063 (/home/xzl/work/golang-1.22/golang-1.22/test/codegen/slices.go:320)	MOVQ	AX, 8(SP)
	0x0044 00068 (/home/xzl/work/golang-1.22/golang-1.22/test/codegen/slices.go:320)	MOVQ	BX, 16(SP)
	0x0049 00073 (/home/xzl/work/golang-1.22/golang-1.22/test/codegen/slices.go:320)	MOVQ	CX, 24(SP)
	0x004e 00078 (/home/xzl/work/golang-1.22/golang-1.22/test/codegen/slices.go:320)	CALL	runtime.morestack_noctxt(SB)
	0x0053 00083 (/home/xzl/work/golang-1.22/golang-1.22/test/codegen/slices.go:320)	PCDATA	$0, $-1
	0x0053 00083 (/home/xzl/work/golang-1.22/golang-1.22/test/codegen/slices.go:320)	MOVQ	8(SP), AX
	0x0058 00088 (/home/xzl/work/golang-1.22/golang-1.22/test/codegen/slices.go:320)	MOVQ	16(SP), BX
	0x005d 00093 (/home/xzl/work/golang-1.22/golang-1.22/test/codegen/slices.go:320)	MOVQ	24(SP), CX
	0x0062 00098 (/home/xzl/work/golang-1.22/golang-1.22/test/codegen/slices.go:320)	JMP	0
	0x0000 49 3b 66 10 76 39 55 48 89 e5 48 83 ec 28 48 89  I;f.v9UH..H..(H.
	0x0010 44 24 38 48 8d 53 ff 48 89 54 24 20 48 89 d9 48  D$8H.S.H.T$ H..H
	0x0020 89 c7 48 8d 05 00 00 00 00 48 89 d3 e8 00 00 00  ..H......H......
	0x0030 00 48 8b 5c 24 20 48 89 d9 48 83 c4 28 5d c3 48  .H.\$ H..H..(].H
	0x0040 89 44 24 08 48 89 5c 24 10 48 89 4c 24 18 e8 00  .D$.H.\$.H.L$...
	0x0050 00 00 00 48 8b 44 24 08 48 8b 5c 24 10 48 8b 4c  ...H.D$.H.\$.H.L
	0x0060 24 18 eb 9c                                      $...
	rel 37+4 t=R_PCREL type:int<0>+0
	rel 45+4 t=R_CALL runtime.makeslicecopy<1>+0
	rel 79+4 t=R_CALL runtime.morestack_noctxt<0>+0
command-line-arguments.SliceMakeEmptyPointerToZerobase<1> STEXT nosplit size=13 args=0x0 locals=0x0 funcid=0x0 align=0x0
	0x0000 00000 (/home/xzl/work/golang-1.22/golang-1.22/test/codegen/slices.go:329)	TEXT	command-line-arguments.SliceMakeEmptyPointerToZerobase(SB), NOSPLIT|NOFRAME|ABIInternal, $0-0
	0x0000 00000 (/home/xzl/work/golang-1.22/golang-1.22/test/codegen/slices.go:329)	FUNCDATA	$0, gclocals·g2BeySu+wFnoycgXfElmcg==(SB)
	0x0000 00000 (/home/xzl/work/golang-1.22/golang-1.22/test/codegen/slices.go:329)	FUNCDATA	$1, gclocals·g2BeySu+wFnoycgXfElmcg==(SB)
	0x0000 00000 (/home/xzl/work/golang-1.22/golang-1.22/test/codegen/slices.go:332)	LEAQ	runtime.zerobase(SB), AX
	0x0007 00007 (/home/xzl/work/golang-1.22/golang-1.22/test/codegen/slices.go:332)	XORL	BX, BX
	0x0009 00009 (/home/xzl/work/golang-1.22/golang-1.22/test/codegen/slices.go:332)	MOVQ	BX, CX
	0x000c 00012 (/home/xzl/work/golang-1.22/golang-1.22/test/codegen/slices.go:332)	RET
	0x0000 48 8d 05 00 00 00 00 31 db 48 89 d9 c3           H......1.H...
	rel 3+4 t=R_PCREL runtime.zerobase<0>+0
command-line-arguments.SliceNilCheck<1> STEXT nosplit size=38 args=0x18 locals=0x18 funcid=0x0 align=0x0
	0x0000 00000 (/home/xzl/work/golang-1.22/golang-1.22/test/codegen/slices.go:339)	TEXT	command-line-arguments.SliceNilCheck(SB), NOSPLIT|ABIInternal, $24-24
	0x0000 00000 (/home/xzl/work/golang-1.22/golang-1.22/test/codegen/slices.go:339)	PUSHQ	BP
	0x0001 00001 (/home/xzl/work/golang-1.22/golang-1.22/test/codegen/slices.go:339)	MOVQ	SP, BP
	0x0004 00004 (/home/xzl/work/golang-1.22/golang-1.22/test/codegen/slices.go:339)	SUBQ	$16, SP
	0x0008 00008 (/home/xzl/work/golang-1.22/golang-1.22/test/codegen/slices.go:339)	MOVQ	AX, command-line-arguments.s+32(FP)
	0x000d 00013 (/home/xzl/work/golang-1.22/golang-1.22/test/codegen/slices.go:339)	FUNCDATA	$0, gclocals·wgcWObbY2HYnK2SU/U22lA==(SB)
	0x000d 00013 (/home/xzl/work/golang-1.22/golang-1.22/test/codegen/slices.go:339)	FUNCDATA	$1, gclocals·J5F+7Qw7O7ve2QcWC7DpeQ==(SB)
	0x000d 00013 (/home/xzl/work/golang-1.22/golang-1.22/test/codegen/slices.go:339)	FUNCDATA	$5, command-line-arguments.SliceNilCheck.arginfo1(SB)
	0x000d 00013 (/home/xzl/work/golang-1.22/golang-1.22/test/codegen/slices.go:339)	FUNCDATA	$6, command-line-arguments.SliceNilCheck.argliveinfo(SB)
	0x000d 00013 (/home/xzl/work/golang-1.22/golang-1.22/test/codegen/slices.go:339)	PCDATA	$3, $1
	0x000d 00013 (/home/xzl/work/golang-1.22/golang-1.22/test/codegen/slices.go:340)	TESTQ	BX, BX
	0x0010 00016 (/home/xzl/work/golang-1.22/golang-1.22/test/codegen/slices.go:340)	JLS	24
	0x0012 00018 (/home/xzl/work/golang-1.22/golang-1.22/test/codegen/slices.go:343)	ADDQ	$16, SP
	0x0016 00022 (/home/xzl/work/golang-1.22/golang-1.22/test/codegen/slices.go:343)	POPQ	BP
	0x0017 00023 (/home/xzl/work/golang-1.22/golang-1.22/test/codegen/slices.go:343)	RET
	0x0018 00024 (/home/xzl/work/golang-1.22/golang-1.22/test/codegen/slices.go:340)	XORL	AX, AX
	0x001a 00026 (/home/xzl/work/golang-1.22/golang-1.22/test/codegen/slices.go:340)	MOVQ	AX, CX
	0x001d 00029 (/home/xzl/work/golang-1.22/golang-1.22/test/codegen/slices.go:340)	PCDATA	$1, $1
	0x001d 00029 (/home/xzl/work/golang-1.22/golang-1.22/test/codegen/slices.go:340)	NOP
	0x0020 00032 (/home/xzl/work/golang-1.22/golang-1.22/test/codegen/slices.go:340)	CALL	runtime.panicIndex(SB)
	0x0025 00037 (/home/xzl/work/golang-1.22/golang-1.22/test/codegen/slices.go:340)	XCHGL	AX, AX
	0x0000 55 48 89 e5 48 83 ec 10 48 89 44 24 20 48 85 db  UH..H...H.D$ H..
	0x0010 76 06 48 83 c4 10 5d c3 31 c0 48 89 c1 0f 1f 00  v.H...].1.H.....
	0x0020 e8 00 00 00 00 90                                ......
	rel 33+4 t=R_CALL runtime.panicIndex<1>+0
command-line-arguments.InitSmallSliceLiteral<1> STEXT size=54 args=0x0 locals=0x18 funcid=0x0 align=0x0
	0x0000 00000 (/home/xzl/work/golang-1.22/golang-1.22/test/codegen/slices.go:349)	TEXT	command-line-arguments.InitSmallSliceLiteral(SB), ABIInternal, $24-0
	0x0000 00000 (/home/xzl/work/golang-1.22/golang-1.22/test/codegen/slices.go:349)	CMPQ	SP, 16(R14)
	0x0004 00004 (/home/xzl/work/golang-1.22/golang-1.22/test/codegen/slices.go:349)	PCDATA	$0, $-2
	0x0004 00004 (/home/xzl/work/golang-1.22/golang-1.22/test/codegen/slices.go:349)	JLS	47
	0x0006 00006 (/home/xzl/work/golang-1.22/golang-1.22/test/codegen/slices.go:349)	PCDATA	$0, $-1
	0x0006 00006 (/home/xzl/work/golang-1.22/golang-1.22/test/codegen/slices.go:349)	PUSHQ	BP
	0x0007 00007 (/home/xzl/work/golang-1.22/golang-1.22/test/codegen/slices.go:349)	MOVQ	SP, BP
	0x000a 00010 (/home/xzl/work/golang-1.22/golang-1.22/test/codegen/slices.go:349)	SUBQ	$16, SP
	0x000e 00014 (/home/xzl/work/golang-1.22/golang-1.22/test/codegen/slices.go:349)	FUNCDATA	$0, gclocals·g2BeySu+wFnoycgXfElmcg==(SB)
	0x000e 00014 (/home/xzl/work/golang-1.22/golang-1.22/test/codegen/slices.go:349)	FUNCDATA	$1, gclocals·g2BeySu+wFnoycgXfElmcg==(SB)
	0x000e 00014 (/home/xzl/work/golang-1.22/golang-1.22/test/codegen/slices.go:351)	LEAQ	type:[1]int(SB), AX
	0x0015 00021 (/home/xzl/work/golang-1.22/golang-1.22/test/codegen/slices.go:351)	PCDATA	$1, $0
	0x0015 00021 (/home/xzl/work/golang-1.22/golang-1.22/test/codegen/slices.go:351)	CALL	runtime.newobject(SB)
	0x001a 00026 (/home/xzl/work/golang-1.22/golang-1.22/test/codegen/slices.go:351)	MOVQ	$42, (AX)
	0x0021 00033 (/home/xzl/work/golang-1.22/golang-1.22/test/codegen/slices.go:351)	MOVL	$1, BX
	0x0026 00038 (/home/xzl/work/golang-1.22/golang-1.22/test/codegen/slices.go:351)	MOVQ	BX, CX
	0x0029 00041 (/home/xzl/work/golang-1.22/golang-1.22/test/codegen/slices.go:351)	ADDQ	$16, SP
	0x002d 00045 (/home/xzl/work/golang-1.22/golang-1.22/test/codegen/slices.go:351)	POPQ	BP
	0x002e 00046 (/home/xzl/work/golang-1.22/golang-1.22/test/codegen/slices.go:351)	RET
	0x002f 00047 (/home/xzl/work/golang-1.22/golang-1.22/test/codegen/slices.go:351)	NOP
	0x002f 00047 (/home/xzl/work/golang-1.22/golang-1.22/test/codegen/slices.go:349)	PCDATA	$1, $-1
	0x002f 00047 (/home/xzl/work/golang-1.22/golang-1.22/test/codegen/slices.go:349)	PCDATA	$0, $-2
	0x002f 00047 (/home/xzl/work/golang-1.22/golang-1.22/test/codegen/slices.go:349)	CALL	runtime.morestack_noctxt(SB)
	0x0034 00052 (/home/xzl/work/golang-1.22/golang-1.22/test/codegen/slices.go:349)	PCDATA	$0, $-1
	0x0034 00052 (/home/xzl/work/golang-1.22/golang-1.22/test/codegen/slices.go:349)	JMP	0
	0x0000 49 3b 66 10 76 29 55 48 89 e5 48 83 ec 10 48 8d  I;f.v)UH..H...H.
	0x0010 05 00 00 00 00 e8 00 00 00 00 48 c7 00 2a 00 00  ..........H..*..
	0x0020 00 bb 01 00 00 00 48 89 d9 48 83 c4 10 5d c3 e8  ......H..H...]..
	0x0030 00 00 00 00 eb ca                                ......
	rel 17+4 t=R_PCREL type:[1]int<0>+0
	rel 22+4 t=R_CALL runtime.newobject<1>+0
	rel 48+4 t=R_CALL runtime.morestack_noctxt<0>+0
command-line-arguments.InitNotSmallSliceLiteral<1> STEXT size=76 args=0x0 locals=0x18 funcid=0x0 align=0x0
	0x0000 00000 (/home/xzl/work/golang-1.22/golang-1.22/test/codegen/slices.go:354)	TEXT	command-line-arguments.InitNotSmallSliceLiteral(SB), ABIInternal, $24-0
	0x0000 00000 (/home/xzl/work/golang-1.22/golang-1.22/test/codegen/slices.go:354)	CMPQ	SP, 16(R14)
	0x0004 00004 (/home/xzl/work/golang-1.22/golang-1.22/test/codegen/slices.go:354)	PCDATA	$0, $-2
	0x0004 00004 (/home/xzl/work/golang-1.22/golang-1.22/test/codegen/slices.go:354)	JLS	69
	0x0006 00006 (/home/xzl/work/golang-1.22/golang-1.22/test/codegen/slices.go:354)	PCDATA	$0, $-1
	0x0006 00006 (/home/xzl/work/golang-1.22/golang-1.22/test/codegen/slices.go:354)	PUSHQ	BP
	0x0007 00007 (/home/xzl/work/golang-1.22/golang-1.22/test/codegen/slices.go:354)	MOVQ	SP, BP
	0x000a 00010 (/home/xzl/work/golang-1.22/golang-1.22/test/codegen/slices.go:354)	SUBQ	$16, SP
	0x000e 00014 (/home/xzl/work/golang-1.22/golang-1.22/test/codegen/slices.go:354)	FUNCDATA	$0, gclocals·g2BeySu+wFnoycgXfElmcg==(SB)
	0x000e 00014 (/home/xzl/work/golang-1.22/golang-1.22/test/codegen/slices.go:354)	FUNCDATA	$1, gclocals·g2BeySu+wFnoycgXfElmcg==(SB)
	0x000e 00014 (/home/xzl/work/golang-1.22/golang-1.22/test/codegen/slices.go:356)	LEAQ	type:[36]int(SB), AX
	0x0015 00021 (/home/xzl/work/golang-1.22/golang-1.22/test/codegen/slices.go:356)	PCDATA	$1, $0
	0x0015 00021 (/home/xzl/work/golang-1.22/golang-1.22/test/codegen/slices.go:356)	CALL	runtime.newobject(SB)
	0x001a 00026 (/home/xzl/work/golang-1.22/golang-1.22/test/codegen/slices.go:356)	MOVQ	AX, DI
	0x001d 00029 (/home/xzl/work/golang-1.22/golang-1.22/test/codegen/slices.go:356)	LEAQ	command-line-arguments..stmp_0(SB), SI
	0x0024 00036 (/home/xzl/work/golang-1.22/golang-1.22/test/codegen/slices.go:356)	PCDATA	$0, $-2
	0x0024 00036 (/home/xzl/work/golang-1.22/golang-1.22/test/codegen/slices.go:356)	DUFFCOPY	$644
	0x0037 00055 (/home/xzl/work/golang-1.22/golang-1.22/test/codegen/slices.go:356)	PCDATA	$0, $-1
	0x0037 00055 (/home/xzl/work/golang-1.22/golang-1.22/test/codegen/slices.go:356)	MOVL	$36, BX
	0x003c 00060 (/home/xzl/work/golang-1.22/golang-1.22/test/codegen/slices.go:356)	MOVQ	BX, CX
	0x003f 00063 (/home/xzl/work/golang-1.22/golang-1.22/test/codegen/slices.go:356)	ADDQ	$16, SP
	0x0043 00067 (/home/xzl/work/golang-1.22/golang-1.22/test/codegen/slices.go:356)	POPQ	BP
	0x0044 00068 (/home/xzl/work/golang-1.22/golang-1.22/test/codegen/slices.go:356)	RET
	0x0045 00069 (/home/xzl/work/golang-1.22/golang-1.22/test/codegen/slices.go:356)	NOP
	0x0045 00069 (/home/xzl/work/golang-1.22/golang-1.22/test/codegen/slices.go:354)	PCDATA	$1, $-1
	0x0045 00069 (/home/xzl/work/golang-1.22/golang-1.22/test/codegen/slices.go:354)	PCDATA	$0, $-2
	0x0045 00069 (/home/xzl/work/golang-1.22/golang-1.22/test/codegen/slices.go:354)	CALL	runtime.morestack_noctxt(SB)
	0x004a 00074 (/home/xzl/work/golang-1.22/golang-1.22/test/codegen/slices.go:354)	PCDATA	$0, $-1
	0x004a 00074 (/home/xzl/work/golang-1.22/golang-1.22/test/codegen/slices.go:354)	JMP	0
	0x0000 49 3b 66 10 76 3f 55 48 89 e5 48 83 ec 10 48 8d  I;f.v?UH..H...H.
	0x0010 05 00 00 00 00 e8 00 00 00 00 48 89 c7 48 8d 35  ..........H..H.5
	0x0020 00 00 00 00 48 89 6c 24 f0 48 8d 6c 24 f0 e8 00  ....H.l$.H.l$...
	0x0030 00 00 00 48 8b 6d 00 bb 24 00 00 00 48 89 d9 48  ...H.m..$...H..H
	0x0040 83 c4 10 5d c3 e8 00 00 00 00 eb b4              ...]........
	rel 17+4 t=R_PCREL type:[36]int<0>+0
	rel 22+4 t=R_CALL runtime.newobject<1>+0
	rel 32+4 t=R_PCREL command-line-arguments..stmp_0<0>+0
	rel 47+4 t=R_CALL runtime.duffcopy<1>+644
	rel 70+4 t=R_CALL runtime.morestack_noctxt<0>+0
command-line-arguments.SliceWithConstCompare<1> STEXT size=231 args=0x20 locals=0x18 funcid=0x0 align=0x0
	0x0000 00000 (/home/xzl/work/golang-1.22/golang-1.22/test/codegen/slices.go:401)	TEXT	command-line-arguments.SliceWithConstCompare(SB), ABIInternal, $24-32
	0x0000 00000 (/home/xzl/work/golang-1.22/golang-1.22/test/codegen/slices.go:401)	CMPQ	SP, 16(R14)
	0x0004 00004 (/home/xzl/work/golang-1.22/golang-1.22/test/codegen/slices.go:401)	PCDATA	$0, $-2
	0x0004 00004 (/home/xzl/work/golang-1.22/golang-1.22/test/codegen/slices.go:401)	JLS	181
	0x000a 00010 (/home/xzl/work/golang-1.22/golang-1.22/test/codegen/slices.go:401)	PCDATA	$0, $-1
	0x000a 00010 (/home/xzl/work/golang-1.22/golang-1.22/test/codegen/slices.go:401)	PUSHQ	BP
	0x000b 00011 (/home/xzl/work/golang-1.22/golang-1.22/test/codegen/slices.go:401)	MOVQ	SP, BP
	0x000e 00014 (/home/xzl/work/golang-1.22/golang-1.22/test/codegen/slices.go:401)	SUBQ	$16, SP
	0x0012 00018 (/home/xzl/work/golang-1.22/golang-1.22/test/codegen/slices.go:401)	FUNCDATA	$0, gclocals·wgcWObbY2HYnK2SU/U22lA==(SB)
	0x0012 00018 (/home/xzl/work/golang-1.22/golang-1.22/test/codegen/slices.go:401)	FUNCDATA	$1, gclocals·J5F+7Qw7O7ve2QcWC7DpeQ==(SB)
	0x0012 00018 (/home/xzl/work/golang-1.22/golang-1.22/test/codegen/slices.go:401)	FUNCDATA	$5, command-line-arguments.SliceWithConstCompare.arginfo1(SB)
	0x0012 00018 (/home/xzl/work/golang-1.22/golang-1.22/test/codegen/slices.go:401)	FUNCDATA	$6, command-line-arguments.SliceWithConstCompare.argliveinfo(SB)
	0x0012 00018 (/home/xzl/work/golang-1.22/golang-1.22/test/codegen/slices.go:401)	PCDATA	$3, $1
	0x0012 00018 (/home/xzl/work/golang-1.22/golang-1.22/test/codegen/slices.go:403)	MOVQ	DI, command-line-arguments.b+56(SP)
	0x0017 00023 (/home/xzl/work/golang-1.22/golang-1.22/test/codegen/slices.go:403)	MOVQ	BX, command-line-arguments.a+40(SP)
	0x001c 00028 (/home/xzl/work/golang-1.22/golang-1.22/test/codegen/slices.go:403)	MOVQ	CX, command-line-arguments.a+48(SP)
	0x0021 00033 (/home/xzl/work/golang-1.22/golang-1.22/test/codegen/slices.go:403)	MOVQ	AX, command-line-arguments.a+32(SP)
	0x0026 00038 (/home/xzl/work/golang-1.22/golang-1.22/test/codegen/slices.go:403)	PCDATA	$3, $-1
	0x0026 00038 (/home/xzl/work/golang-1.22/golang-1.22/test/codegen/slices.go:402)	LEAQ	type:[5]int(SB), AX
	0x002d 00045 (/home/xzl/work/golang-1.22/golang-1.22/test/codegen/slices.go:402)	PCDATA	$1, $0
	0x002d 00045 (/home/xzl/work/golang-1.22/golang-1.22/test/codegen/slices.go:402)	CALL	runtime.newobject(SB)
	0x0032 00050 (/home/xzl/work/golang-1.22/golang-1.22/test/codegen/slices.go:402)	MOVQ	$1, (AX)
	0x0039 00057 (/home/xzl/work/golang-1.22/golang-1.22/test/codegen/slices.go:402)	MOVQ	$2, 8(AX)
	0x0041 00065 (/home/xzl/work/golang-1.22/golang-1.22/test/codegen/slices.go:402)	MOVQ	$3, 16(AX)
	0x0049 00073 (/home/xzl/work/golang-1.22/golang-1.22/test/codegen/slices.go:402)	MOVQ	$4, 24(AX)
	0x0051 00081 (/home/xzl/work/golang-1.22/golang-1.22/test/codegen/slices.go:402)	MOVQ	$5, 32(AX)
	0x0059 00089 (/home/xzl/work/golang-1.22/golang-1.22/test/codegen/slices.go:403)	MOVQ	command-line-arguments.a+40(SP), BX
	0x005e 00094 (/home/xzl/work/golang-1.22/golang-1.22/test/codegen/slices.go:403)	MOVQ	command-line-arguments.b+56(SP), CX
	0x0063 00099 (/home/xzl/work/golang-1.22/golang-1.22/test/codegen/slices.go:403)	LEAQ	(CX)(BX*1), DX
	0x0067 00103 (/home/xzl/work/golang-1.22/golang-1.22/test/codegen/slices.go:403)	CMPQ	DX, $5
	0x006b 00107 (/home/xzl/work/golang-1.22/golang-1.22/test/codegen/slices.go:403)	JGE	151
	0x006d 00109 (/home/xzl/work/golang-1.22/golang-1.22/test/codegen/slices.go:405)	CMPQ	CX, $5
	0x0071 00113 (/home/xzl/work/golang-1.22/golang-1.22/test/codegen/slices.go:405)	JHI	167
	0x0073 00115 (/home/xzl/work/golang-1.22/golang-1.22/test/codegen/slices.go:405)	LEAQ	-5(CX), BX
	0x0077 00119 (/home/xzl/work/golang-1.22/golang-1.22/test/codegen/slices.go:405)	MOVQ	BX, DX
	0x007a 00122 (/home/xzl/work/golang-1.22/golang-1.22/test/codegen/slices.go:405)	NEGQ	DX
	0x007d 00125 (/home/xzl/work/golang-1.22/golang-1.22/test/codegen/slices.go:405)	SHLQ	$3, CX
	0x0081 00129 (/home/xzl/work/golang-1.22/golang-1.22/test/codegen/slices.go:405)	SARQ	$63, BX
	0x0085 00133 (/home/xzl/work/golang-1.22/golang-1.22/test/codegen/slices.go:405)	ANDQ	BX, CX
	0x0088 00136 (/home/xzl/work/golang-1.22/golang-1.22/test/codegen/slices.go:405)	ADDQ	CX, AX
	0x008b 00139 (/home/xzl/work/golang-1.22/golang-1.22/test/codegen/slices.go:405)	MOVQ	DX, BX
	0x008e 00142 (/home/xzl/work/golang-1.22/golang-1.22/test/codegen/slices.go:405)	MOVQ	BX, CX
	0x0091 00145 (/home/xzl/work/golang-1.22/golang-1.22/test/codegen/slices.go:405)	ADDQ	$16, SP
	0x0095 00149 (/home/xzl/work/golang-1.22/golang-1.22/test/codegen/slices.go:405)	POPQ	BP
	0x0096 00150 (/home/xzl/work/golang-1.22/golang-1.22/test/codegen/slices.go:405)	RET
	0x0097 00151 (/home/xzl/work/golang-1.22/golang-1.22/test/codegen/slices.go:407)	MOVQ	command-line-arguments.a+32(SP), AX
	0x009c 00156 (/home/xzl/work/golang-1.22/golang-1.22/test/codegen/slices.go:407)	MOVQ	command-line-arguments.a+48(SP), CX
	0x00a1 00161 (/home/xzl/work/golang-1.22/golang-1.22/test/codegen/slices.go:407)	ADDQ	$16, SP
	0x00a5 00165 (/home/xzl/work/golang-1.22/golang-1.22/test/codegen/slices.go:407)	POPQ	BP
	0x00a6 00166 (/home/xzl/work/golang-1.22/golang-1.22/test/codegen/slices.go:407)	RET
	0x00a7 00167 (/home/xzl/work/golang-1.22/golang-1.22/test/codegen/slices.go:405)	MOVQ	CX, AX
	0x00aa 00170 (/home/xzl/work/golang-1.22/golang-1.22/test/codegen/slices.go:405)	MOVL	$5, CX
	0x00af 00175 (/home/xzl/work/golang-1.22/golang-1.22/test/codegen/slices.go:405)	PCDATA	$1, $1
	0x00af 00175 (/home/xzl/work/golang-1.22/golang-1.22/test/codegen/slices.go:405)	CALL	runtime.panicSliceB(SB)
	0x00b4 00180 (/home/xzl/work/golang-1.22/golang-1.22/test/codegen/slices.go:405)	XCHGL	AX, AX
	0x00b5 00181 (/home/xzl/work/golang-1.22/golang-1.22/test/codegen/slices.go:405)	NOP
	0x00b5 00181 (/home/xzl/work/golang-1.22/golang-1.22/test/codegen/slices.go:401)	PCDATA	$1, $-1
	0x00b5 00181 (/home/xzl/work/golang-1.22/golang-1.22/test/codegen/slices.go:401)	PCDATA	$0, $-2
	0x00b5 00181 (/home/xzl/work/golang-1.22/golang-1.22/test/codegen/slices.go:401)	MOVQ	AX, 8(SP)
	0x00ba 00186 (/home/xzl/work/golang-1.22/golang-1.22/test/codegen/slices.go:401)	MOVQ	BX, 16(SP)
	0x00bf 00191 (/home/xzl/work/golang-1.22/golang-1.22/test/codegen/slices.go:401)	MOVQ	CX, 24(SP)
	0x00c4 00196 (/home/xzl/work/golang-1.22/golang-1.22/test/codegen/slices.go:401)	MOVQ	DI, 32(SP)
	0x00c9 00201 (/home/xzl/work/golang-1.22/golang-1.22/test/codegen/slices.go:401)	CALL	runtime.morestack_noctxt(SB)
	0x00ce 00206 (/home/xzl/work/golang-1.22/golang-1.22/test/codegen/slices.go:401)	PCDATA	$0, $-1
	0x00ce 00206 (/home/xzl/work/golang-1.22/golang-1.22/test/codegen/slices.go:401)	MOVQ	8(SP), AX
	0x00d3 00211 (/home/xzl/work/golang-1.22/golang-1.22/test/codegen/slices.go:401)	MOVQ	16(SP), BX
	0x00d8 00216 (/home/xzl/work/golang-1.22/golang-1.22/test/codegen/slices.go:401)	MOVQ	24(SP), CX
	0x00dd 00221 (/home/xzl/work/golang-1.22/golang-1.22/test/codegen/slices.go:401)	MOVQ	32(SP), DI
	0x00e2 00226 (/home/xzl/work/golang-1.22/golang-1.22/test/codegen/slices.go:401)	JMP	0
	0x0000 49 3b 66 10 0f 86 ab 00 00 00 55 48 89 e5 48 83  I;f.......UH..H.
	0x0010 ec 10 48 89 7c 24 38 48 89 5c 24 28 48 89 4c 24  ..H.|$8H.\$(H.L$
	0x0020 30 48 89 44 24 20 48 8d 05 00 00 00 00 e8 00 00  0H.D$ H.........
	0x0030 00 00 48 c7 00 01 00 00 00 48 c7 40 08 02 00 00  ..H......H.@....
	0x0040 00 48 c7 40 10 03 00 00 00 48 c7 40 18 04 00 00  .H.@.....H.@....
	0x0050 00 48 c7 40 20 05 00 00 00 48 8b 5c 24 28 48 8b  .H.@ ....H.\$(H.
	0x0060 4c 24 38 48 8d 14 19 48 83 fa 05 7d 2a 48 83 f9  L$8H...H...}*H..
	0x0070 05 77 34 48 8d 59 fb 48 89 da 48 f7 da 48 c1 e1  .w4H.Y.H..H..H..
	0x0080 03 48 c1 fb 3f 48 21 d9 48 01 c8 48 89 d3 48 89  .H..?H!.H..H..H.
	0x0090 d9 48 83 c4 10 5d c3 48 8b 44 24 20 48 8b 4c 24  .H...].H.D$ H.L$
	0x00a0 30 48 83 c4 10 5d c3 48 89 c8 b9 05 00 00 00 e8  0H...].H........
	0x00b0 00 00 00 00 90 48 89 44 24 08 48 89 5c 24 10 48  .....H.D$.H.\$.H
	0x00c0 89 4c 24 18 48 89 7c 24 20 e8 00 00 00 00 48 8b  .L$.H.|$ .....H.
	0x00d0 44 24 08 48 8b 5c 24 10 48 8b 4c 24 18 48 8b 7c  D$.H.\$.H.L$.H.|
	0x00e0 24 20 e9 19 ff ff ff                             $ .....
	rel 41+4 t=R_PCREL type:[5]int<0>+0
	rel 46+4 t=R_CALL runtime.newobject<1>+0
	rel 176+4 t=R_CALL runtime.panicSliceB<1>+0
	rel 202+4 t=R_CALL runtime.morestack_noctxt<0>+0
command-line-arguments.SliceWithSubtractBound<1> STEXT nosplit size=79 args=0x20 locals=0x18 funcid=0x0 align=0x0
	0x0000 00000 (/home/xzl/work/golang-1.22/golang-1.22/test/codegen/slices.go:410)	TEXT	command-line-arguments.SliceWithSubtractBound(SB), NOSPLIT|ABIInternal, $24-32
	0x0000 00000 (/home/xzl/work/golang-1.22/golang-1.22/test/codegen/slices.go:410)	PUSHQ	BP
	0x0001 00001 (/home/xzl/work/golang-1.22/golang-1.22/test/codegen/slices.go:410)	MOVQ	SP, BP
	0x0004 00004 (/home/xzl/work/golang-1.22/golang-1.22/test/codegen/slices.go:410)	SUBQ	$16, SP
	0x0008 00008 (/home/xzl/work/golang-1.22/golang-1.22/test/codegen/slices.go:410)	MOVQ	AX, command-line-arguments.a+32(FP)
	0x000d 00013 (/home/xzl/work/golang-1.22/golang-1.22/test/codegen/slices.go:410)	FUNCDATA	$0, gclocals·wgcWObbY2HYnK2SU/U22lA==(SB)
	0x000d 00013 (/home/xzl/work/golang-1.22/golang-1.22/test/codegen/slices.go:410)	FUNCDATA	$1, gclocals·J5F+7Qw7O7ve2QcWC7DpeQ==(SB)
	0x000d 00013 (/home/xzl/work/golang-1.22/golang-1.22/test/codegen/slices.go:410)	FUNCDATA	$5, command-line-arguments.SliceWithSubtractBound.arginfo1(SB)
	0x000d 00013 (/home/xzl/work/golang-1.22/golang-1.22/test/codegen/slices.go:410)	FUNCDATA	$6, command-line-arguments.SliceWithSubtractBound.argliveinfo(SB)
	0x000d 00013 (/home/xzl/work/golang-1.22/golang-1.22/test/codegen/slices.go:410)	PCDATA	$3, $1
	0x000d 00013 (/home/xzl/work/golang-1.22/golang-1.22/test/codegen/slices.go:412)	LEAQ	-3(DI), DX
	0x0011 00017 (/home/xzl/work/golang-1.22/golang-1.22/test/codegen/slices.go:412)	NEGQ	DX
	0x0014 00020 (/home/xzl/work/golang-1.22/golang-1.22/test/codegen/slices.go:412)	CMPQ	BX, DX
	0x0017 00023 (/home/xzl/work/golang-1.22/golang-1.22/test/codegen/slices.go:412)	JCS	67
	0x0019 00025 (/home/xzl/work/golang-1.22/golang-1.22/test/codegen/slices.go:412)	LEAQ	(DI)(CX*1), CX
	0x001d 00029 (/home/xzl/work/golang-1.22/golang-1.22/test/codegen/slices.go:412)	LEAQ	-3(CX), CX
	0x0021 00033 (/home/xzl/work/golang-1.22/golang-1.22/test/codegen/slices.go:412)	LEAQ	(DI)(BX*1), BX
	0x0025 00037 (/home/xzl/work/golang-1.22/golang-1.22/test/codegen/slices.go:412)	LEAQ	-3(BX), BX
	0x0029 00041 (/home/xzl/work/golang-1.22/golang-1.22/test/codegen/slices.go:412)	MOVQ	CX, SI
	0x002c 00044 (/home/xzl/work/golang-1.22/golang-1.22/test/codegen/slices.go:412)	NEGQ	SI
	0x002f 00047 (/home/xzl/work/golang-1.22/golang-1.22/test/codegen/slices.go:412)	SHLQ	$3, DX
	0x0033 00051 (/home/xzl/work/golang-1.22/golang-1.22/test/codegen/slices.go:412)	SARQ	$63, SI
	0x0037 00055 (/home/xzl/work/golang-1.22/golang-1.22/test/codegen/slices.go:412)	ANDQ	SI, DX
	0x003a 00058 (/home/xzl/work/golang-1.22/golang-1.22/test/codegen/slices.go:412)	ADDQ	DX, AX
	0x003d 00061 (/home/xzl/work/golang-1.22/golang-1.22/test/codegen/slices.go:412)	ADDQ	$16, SP
	0x0041 00065 (/home/xzl/work/golang-1.22/golang-1.22/test/codegen/slices.go:412)	POPQ	BP
	0x0042 00066 (/home/xzl/work/golang-1.22/golang-1.22/test/codegen/slices.go:412)	RET
	0x0043 00067 (/home/xzl/work/golang-1.22/golang-1.22/test/codegen/slices.go:412)	MOVQ	DX, AX
	0x0046 00070 (/home/xzl/work/golang-1.22/golang-1.22/test/codegen/slices.go:412)	MOVQ	BX, CX
	0x0049 00073 (/home/xzl/work/golang-1.22/golang-1.22/test/codegen/slices.go:412)	PCDATA	$1, $1
	0x0049 00073 (/home/xzl/work/golang-1.22/golang-1.22/test/codegen/slices.go:412)	CALL	runtime.panicSliceB(SB)
	0x004e 00078 (/home/xzl/work/golang-1.22/golang-1.22/test/codegen/slices.go:412)	XCHGL	AX, AX
	0x0000 55 48 89 e5 48 83 ec 10 48 89 44 24 20 48 8d 57  UH..H...H.D$ H.W
	0x0010 fd 48 f7 da 48 39 d3 72 2a 48 8d 0c 0f 48 8d 49  .H..H9.r*H...H.I
	0x0020 fd 48 8d 1c 1f 48 8d 5b fd 48 89 ce 48 f7 de 48  .H...H.[.H..H..H
	0x0030 c1 e2 03 48 c1 fe 3f 48 21 f2 48 01 d0 48 83 c4  ...H..?H!.H..H..
	0x0040 10 5d c3 48 89 d0 48 89 d9 e8 00 00 00 00 90     .].H..H........
	rel 74+4 t=R_CALL runtime.panicSliceB<1>+0
command-line-arguments.Slice1<1> STEXT size=81 args=0x10 locals=0x8 funcid=0x0 align=0x0
	0x0000 00000 (/home/xzl/work/golang-1.22/golang-1.22/test/codegen/slices.go:419)	TEXT	command-line-arguments.Slice1(SB), ABIInternal, $8-16
	0x0000 00000 (/home/xzl/work/golang-1.22/golang-1.22/test/codegen/slices.go:419)	CMPQ	SP, 16(R14)
	0x0004 00004 (/home/xzl/work/golang-1.22/golang-1.22/test/codegen/slices.go:419)	PCDATA	$0, $-2
	0x0004 00004 (/home/xzl/work/golang-1.22/golang-1.22/test/codegen/slices.go:419)	JLS	53
	0x0006 00006 (/home/xzl/work/golang-1.22/golang-1.22/test/codegen/slices.go:419)	PCDATA	$0, $-1
	0x0006 00006 (/home/xzl/work/golang-1.22/golang-1.22/test/codegen/slices.go:419)	PUSHQ	BP
	0x0007 00007 (/home/xzl/work/golang-1.22/golang-1.22/test/codegen/slices.go:419)	MOVQ	SP, BP
	0x000a 00010 (/home/xzl/work/golang-1.22/golang-1.22/test/codegen/slices.go:419)	FUNCDATA	$0, gclocals·wgcWObbY2HYnK2SU/U22lA==(SB)
	0x000a 00010 (/home/xzl/work/golang-1.22/golang-1.22/test/codegen/slices.go:419)	FUNCDATA	$1, gclocals·J5F+7Qw7O7ve2QcWC7DpeQ==(SB)
	0x000a 00010 (/home/xzl/work/golang-1.22/golang-1.22/test/codegen/slices.go:419)	FUNCDATA	$5, command-line-arguments.Slice1.arginfo1(SB)
	0x000a 00010 (/home/xzl/work/golang-1.22/golang-1.22/test/codegen/slices.go:419)	FUNCDATA	$6, command-line-arguments.Slice1.argliveinfo(SB)
	0x000a 00010 (/home/xzl/work/golang-1.22/golang-1.22/test/codegen/slices.go:419)	PCDATA	$3, $1
	0x000a 00010 (/home/xzl/work/golang-1.22/golang-1.22/test/codegen/slices.go:421)	TESTQ	BX, BX
	0x000d 00013 (/home/xzl/work/golang-1.22/golang-1.22/test/codegen/slices.go:421)	JLT	47
	0x000f 00015 (/home/xzl/work/golang-1.22/golang-1.22/test/codegen/slices.go:421)	MOVQ	AX, DX
	0x0012 00018 (/home/xzl/work/golang-1.22/golang-1.22/test/codegen/slices.go:421)	NEGQ	DX
	0x0015 00021 (/home/xzl/work/golang-1.22/golang-1.22/test/codegen/slices.go:421)	CMPQ	BX, DX
	0x0018 00024 (/home/xzl/work/golang-1.22/golang-1.22/test/codegen/slices.go:421)	JHI	32
	0x001a 00026 (/home/xzl/work/golang-1.22/golang-1.22/test/codegen/slices.go:421)	MOVQ	BX, CX
	0x001d 00029 (/home/xzl/work/golang-1.22/golang-1.22/test/codegen/slices.go:421)	POPQ	BP
	0x001e 00030 (/home/xzl/work/golang-1.22/golang-1.22/test/codegen/slices.go:421)	RET
	0x001f 00031 (/home/xzl/work/golang-1.22/golang-1.22/test/codegen/slices.go:421)	NOP
	0x0020 00032 (/home/xzl/work/golang-1.22/golang-1.22/test/codegen/slices.go:421)	TESTQ	AX, AX
	0x0023 00035 (/home/xzl/work/golang-1.22/golang-1.22/test/codegen/slices.go:421)	JEQ	42
	0x0025 00037 (/home/xzl/work/golang-1.22/golang-1.22/test/codegen/slices.go:421)	PCDATA	$1, $1
	0x0025 00037 (/home/xzl/work/golang-1.22/golang-1.22/test/codegen/slices.go:421)	CALL	runtime.panicunsafeslicelen(SB)
	0x002a 00042 (/home/xzl/work/golang-1.22/golang-1.22/test/codegen/slices.go:421)	CALL	runtime.panicunsafeslicenilptr(SB)
	0x002f 00047 (/home/xzl/work/golang-1.22/golang-1.22/test/codegen/slices.go:421)	CALL	runtime.panicunsafeslicelen(SB)
	0x0034 00052 (/home/xzl/work/golang-1.22/golang-1.22/test/codegen/slices.go:421)	XCHGL	AX, AX
	0x0035 00053 (/home/xzl/work/golang-1.22/golang-1.22/test/codegen/slices.go:421)	NOP
	0x0035 00053 (/home/xzl/work/golang-1.22/golang-1.22/test/codegen/slices.go:419)	PCDATA	$1, $-1
	0x0035 00053 (/home/xzl/work/golang-1.22/golang-1.22/test/codegen/slices.go:419)	PCDATA	$0, $-2
	0x0035 00053 (/home/xzl/work/golang-1.22/golang-1.22/test/codegen/slices.go:419)	MOVQ	AX, 8(SP)
	0x003a 00058 (/home/xzl/work/golang-1.22/golang-1.22/test/codegen/slices.go:419)	MOVQ	BX, 16(SP)
	0x003f 00063 (/home/xzl/work/golang-1.22/golang-1.22/test/codegen/slices.go:419)	NOP
	0x0040 00064 (/home/xzl/work/golang-1.22/golang-1.22/test/codegen/slices.go:419)	CALL	runtime.morestack_noctxt(SB)
	0x0045 00069 (/home/xzl/work/golang-1.22/golang-1.22/test/codegen/slices.go:419)	PCDATA	$0, $-1
	0x0045 00069 (/home/xzl/work/golang-1.22/golang-1.22/test/codegen/slices.go:419)	MOVQ	8(SP), AX
	0x004a 00074 (/home/xzl/work/golang-1.22/golang-1.22/test/codegen/slices.go:419)	MOVQ	16(SP), BX
	0x004f 00079 (/home/xzl/work/golang-1.22/golang-1.22/test/codegen/slices.go:419)	JMP	0
	0x0000 49 3b 66 10 76 2f 55 48 89 e5 48 85 db 7c 20 48  I;f.v/UH..H..| H
	0x0010 89 c2 48 f7 da 48 39 d3 77 06 48 89 d9 5d c3 90  ..H..H9.w.H..]..
	0x0020 48 85 c0 74 05 e8 00 00 00 00 e8 00 00 00 00 e8  H..t............
	0x0030 00 00 00 00 90 48 89 44 24 08 48 89 5c 24 10 90  .....H.D$.H.\$..
	0x0040 e8 00 00 00 00 48 8b 44 24 08 48 8b 5c 24 10 eb  .....H.D$.H.\$..
	0x0050 af                                               .
	rel 38+4 t=R_CALL runtime.panicunsafeslicelen<1>+0
	rel 43+4 t=R_CALL runtime.panicunsafeslicenilptr<1>+0
	rel 48+4 t=R_CALL runtime.panicunsafeslicelen<1>+0
	rel 65+4 t=R_CALL runtime.morestack_noctxt<0>+0
command-line-arguments.Slice0<1> STEXT size=70 args=0x10 locals=0x8 funcid=0x0 align=0x0
	0x0000 00000 (/home/xzl/work/golang-1.22/golang-1.22/test/codegen/slices.go:423)	TEXT	command-line-arguments.Slice0(SB), ABIInternal, $8-16
	0x0000 00000 (/home/xzl/work/golang-1.22/golang-1.22/test/codegen/slices.go:423)	CMPQ	SP, 16(R14)
	0x0004 00004 (/home/xzl/work/golang-1.22/golang-1.22/test/codegen/slices.go:423)	PCDATA	$0, $-2
	0x0004 00004 (/home/xzl/work/golang-1.22/golang-1.22/test/codegen/slices.go:423)	JLS	43
	0x0006 00006 (/home/xzl/work/golang-1.22/golang-1.22/test/codegen/slices.go:423)	PCDATA	$0, $-1
	0x0006 00006 (/home/xzl/work/golang-1.22/golang-1.22/test/codegen/slices.go:423)	PUSHQ	BP
	0x0007 00007 (/home/xzl/work/golang-1.22/golang-1.22/test/codegen/slices.go:423)	MOVQ	SP, BP
	0x000a 00010 (/home/xzl/work/golang-1.22/golang-1.22/test/codegen/slices.go:423)	FUNCDATA	$0, gclocals·wgcWObbY2HYnK2SU/U22lA==(SB)
	0x000a 00010 (/home/xzl/work/golang-1.22/golang-1.22/test/codegen/slices.go:423)	FUNCDATA	$1, gclocals·J5F+7Qw7O7ve2QcWC7DpeQ==(SB)
	0x000a 00010 (/home/xzl/work/golang-1.22/golang-1.22/test/codegen/slices.go:423)	FUNCDATA	$5, command-line-arguments.Slice0.arginfo1(SB)
	0x000a 00010 (/home/xzl/work/golang-1.22/golang-1.22/test/codegen/slices.go:423)	FUNCDATA	$6, command-line-arguments.Slice0.argliveinfo(SB)
	0x000a 00010 (/home/xzl/work/golang-1.22/golang-1.22/test/codegen/slices.go:423)	PCDATA	$3, $1
	0x000a 00010 (/home/xzl/work/golang-1.22/golang-1.22/test/codegen/slices.go:425)	TESTQ	BX, BX
	0x000d 00013 (/home/xzl/work/golang-1.22/golang-1.22/test/codegen/slices.go:425)	JLT	37
	0x000f 00015 (/home/xzl/work/golang-1.22/golang-1.22/test/codegen/slices.go:425)	TESTQ	AX, AX
	0x0012 00018 (/home/xzl/work/golang-1.22/golang-1.22/test/codegen/slices.go:425)	JNE	25
	0x0014 00020 (/home/xzl/work/golang-1.22/golang-1.22/test/codegen/slices.go:425)	TESTQ	BX, BX
	0x0017 00023 (/home/xzl/work/golang-1.22/golang-1.22/test/codegen/slices.go:425)	JGT	30
	0x0019 00025 (/home/xzl/work/golang-1.22/golang-1.22/test/codegen/slices.go:425)	MOVQ	BX, CX
	0x001c 00028 (/home/xzl/work/golang-1.22/golang-1.22/test/codegen/slices.go:425)	POPQ	BP
	0x001d 00029 (/home/xzl/work/golang-1.22/golang-1.22/test/codegen/slices.go:425)	RET
	0x001e 00030 (/home/xzl/work/golang-1.22/golang-1.22/test/codegen/slices.go:425)	PCDATA	$1, $1
	0x001e 00030 (/home/xzl/work/golang-1.22/golang-1.22/test/codegen/slices.go:425)	NOP
	0x0020 00032 (/home/xzl/work/golang-1.22/golang-1.22/test/codegen/slices.go:425)	CALL	runtime.panicunsafeslicenilptr(SB)
	0x0025 00037 (/home/xzl/work/golang-1.22/golang-1.22/test/codegen/slices.go:425)	CALL	runtime.panicunsafeslicelen(SB)
	0x002a 00042 (/home/xzl/work/golang-1.22/golang-1.22/test/codegen/slices.go:425)	XCHGL	AX, AX
	0x002b 00043 (/home/xzl/work/golang-1.22/golang-1.22/test/codegen/slices.go:425)	NOP
	0x002b 00043 (/home/xzl/work/golang-1.22/golang-1.22/test/codegen/slices.go:423)	PCDATA	$1, $-1
	0x002b 00043 (/home/xzl/work/golang-1.22/golang-1.22/test/codegen/slices.go:423)	PCDATA	$0, $-2
	0x002b 00043 (/home/xzl/work/golang-1.22/golang-1.22/test/codegen/slices.go:423)	MOVQ	AX, 8(SP)
	0x0030 00048 (/home/xzl/work/golang-1.22/golang-1.22/test/codegen/slices.go:423)	MOVQ	BX, 16(SP)
	0x0035 00053 (/home/xzl/work/golang-1.22/golang-1.22/test/codegen/slices.go:423)	CALL	runtime.morestack_noctxt(SB)
	0x003a 00058 (/home/xzl/work/golang-1.22/golang-1.22/test/codegen/slices.go:423)	PCDATA	$0, $-1
	0x003a 00058 (/home/xzl/work/golang-1.22/golang-1.22/test/codegen/slices.go:423)	MOVQ	8(SP), AX
	0x003f 00063 (/home/xzl/work/golang-1.22/golang-1.22/test/codegen/slices.go:423)	MOVQ	16(SP), BX
	0x0044 00068 (/home/xzl/work/golang-1.22/golang-1.22/test/codegen/slices.go:423)	JMP	0
	0x0000 49 3b 66 10 76 25 55 48 89 e5 48 85 db 7c 16 48  I;f.v%UH..H..|.H
	0x0010 85 c0 75 05 48 85 db 7f 05 48 89 d9 5d c3 66 90  ..u.H....H..].f.
	0x0020 e8 00 00 00 00 e8 00 00 00 00 90 48 89 44 24 08  ...........H.D$.
	0x0030 48 89 5c 24 10 e8 00 00 00 00 48 8b 44 24 08 48  H.\$......H.D$.H
	0x0040 8b 5c 24 10 eb ba                                .\$...
	rel 33+4 t=R_CALL runtime.panicunsafeslicenilptr<1>+0
	rel 38+4 t=R_CALL runtime.panicunsafeslicelen<1>+0
	rel 54+4 t=R_CALL runtime.morestack_noctxt<0>+0
command-line-arguments.SliceMakeCopyNoOptNoCopy.func1<1> STEXT nosplit size=1 args=0x30 locals=0x0 funcid=0x0 align=0x0
	0x0000 00000 (/home/xzl/work/golang-1.22/golang-1.22/test/codegen/slices.go:250)	TEXT	command-line-arguments.SliceMakeCopyNoOptNoCopy.func1(SB), NOSPLIT|NOFRAME|ABIInternal, $0-48
	0x0000 00000 (/home/xzl/work/golang-1.22/golang-1.22/test/codegen/slices.go:250)	FUNCDATA	$0, gclocals·e2OAQw7RTI8D9/LnocWHCg==(SB)
	0x0000 00000 (/home/xzl/work/golang-1.22/golang-1.22/test/codegen/slices.go:250)	FUNCDATA	$1, gclocals·g2BeySu+wFnoycgXfElmcg==(SB)
	0x0000 00000 (/home/xzl/work/golang-1.22/golang-1.22/test/codegen/slices.go:250)	FUNCDATA	$5, command-line-arguments.SliceMakeCopyNoOptNoCopy.func1.arginfo1(SB)
	0x0000 00000 (/home/xzl/work/golang-1.22/golang-1.22/test/codegen/slices.go:250)	FUNCDATA	$6, command-line-arguments.SliceMakeCopyNoOptNoCopy.func1.argliveinfo(SB)
	0x0000 00000 (/home/xzl/work/golang-1.22/golang-1.22/test/codegen/slices.go:250)	PCDATA	$3, $1
	0x0000 00000 (/home/xzl/work/golang-1.22/golang-1.22/test/codegen/slices.go:250)	RET
	0x0000 c3                                               .
go:cuinfo.producer.command-line-arguments<0> SDWARFCUINFO dupok size=0
	0x0000 72 65 67 61 62 69                                regabi
go:cuinfo.packagename.command-line-arguments<0> SDWARFCUINFO dupok size=0
	0x0000 63 6f 64 65 67 65 6e                             codegen
go:info.command-line-arguments.SliceMakeCopyNoOptNoCopy.func1$abstract<0> SDWARFABSFCN dupok size=76
	0x0000 05 63 6f 6d 6d 61 6e 64 2d 6c 69 6e 65 2d 61 72  .command-line-ar
	0x0010 67 75 6d 65 6e 74 73 2e 53 6c 69 63 65 4d 61 6b  guments.SliceMak
	0x0020 65 43 6f 70 79 4e 6f 4f 70 74 4e 6f 43 6f 70 79  eCopyNoOptNoCopy
	0x0030 2e 66 75 6e 63 31 00 01 fa 01 01 13 78 00 00 00  .func1......x...
	0x0040 00 00 00 13 79 00 00 00 00 00 00 00              ....y.......
	rel 63+4 t=R_DWARFSECREF go:info.[]*int<0>+0
	rel 71+4 t=R_DWARFSECREF go:info.[]*int<0>+0
runtime.memequal64·f<0> SRODATA dupok size=8
	0x0000 00 00 00 00 00 00 00 00                          ........
	rel 0+8 t=R_ADDR runtime.memequal64<1>+0
runtime.gcbits.0100000000000000<0> SRODATA dupok size=8
	0x0000 01 00 00 00 00 00 00 00                          ........
type:.namedata.*[]*int-<0> SRODATA dupok size=9
	0x0000 00 07 2a 5b 5d 2a 69 6e 74                       ..*[]*int
type:*[]*int<0> SRODATA dupok size=56
	0x0000 08 00 00 00 00 00 00 00 08 00 00 00 00 00 00 00  ................
	0x0010 17 6e c2 9a 08 08 08 36 00 00 00 00 00 00 00 00  .n.....6........
	0x0020 00 00 00 00 00 00 00 00 00 00 00 00 00 00 00 00  ................
	0x0030 00 00 00 00 00 00 00 00                          ........
	rel 24+8 t=R_ADDR runtime.memequal64·f<0>+0
	rel 32+8 t=R_ADDR runtime.gcbits.0100000000000000<0>+0
	rel 40+4 t=R_ADDROFF type:.namedata.*[]*int-<0>+0
	rel 48+8 t=R_ADDR type:[]*int<0>+0
type:[]*int<0> SRODATA dupok size=56
	0x0000 18 00 00 00 00 00 00 00 08 00 00 00 00 00 00 00  ................
	0x0010 a8 3c ab 4b 02 08 08 17 00 00 00 00 00 00 00 00  .<.K............
	0x0020 00 00 00 00 00 00 00 00 00 00 00 00 00 00 00 00  ................
	0x0030 00 00 00 00 00 00 00 00                          ........
	rel 32+8 t=R_ADDR runtime.gcbits.0100000000000000<0>+0
	rel 40+4 t=R_ADDROFF type:.namedata.*[]*int-<0>+0
	rel 44+4 t=RelocType(-32763) type:*[]*int<0>+0
	rel 48+8 t=R_ADDR type:*int<0>+0
type:.namedata.*[][]*int-<0> SRODATA dupok size=11
	0x0000 00 09 2a 5b 5d 5b 5d 2a 69 6e 74                 ..*[][]*int
type:*[][]*int<0> SRODATA dupok size=56
	0x0000 08 00 00 00 00 00 00 00 08 00 00 00 00 00 00 00  ................
	0x0010 36 2f f4 d9 08 08 08 36 00 00 00 00 00 00 00 00  6/.....6........
	0x0020 00 00 00 00 00 00 00 00 00 00 00 00 00 00 00 00  ................
	0x0030 00 00 00 00 00 00 00 00                          ........
	rel 24+8 t=R_ADDR runtime.memequal64·f<0>+0
	rel 32+8 t=R_ADDR runtime.gcbits.0100000000000000<0>+0
	rel 40+4 t=R_ADDROFF type:.namedata.*[][]*int-<0>+0
	rel 48+8 t=R_ADDR type:[][]*int<0>+0
type:[][]*int<0> SRODATA dupok size=56
	0x0000 18 00 00 00 00 00 00 00 08 00 00 00 00 00 00 00  ................
	0x0010 fd af 5a 8a 02 08 08 17 00 00 00 00 00 00 00 00  ..Z.............
	0x0020 00 00 00 00 00 00 00 00 00 00 00 00 00 00 00 00  ................
	0x0030 00 00 00 00 00 00 00 00                          ........
	rel 32+8 t=R_ADDR runtime.gcbits.0100000000000000<0>+0
	rel 40+4 t=R_ADDROFF type:.namedata.*[][]*int-<0>+0
	rel 44+4 t=RelocType(-32763) type:*[][]*int<0>+0
	rel 48+8 t=R_ADDR type:[]*int<0>+0
runtime.memequal0·f<0> SRODATA dupok size=8
	0x0000 00 00 00 00 00 00 00 00                          ........
	rel 0+8 t=R_ADDR runtime.memequal0<1>+0
type:.namedata.*struct {}-<0> SRODATA dupok size=12
	0x0000 00 0a 2a 73 74 72 75 63 74 20 7b 7d              ..*struct {}
type:*struct {}<0> SRODATA dupok size=56
	0x0000 08 00 00 00 00 00 00 00 08 00 00 00 00 00 00 00  ................
	0x0010 69 29 f0 fb 08 08 08 36 00 00 00 00 00 00 00 00  i).....6........
	0x0020 00 00 00 00 00 00 00 00 00 00 00 00 00 00 00 00  ................
	0x0030 00 00 00 00 00 00 00 00                          ........
	rel 24+8 t=R_ADDR runtime.memequal64·f<0>+0
	rel 32+8 t=R_ADDR runtime.gcbits.0100000000000000<0>+0
	rel 40+4 t=R_ADDROFF type:.namedata.*struct {}-<0>+0
	rel 48+8 t=R_ADDR type:struct {}<0>+0
runtime.gcbits.<0> SRODATA dupok size=0
type:struct {}<0> SRODATA dupok size=80
	0x0000 00 00 00 00 00 00 00 00 00 00 00 00 00 00 00 00  ................
	0x0010 56 1e 04 e5 0a 01 01 19 00 00 00 00 00 00 00 00  V...............
	0x0020 00 00 00 00 00 00 00 00 00 00 00 00 00 00 00 00  ................
	0x0030 00 00 00 00 00 00 00 00 00 00 00 00 00 00 00 00  ................
	0x0040 00 00 00 00 00 00 00 00 00 00 00 00 00 00 00 00  ................
	rel 24+8 t=R_ADDR runtime.memequal0·f<0>+0
	rel 32+8 t=R_ADDR runtime.gcbits.<0>+0
	rel 40+4 t=R_ADDROFF type:.namedata.*struct {}-<0>+0
	rel 44+4 t=RelocType(-32763) type:*struct {}<0>+0
	rel 56+8 t=R_ADDR type:struct {}<0>+80
command-line-arguments..stmp_0<0> SRODATA static size=288
	0x0000 2a 00 00 00 00 00 00 00 2a 00 00 00 00 00 00 00  *.......*.......
	0x0010 2a 00 00 00 00 00 00 00 2a 00 00 00 00 00 00 00  *.......*.......
	0x0020 2a 00 00 00 00 00 00 00 2a 00 00 00 00 00 00 00  *.......*.......
	0x0030 2a 00 00 00 00 00 00 00 2a 00 00 00 00 00 00 00  *.......*.......
	0x0040 2a 00 00 00 00 00 00 00 2a 00 00 00 00 00 00 00  *.......*.......
	0x0050 2a 00 00 00 00 00 00 00 2a 00 00 00 00 00 00 00  *.......*.......
	0x0060 2a 00 00 00 00 00 00 00 2a 00 00 00 00 00 00 00  *.......*.......
	0x0070 2a 00 00 00 00 00 00 00 2a 00 00 00 00 00 00 00  *.......*.......
	0x0080 2a 00 00 00 00 00 00 00 2a 00 00 00 00 00 00 00  *.......*.......
	0x0090 2a 00 00 00 00 00 00 00 2a 00 00 00 00 00 00 00  *.......*.......
	0x00a0 2a 00 00 00 00 00 00 00 2a 00 00 00 00 00 00 00  *.......*.......
	0x00b0 2a 00 00 00 00 00 00 00 2a 00 00 00 00 00 00 00  *.......*.......
	0x00c0 2a 00 00 00 00 00 00 00 2a 00 00 00 00 00 00 00  *.......*.......
	0x00d0 2a 00 00 00 00 00 00 00 2a 00 00 00 00 00 00 00  *.......*.......
	0x00e0 2a 00 00 00 00 00 00 00 2a 00 00 00 00 00 00 00  *.......*.......
	0x00f0 2a 00 00 00 00 00 00 00 2a 00 00 00 00 00 00 00  *.......*.......
	0x0100 2a 00 00 00 00 00 00 00 2a 00 00 00 00 00 00 00  *.......*.......
	0x0110 2a 00 00 00 00 00 00 00 2a 00 00 00 00 00 00 00  *.......*.......
type:.eqfunc288<0> SRODATA dupok size=16
	0x0000 00 00 00 00 00 00 00 00 20 01 00 00 00 00 00 00  ........ .......
	rel 0+8 t=R_ADDR runtime.memequal_varlen<1>+0
type:.namedata.*[36]int-<0> SRODATA dupok size=10
	0x0000 00 08 2a 5b 33 36 5d 69 6e 74                    ..*[36]int
type:*[36]int<0> SRODATA dupok size=56
	0x0000 08 00 00 00 00 00 00 00 08 00 00 00 00 00 00 00  ................
	0x0010 cc 6d 32 c1 08 08 08 36 00 00 00 00 00 00 00 00  .m2....6........
	0x0020 00 00 00 00 00 00 00 00 00 00 00 00 00 00 00 00  ................
	0x0030 00 00 00 00 00 00 00 00                          ........
	rel 24+8 t=R_ADDR runtime.memequal64·f<0>+0
	rel 32+8 t=R_ADDR runtime.gcbits.0100000000000000<0>+0
	rel 40+4 t=R_ADDROFF type:.namedata.*[36]int-<0>+0
	rel 48+8 t=R_ADDR type:[36]int<0>+0
type:[36]int<0> SRODATA dupok size=72
	0x0000 20 01 00 00 00 00 00 00 00 00 00 00 00 00 00 00   ...............
	0x0010 02 c4 04 10 0a 08 08 11 00 00 00 00 00 00 00 00  ................
	0x0020 00 00 00 00 00 00 00 00 00 00 00 00 00 00 00 00  ................
	0x0030 00 00 00 00 00 00 00 00 00 00 00 00 00 00 00 00  ................
	0x0040 24 00 00 00 00 00 00 00                          $.......
	rel 24+8 t=R_ADDR type:.eqfunc288<0>+0
	rel 32+8 t=R_ADDR runtime.gcbits.<0>+0
	rel 40+4 t=R_ADDROFF type:.namedata.*[36]int-<0>+0
	rel 44+4 t=RelocType(-32763) type:*[36]int<0>+0
	rel 48+8 t=R_ADDR type:int<0>+0
	rel 56+8 t=R_ADDR type:[]int<0>+0
type:.namedata.*[1][]*int-<0> SRODATA dupok size=12
	0x0000 00 0a 2a 5b 31 5d 5b 5d 2a 69 6e 74              ..*[1][]*int
type:*[1][]*int<0> SRODATA dupok size=56
	0x0000 08 00 00 00 00 00 00 00 08 00 00 00 00 00 00 00  ................
	0x0010 a2 d1 a8 f6 08 08 08 36 00 00 00 00 00 00 00 00  .......6........
	0x0020 00 00 00 00 00 00 00 00 00 00 00 00 00 00 00 00  ................
	0x0030 00 00 00 00 00 00 00 00                          ........
	rel 24+8 t=R_ADDR runtime.memequal64·f<0>+0
	rel 32+8 t=R_ADDR runtime.gcbits.0100000000000000<0>+0
	rel 40+4 t=R_ADDROFF type:.namedata.*[1][]*int-<0>+0
	rel 48+8 t=R_ADDR type:[1][]*int<0>+0
type:[1][]*int<0> SRODATA dupok size=72
	0x0000 18 00 00 00 00 00 00 00 08 00 00 00 00 00 00 00  ................
	0x0010 b6 a3 fb 22 02 08 08 11 00 00 00 00 00 00 00 00  ..."............
	0x0020 00 00 00 00 00 00 00 00 00 00 00 00 00 00 00 00  ................
	0x0030 00 00 00 00 00 00 00 00 00 00 00 00 00 00 00 00  ................
	0x0040 01 00 00 00 00 00 00 00                          ........
	rel 32+8 t=R_ADDR runtime.gcbits.0100000000000000<0>+0
	rel 40+4 t=R_ADDROFF type:.namedata.*[1][]*int-<0>+0
	rel 44+4 t=RelocType(-32763) type:*[1][]*int<0>+0
	rel 48+8 t=R_ADDR type:[]*int<0>+0
	rel 56+8 t=R_ADDR type:[][]*int<0>+0
type:.namedata.*[1]int-<0> SRODATA dupok size=9
	0x0000 00 07 2a 5b 31 5d 69 6e 74                       ..*[1]int
type:*[1]int<0> SRODATA dupok size=56
	0x0000 08 00 00 00 00 00 00 00 08 00 00 00 00 00 00 00  ................
	0x0010 9d b4 3c 06 08 08 08 36 00 00 00 00 00 00 00 00  ..<....6........
	0x0020 00 00 00 00 00 00 00 00 00 00 00 00 00 00 00 00  ................
	0x0030 00 00 00 00 00 00 00 00                          ........
	rel 24+8 t=R_ADDR runtime.memequal64·f<0>+0
	rel 32+8 t=R_ADDR runtime.gcbits.0100000000000000<0>+0
	rel 40+4 t=R_ADDROFF type:.namedata.*[1]int-<0>+0
	rel 48+8 t=R_ADDR type:[1]int<0>+0
type:[1]int<0> SRODATA dupok size=72
	0x0000 08 00 00 00 00 00 00 00 00 00 00 00 00 00 00 00  ................
	0x0010 38 e0 64 87 0a 08 08 11 00 00 00 00 00 00 00 00  8.d.............
	0x0020 00 00 00 00 00 00 00 00 00 00 00 00 00 00 00 00  ................
	0x0030 00 00 00 00 00 00 00 00 00 00 00 00 00 00 00 00  ................
	0x0040 01 00 00 00 00 00 00 00                          ........
	rel 24+8 t=R_ADDR runtime.memequal64·f<0>+0
	rel 32+8 t=R_ADDR runtime.gcbits.<0>+0
	rel 40+4 t=R_ADDROFF type:.namedata.*[1]int-<0>+0
	rel 44+4 t=RelocType(-32763) type:*[1]int<0>+0
	rel 48+8 t=R_ADDR type:int<0>+0
	rel 56+8 t=R_ADDR type:[]int<0>+0
type:.eqfunc32<0> SRODATA dupok size=16
	0x0000 00 00 00 00 00 00 00 00 20 00 00 00 00 00 00 00  ........ .......
	rel 0+8 t=R_ADDR runtime.memequal_varlen<1>+0
type:.namedata.*[4]*int-<0> SRODATA dupok size=10
	0x0000 00 08 2a 5b 34 5d 2a 69 6e 74                    ..*[4]*int
type:*[4]*int<0> SRODATA dupok size=56
	0x0000 08 00 00 00 00 00 00 00 08 00 00 00 00 00 00 00  ................
	0x0010 50 72 b9 f3 08 08 08 36 00 00 00 00 00 00 00 00  Pr.....6........
	0x0020 00 00 00 00 00 00 00 00 00 00 00 00 00 00 00 00  ................
	0x0030 00 00 00 00 00 00 00 00                          ........
	rel 24+8 t=R_ADDR runtime.memequal64·f<0>+0
	rel 32+8 t=R_ADDR runtime.gcbits.0100000000000000<0>+0
	rel 40+4 t=R_ADDROFF type:.namedata.*[4]*int-<0>+0
	rel 48+8 t=R_ADDR type:[4]*int<0>+0
runtime.gcbits.0f00000000000000<0> SRODATA dupok size=8
	0x0000 0f 00 00 00 00 00 00 00                          ........
type:[4]*int<0> SRODATA dupok size=72
	0x0000 20 00 00 00 00 00 00 00 20 00 00 00 00 00 00 00   ....... .......
	0x0010 4d 7a 9c 9f 0a 08 08 11 00 00 00 00 00 00 00 00  Mz..............
	0x0020 00 00 00 00 00 00 00 00 00 00 00 00 00 00 00 00  ................
	0x0030 00 00 00 00 00 00 00 00 00 00 00 00 00 00 00 00  ................
	0x0040 04 00 00 00 00 00 00 00                          ........
	rel 24+8 t=R_ADDR type:.eqfunc32<0>+0
	rel 32+8 t=R_ADDR runtime.gcbits.0f00000000000000<0>+0
	rel 40+4 t=R_ADDROFF type:.namedata.*[4]*int-<0>+0
	rel 44+4 t=RelocType(-32763) type:*[4]*int<0>+0
	rel 48+8 t=R_ADDR type:*int<0>+0
	rel 56+8 t=R_ADDR type:[]*int<0>+0
type:.eqfunc40<0> SRODATA dupok size=16
	0x0000 00 00 00 00 00 00 00 00 28 00 00 00 00 00 00 00  ........(.......
	rel 0+8 t=R_ADDR runtime.memequal_varlen<1>+0
type:.namedata.*[5]int-<0> SRODATA dupok size=9
	0x0000 00 07 2a 5b 35 5d 69 6e 74                       ..*[5]int
type:*[5]int<0> SRODATA dupok size=56
	0x0000 08 00 00 00 00 00 00 00 08 00 00 00 00 00 00 00  ................
	0x0010 d2 90 a4 99 08 08 08 36 00 00 00 00 00 00 00 00  .......6........
	0x0020 00 00 00 00 00 00 00 00 00 00 00 00 00 00 00 00  ................
	0x0030 00 00 00 00 00 00 00 00                          ........
	rel 24+8 t=R_ADDR runtime.memequal64·f<0>+0
	rel 32+8 t=R_ADDR runtime.gcbits.0100000000000000<0>+0
	rel 40+4 t=R_ADDROFF type:.namedata.*[5]int-<0>+0
	rel 48+8 t=R_ADDR type:[5]int<0>+0
type:[5]int<0> SRODATA dupok size=72
	0x0000 28 00 00 00 00 00 00 00 00 00 00 00 00 00 00 00  (...............
	0x0010 82 ad 93 3d 0a 08 08 11 00 00 00 00 00 00 00 00  ...=............
	0x0020 00 00 00 00 00 00 00 00 00 00 00 00 00 00 00 00  ................
	0x0030 00 00 00 00 00 00 00 00 00 00 00 00 00 00 00 00  ................
	0x0040 05 00 00 00 00 00 00 00                          ........
	rel 24+8 t=R_ADDR type:.eqfunc40<0>+0
	rel 32+8 t=R_ADDR runtime.gcbits.<0>+0
	rel 40+4 t=R_ADDROFF type:.namedata.*[5]int-<0>+0
	rel 44+4 t=RelocType(-32763) type:*[5]int<0>+0
	rel 48+8 t=R_ADDR type:int<0>+0
	rel 56+8 t=R_ADDR type:[]int<0>+0
type:.namedata.*[]struct {}-<0> SRODATA dupok size=14
	0x0000 00 0c 2a 5b 5d 73 74 72 75 63 74 20 7b 7d        ..*[]struct {}
type:*[]struct {}<0> SRODATA dupok size=56
	0x0000 08 00 00 00 00 00 00 00 08 00 00 00 00 00 00 00  ................
	0x0010 31 0f 50 2c 08 08 08 36 00 00 00 00 00 00 00 00  1.P,...6........
	0x0020 00 00 00 00 00 00 00 00 00 00 00 00 00 00 00 00  ................
	0x0030 00 00 00 00 00 00 00 00                          ........
	rel 24+8 t=R_ADDR runtime.memequal64·f<0>+0
	rel 32+8 t=R_ADDR runtime.gcbits.0100000000000000<0>+0
	rel 40+4 t=R_ADDROFF type:.namedata.*[]struct {}-<0>+0
	rel 48+8 t=R_ADDR type:[]struct {}<0>+0
type:[]struct {}<0> SRODATA dupok size=56
	0x0000 18 00 00 00 00 00 00 00 08 00 00 00 00 00 00 00  ................
	0x0010 43 1c 43 55 02 08 08 17 00 00 00 00 00 00 00 00  C.CU............
	0x0020 00 00 00 00 00 00 00 00 00 00 00 00 00 00 00 00  ................
	0x0030 00 00 00 00 00 00 00 00                          ........
	rel 32+8 t=R_ADDR runtime.gcbits.0100000000000000<0>+0
	rel 40+4 t=R_ADDROFF type:.namedata.*[]struct {}-<0>+0
	rel 44+4 t=RelocType(-32763) type:*[]struct {}<0>+0
	rel 48+8 t=R_ADDR type:struct {}<0>+0
command-line-arguments.SliceMakeCopyNoOptNoCopy.func1·f<0> SRODATA dupok size=8
	0x0000 00 00 00 00 00 00 00 00                          ........
	rel 0+8 t=R_ADDR command-line-arguments.SliceMakeCopyNoOptNoCopy.func1<1>+0
gclocals·wgcWObbY2HYnK2SU/U22lA==<0> SRODATA dupok size=10
	0x0000 02 00 00 00 01 00 00 00 01 00                    ..........
gclocals·J5F+7Qw7O7ve2QcWC7DpeQ==<0> SRODATA dupok size=8
	0x0000 02 00 00 00 00 00 00 00                          ........
command-line-arguments.SliceClear.arginfo1<0> SRODATA static dupok size=9
	0x0000 fe 00 08 08 08 10 08 fd ff                       .........
command-line-arguments.SliceClear.argliveinfo<0> SRODATA static dupok size=2
	0x0000 00 00                                            ..
command-line-arguments.SliceClearPointers.arginfo1<0> SRODATA static dupok size=9
	0x0000 fe 00 08 08 08 10 08 fd ff                       .........
command-line-arguments.SliceClearPointers.argliveinfo<0> SRODATA static dupok size=2
	0x0000 00 00                                            ..
command-line-arguments.SliceExtensionConst.arginfo1<0> SRODATA static dupok size=9
	0x0000 fe 00 08 08 08 10 08 fd ff                       .........
command-line-arguments.SliceExtensionConst.argliveinfo<0> SRODATA static dupok size=2
	0x0000 00 00                                            ..
command-line-arguments.SliceExtensionConstInt64.arginfo1<0> SRODATA static dupok size=9
	0x0000 fe 00 08 08 08 10 08 fd ff                       .........
command-line-arguments.SliceExtensionConstInt64.argliveinfo<0> SRODATA static dupok size=2
	0x0000 00 00                                            ..
command-line-arguments.SliceExtensionConstUint64.arginfo1<0> SRODATA static dupok size=9
	0x0000 fe 00 08 08 08 10 08 fd ff                       .........
command-line-arguments.SliceExtensionConstUint64.argliveinfo<0> SRODATA static dupok size=2
	0x0000 00 00                                            ..
command-line-arguments.SliceExtensionConstUint.arginfo1<0> SRODATA static dupok size=9
	0x0000 fe 00 08 08 08 10 08 fd ff                       .........
command-line-arguments.SliceExtensionConstUint.argliveinfo<0> SRODATA static dupok size=2
	0x0000 00 00                                            ..
command-line-arguments.SliceExtensionConst512.arginfo1<0> SRODATA static dupok size=9
	0x0000 fe 00 08 08 08 10 08 fd ff                       .........
command-line-arguments.SliceExtensionConst512.argliveinfo<0> SRODATA static dupok size=2
	0x0000 00 00                                            ..
command-line-arguments.SliceExtensionPointer.arginfo1<0> SRODATA static dupok size=11
	0x0000 fe 00 08 08 08 10 08 fd 18 08 ff                 ...........
command-line-arguments.SliceExtensionPointer.argliveinfo<0> SRODATA static dupok size=3
	0x0000 00 00 05                                         ...
gclocals·ZzMiPAiVBg7DJ6dh/CjSag==<0> SRODATA dupok size=11
	0x0000 03 00 00 00 01 00 00 00 01 00 00                 ...........
gclocals·dGrMWTWIngKGfVYjHi0adA==<0> SRODATA dupok size=11
	0x0000 03 00 00 00 01 00 00 00 00 00 01                 ...........
command-line-arguments.SliceExtensionVar.arginfo1<0> SRODATA static dupok size=11
	0x0000 fe 00 08 08 08 10 08 fd 18 08 ff                 ...........
command-line-arguments.SliceExtensionVar.argliveinfo<0> SRODATA static dupok size=3
	0x0000 00 00 08                                         ...
command-line-arguments.SliceExtensionVarInt64.arginfo1<0> SRODATA static dupok size=11
	0x0000 fe 00 08 08 08 10 08 fd 18 08 ff                 ...........
command-line-arguments.SliceExtensionVarInt64.argliveinfo<0> SRODATA static dupok size=3
	0x0000 00 00 08                                         ...
command-line-arguments.SliceExtensionVarUint64.arginfo1<0> SRODATA static dupok size=11
	0x0000 fe 00 08 08 08 10 08 fd 18 08 ff                 ...........
command-line-arguments.SliceExtensionVarUint64.argliveinfo<0> SRODATA static dupok size=3
	0x0000 00 00 08                                         ...
command-line-arguments.SliceExtensionVarUint.arginfo1<0> SRODATA static dupok size=11
	0x0000 fe 00 08 08 08 10 08 fd 18 08 ff                 ...........
command-line-arguments.SliceExtensionVarUint.argliveinfo<0> SRODATA static dupok size=3
	0x0000 00 00 08                                         ...
command-line-arguments.SliceExtensionInt64.arginfo1<0> SRODATA static dupok size=11
	0x0000 fe 00 08 08 08 10 08 fd 18 08 ff                 ...........
command-line-arguments.SliceExtensionInt64.argliveinfo<0> SRODATA static dupok size=3
	0x0000 00 00 08                                         ...
gclocals·m/6RUmNv6NBhMUL8eleFFA==<0> SRODATA dupok size=11
	0x0000 03 00 00 00 01 00 00 00 01 01 00                 ...........
gclocals·VtCL4RdUwCqwXEPeyJllRA==<0> SRODATA dupok size=11
	0x0000 03 00 00 00 01 00 00 00 00 01 00                 ...........
command-line-arguments.SliceMakeCopyLen.arginfo1<0> SRODATA static dupok size=9
	0x0000 fe 00 08 08 08 10 08 fd ff                       .........
command-line-arguments.SliceMakeCopyLen.argliveinfo<0> SRODATA static dupok size=3
	0x0000 00 00 03                                         ...
command-line-arguments.SliceMakeCopyLenPtr.arginfo1<0> SRODATA static dupok size=9
	0x0000 fe 00 08 08 08 10 08 fd ff                       .........
command-line-arguments.SliceMakeCopyLenPtr.argliveinfo<0> SRODATA static dupok size=3
	0x0000 00 00 02                                         ...
command-line-arguments.SliceMakeCopyConst.arginfo1<0> SRODATA static dupok size=9
	0x0000 fe 00 08 08 08 10 08 fd ff                       .........
command-line-arguments.SliceMakeCopyConst.argliveinfo<0> SRODATA static dupok size=2
	0x0000 00 00                                            ..
command-line-arguments.SliceMakeCopyConstPtr.arginfo1<0> SRODATA static dupok size=9
	0x0000 fe 00 08 08 08 10 08 fd ff                       .........
command-line-arguments.SliceMakeCopyConstPtr.argliveinfo<0> SRODATA static dupok size=2
	0x0000 00 00                                            ..
gclocals·bb+LSCCik3x40Cn8eFqL9w==<0> SRODATA dupok size=12
	0x0000 04 00 00 00 01 00 00 00 01 01 00 00              ............
gclocals·7RWRkQP0PDegNGEQbN7Bcw==<0> SRODATA dupok size=12
	0x0000 04 00 00 00 03 00 00 00 00 01 01 00              ............
command-line-arguments.SliceMakeCopyNoOptNoDeref.stkobj<0> SRODATA static size=24
	0x0000 01 00 00 00 00 00 00 00 e8 ff ff ff 18 00 00 00  ................
	0x0010 08 00 00 00 00 00 00 00                          ........
	rel 20+4 t=R_ADDROFF runtime.gcbits.0100000000000000<0>+0
command-line-arguments.SliceMakeCopyNoOptNoDeref.arginfo1<0> SRODATA static dupok size=9
	0x0000 fe 00 08 08 08 10 08 fd ff                       .........
command-line-arguments.SliceMakeCopyNoOptNoDeref.argliveinfo<0> SRODATA static dupok size=3
	0x0000 00 00 03                                         ...
command-line-arguments.SliceMakeCopyNoOptNoVar.stkobj<0> SRODATA static size=24
	0x0000 01 00 00 00 00 00 00 00 e8 ff ff ff 18 00 00 00  ................
	0x0010 08 00 00 00 00 00 00 00                          ........
	rel 20+4 t=R_ADDROFF runtime.gcbits.0100000000000000<0>+0
command-line-arguments.SliceMakeCopyNoOptNoVar.arginfo1<0> SRODATA static dupok size=9
	0x0000 fe 00 08 08 08 10 08 fd ff                       .........
command-line-arguments.SliceMakeCopyNoOptNoVar.argliveinfo<0> SRODATA static dupok size=3
	0x0000 00 00 03                                         ...
command-line-arguments.SliceMakeCopyNoOptBlank.arginfo1<0> SRODATA static dupok size=9
	0x0000 fe 00 08 08 08 10 08 fd ff                       .........
command-line-arguments.SliceMakeCopyNoOptBlank.argliveinfo<0> SRODATA static dupok size=2
	0x0000 00 00                                            ..
command-line-arguments.SliceMakeCopyNoOptNoMake.arginfo1<0> SRODATA static dupok size=9
	0x0000 fe 00 08 08 08 10 08 fd ff                       .........
command-line-arguments.SliceMakeCopyNoOptNoMake.argliveinfo<0> SRODATA static dupok size=2
	0x0000 00 00                                            ..
gclocals·EXTrhv4b3ahawRWAszmcVw==<0> SRODATA dupok size=10
	0x0000 02 00 00 00 04 00 00 00 00 00                    ..........
command-line-arguments.SliceMakeCopyNoOptNoHeapAlloc.stkobj<0> SRODATA static size=24
	0x0000 01 00 00 00 00 00 00 00 e0 ff ff ff 20 00 00 00  ............ ...
	0x0010 20 00 00 00 00 00 00 00                           .......
	rel 20+4 t=R_ADDROFF runtime.gcbits.0f00000000000000<0>+0
command-line-arguments.SliceMakeCopyNoOptNoHeapAlloc.arginfo1<0> SRODATA static dupok size=9
	0x0000 fe 00 08 08 08 10 08 fd ff                       .........
command-line-arguments.SliceMakeCopyNoOptNoHeapAlloc.argliveinfo<0> SRODATA static dupok size=2
	0x0000 00 00                                            ..
command-line-arguments.SliceMakeCopyNoOptNoCap.arginfo1<0> SRODATA static dupok size=9
	0x0000 fe 00 08 08 08 10 08 fd ff                       .........
command-line-arguments.SliceMakeCopyNoOptNoCap.argliveinfo<0> SRODATA static dupok size=3
	0x0000 00 00 03                                         ...
gclocals·Plqv2ff52JtlYaDd2Rwxbg==<0> SRODATA dupok size=9
	0x0000 01 00 00 00 01 00 00 00 00                       .........
gclocals·g2BeySu+wFnoycgXfElmcg==<0> SRODATA dupok size=8
	0x0000 01 00 00 00 00 00 00 00                          ........
command-line-arguments.SliceMakeCopyNoOptNoCopy.arginfo1<0> SRODATA static dupok size=9
	0x0000 fe 00 08 08 08 10 08 fd ff                       .........
command-line-arguments.SliceMakeCopyNoOptNoCopy.argliveinfo<0> SRODATA static dupok size=2
	0x0000 00 00                                            ..
command-line-arguments.SliceMakeCopyNoOptWrongOrder.arginfo1<0> SRODATA static dupok size=9
	0x0000 fe 00 08 08 08 10 08 fd ff                       .........
command-line-arguments.SliceMakeCopyNoOptWrongOrder.argliveinfo<0> SRODATA static dupok size=3
	0x0000 00 00 03                                         ...
gclocals·wBS4fiKwwXBG0Q3AcyXF/Q==<0> SRODATA dupok size=10
	0x0000 02 00 00 00 01 00 00 00 00 00                    ..........
gclocals·CnDyI2HjYXFz19SsOj98tw==<0> SRODATA dupok size=10
	0x0000 02 00 00 00 01 00 00 00 00 01                    ..........
command-line-arguments.SliceMakeCopyNoOptWrongAssign.arginfo1<0> SRODATA static dupok size=9
	0x0000 fe 00 08 08 08 10 08 fd ff                       .........
command-line-arguments.SliceMakeCopyNoOptWrongAssign.argliveinfo<0> SRODATA static dupok size=2
	0x0000 00 00                                            ..
command-line-arguments.SliceMakeCopyNoOptCopyLength.arginfo1<0> SRODATA static dupok size=9
	0x0000 fe 00 08 08 08 10 08 fd ff                       .........
command-line-arguments.SliceMakeCopyNoOptCopyLength.argliveinfo<0> SRODATA static dupok size=3
	0x0000 00 00 03                                         ...
command-line-arguments.SliceMakeCopyNoOptSelfCopy.arginfo1<0> SRODATA static dupok size=9
	0x0000 fe 00 08 08 08 10 08 fd ff                       .........
command-line-arguments.SliceMakeCopyNoOptSelfCopy.argliveinfo<0> SRODATA static dupok size=2
	0x0000 00 00                                            ..
command-line-arguments.SliceMakeCopyNoOptTargetReference.arginfo1<0> SRODATA static dupok size=9
	0x0000 fe 00 08 08 08 10 08 fd ff                       .........
command-line-arguments.SliceMakeCopyNoOptTargetReference.argliveinfo<0> SRODATA static dupok size=3
	0x0000 00 00 05                                         ...
command-line-arguments.SliceMakeCopyNoOptCap.arginfo1<0> SRODATA static dupok size=9
	0x0000 fe 00 08 08 08 10 08 fd ff                       .........
command-line-arguments.SliceMakeCopyNoOptCap.argliveinfo<0> SRODATA static dupok size=3
	0x0000 00 00 03                                         ...
command-line-arguments.SliceMakeCopyNoMemmoveDifferentLen.arginfo1<0> SRODATA static dupok size=9
	0x0000 fe 00 08 08 08 10 08 fd ff                       .........
command-line-arguments.SliceMakeCopyNoMemmoveDifferentLen.argliveinfo<0> SRODATA static dupok size=2
	0x0000 00 00                                            ..
command-line-arguments.SliceNilCheck.arginfo1<0> SRODATA static dupok size=9
	0x0000 fe 00 08 08 08 10 08 fd ff                       .........
command-line-arguments.SliceNilCheck.argliveinfo<0> SRODATA static dupok size=2
	0x0000 00 00                                            ..
command-line-arguments.SliceWithConstCompare.arginfo1<0> SRODATA static dupok size=11
	0x0000 fe 00 08 08 08 10 08 fd 18 08 ff                 ...........
command-line-arguments.SliceWithConstCompare.argliveinfo<0> SRODATA static dupok size=2
	0x0000 00 00                                            ..
command-line-arguments.SliceWithSubtractBound.arginfo1<0> SRODATA static dupok size=11
	0x0000 fe 00 08 08 08 10 08 fd 18 08 ff                 ...........
command-line-arguments.SliceWithSubtractBound.argliveinfo<0> SRODATA static dupok size=2
	0x0000 00 00                                            ..
command-line-arguments.Slice1.arginfo1<0> SRODATA static dupok size=5
	0x0000 00 08 08 08 ff                                   .....
command-line-arguments.Slice1.argliveinfo<0> SRODATA static dupok size=2
	0x0000 00 00                                            ..
command-line-arguments.Slice0.arginfo1<0> SRODATA static dupok size=5
	0x0000 00 08 08 08 ff                                   .....
command-line-arguments.Slice0.argliveinfo<0> SRODATA static dupok size=2
	0x0000 00 00                                            ..
gclocals·e2OAQw7RTI8D9/LnocWHCg==<0> SRODATA dupok size=9
	0x0000 01 00 00 00 04 00 00 00 00                       .........
command-line-arguments.SliceMakeCopyNoOptNoCopy.func1.arginfo1<0> SRODATA static dupok size=17
	0x0000 fe 00 08 08 08 10 08 fd fe 18 08 20 08 28 08 fd  ........... .(..
	0x0010 ff                                               .
command-line-arguments.SliceMakeCopyNoOptNoCopy.func1.argliveinfo<0> SRODATA static dupok size=2
	0x0000 00 00                                            ..
aux for command-line-arguments.SliceClear<0> SDWARFLOC size=173
	0x0000 ff ff ff ff ff ff ff ff 00 00 00 00 00 00 00 00  ................
	0x0010 00 00 00 00 00 00 00 00 2a 00 00 00 00 00 00 00  ........*.......
	0x0020 09 00 50 93 08 53 93 08 52 93 08 2a 00 00 00 00  ..P..S..R..*....
	0x0030 00 00 00 31 00 00 00 00 00 00 00 0b 00 9c 93 08  ...1............
	0x0040 91 08 93 08 91 10 93 08 31 00 00 00 00 00 00 00  ........1.......
	0x0050 36 00 00 00 00 00 00 00 0b 00 9c 93 08 91 08 93  6...............
	0x0060 08 91 10 93 08 36 00 00 00 00 00 00 00 45 00 00  .....6.......E..
	0x0070 00 00 00 00 00 0b 00 9c 93 08 91 08 93 08 91 10  ................
	0x0080 93 08 45 00 00 00 00 00 00 00 70 00 00 00 00 00  ..E.......p.....
	0x0090 00 00 09 00 50 93 08 53 93 08 52 93 08 00 00 00  ....P..S..R.....
	0x00a0 00 00 00 00 00 00 00 00 00 00 00 00 00           .............
	rel 8+8 t=R_ADDR command-line-arguments.SliceClear<1>+0
aux for command-line-arguments.SliceClear<0> SDWARFLINES size=36
	0x0000 00 09 02 00 00 00 00 00 00 00 00 04 02 03 0f 14  ................
	0x0010 0a 73 06 37 06 44 06 2d 08 62 06 a5 03 7e 47 02  .s.7.D.-.b...~G.
	0x0020 25 00 01 01                                      %...
	rel 3+8 t=R_ADDR command-line-arguments.SliceClear<1>+0
aux for command-line-arguments.SliceClear<0> SDWARFFCN size=85
	0x0000 03 63 6f 6d 6d 61 6e 64 2d 6c 69 6e 65 2d 61 72  .command-line-ar
	0x0010 67 75 6d 65 6e 74 73 2e 53 6c 69 63 65 43 6c 65  guments.SliceCle
	0x0020 61 72 00 00 00 00 00 00 00 00 00 00 00 00 00 00  ar..............
	0x0030 00 00 00 01 9c 02 00 00 00 15 01 12 73 00 00 15  ............s...
	0x0040 00 00 00 00 00 00 00 00 11 7e 72 30 00 01 15 00  .........~r0....
	0x0050 00 00 00 00 00                                   .....
	rel 0+0 t=R_USETYPE type:[]int<0>+0
	rel 35+8 t=R_ADDR command-line-arguments.SliceClear<1>+0
	rel 43+8 t=R_ADDR command-line-arguments.SliceClear<1>+112
	rel 64+4 t=R_DWARFSECREF go:info.[]int<0>+0
	rel 68+4 t=R_DWARFSECREF <0>+0
	rel 79+4 t=R_DWARFSECREF go:info.[]int<0>+0
aux for command-line-arguments.SliceClearPointers<0> SDWARFLOC size=173
	0x0000 ff ff ff ff ff ff ff ff 00 00 00 00 00 00 00 00  ................
	0x0010 00 00 00 00 00 00 00 00 2a 00 00 00 00 00 00 00  ........*.......
	0x0020 09 00 50 93 08 53 93 08 52 93 08 2a 00 00 00 00  ..P..S..R..*....
	0x0030 00 00 00 31 00 00 00 00 00 00 00 0b 00 9c 93 08  ...1............
	0x0040 91 08 93 08 91 10 93 08 31 00 00 00 00 00 00 00  ........1.......
	0x0050 36 00 00 00 00 00 00 00 0b 00 9c 93 08 91 08 93  6...............
	0x0060 08 91 10 93 08 36 00 00 00 00 00 00 00 45 00 00  .....6.......E..
	0x0070 00 00 00 00 00 0b 00 9c 93 08 91 08 93 08 91 10  ................
	0x0080 93 08 45 00 00 00 00 00 00 00 70 00 00 00 00 00  ..E.......p.....
	0x0090 00 00 09 00 50 93 08 53 93 08 52 93 08 00 00 00  ....P..S..R.....
	0x00a0 00 00 00 00 00 00 00 00 00 00 00 00 00           .............
	rel 8+8 t=R_ADDR command-line-arguments.SliceClearPointers<1>+0
aux for command-line-arguments.SliceClearPointers<0> SDWARFLINES size=36
	0x0000 00 09 02 00 00 00 00 00 00 00 00 04 02 03 18 14  ................
	0x0010 0a 73 06 37 06 44 06 2d 08 62 06 a5 03 7e 47 02  .s.7.D.-.b...~G.
	0x0020 25 00 01 01                                      %...
	rel 3+8 t=R_ADDR command-line-arguments.SliceClearPointers<1>+0
aux for command-line-arguments.SliceClearPointers<0> SDWARFFCN size=93
	0x0000 03 63 6f 6d 6d 61 6e 64 2d 6c 69 6e 65 2d 61 72  .command-line-ar
	0x0010 67 75 6d 65 6e 74 73 2e 53 6c 69 63 65 43 6c 65  guments.SliceCle
	0x0020 61 72 50 6f 69 6e 74 65 72 73 00 00 00 00 00 00  arPointers......
	0x0030 00 00 00 00 00 00 00 00 00 00 00 01 9c 02 00 00  ................
	0x0040 00 1e 01 12 73 00 00 1e 00 00 00 00 00 00 00 00  ....s...........
	0x0050 11 7e 72 30 00 01 1e 00 00 00 00 00 00           .~r0.........
	rel 0+0 t=R_USETYPE type:[]*int<0>+0
	rel 43+8 t=R_ADDR command-line-arguments.SliceClearPointers<1>+0
	rel 51+8 t=R_ADDR command-line-arguments.SliceClearPointers<1>+112
	rel 72+4 t=R_DWARFSECREF go:info.[]*int<0>+0
	rel 76+4 t=R_DWARFSECREF <0>+0
	rel 87+4 t=R_DWARFSECREF go:info.[]*int<0>+0
aux for command-line-arguments.SliceExtensionConst<0> SDWARFLOC size=85
	0x0000 ff ff ff ff ff ff ff ff 00 00 00 00 00 00 00 00  ................
	0x0010 00 00 00 00 00 00 00 00 17 00 00 00 00 00 00 00  ................
	0x0020 09 00 50 93 08 53 93 08 52 93 08 17 00 00 00 00  ..P..S..R.......
	0x0030 00 00 00 2d 00 00 00 00 00 00 00 08 00 50 93 08  ...-.........P..
	0x0040 93 08 52 93 08 00 00 00 00 00 00 00 00 00 00 00  ..R.............
	0x0050 00 00 00 00 00                                   .....
	rel 8+8 t=R_ADDR command-line-arguments.SliceExtensionConst<1>+0
aux for command-line-arguments.SliceExtensionConst<0> SDWARFLINES size=39
	0x0000 00 09 02 00 00 00 00 00 00 00 00 04 02 03 27 14  ..............'.
	0x0010 0a 73 06 37 06 03 03 46 06 37 06 eb 06 37 06 03  .s.7...F.7...7..
	0x0020 7c c9 02 25 00 01 01                             |..%...
	rel 3+8 t=R_ADDR command-line-arguments.SliceExtensionConst<1>+0
aux for command-line-arguments.SliceExtensionConst<0> SDWARFFCN size=94
	0x0000 03 63 6f 6d 6d 61 6e 64 2d 6c 69 6e 65 2d 61 72  .command-line-ar
	0x0010 67 75 6d 65 6e 74 73 2e 53 6c 69 63 65 45 78 74  guments.SliceExt
	0x0020 65 6e 73 69 6f 6e 43 6f 6e 73 74 00 00 00 00 00  ensionConst.....
	0x0030 00 00 00 00 00 00 00 00 00 00 00 00 01 9c 02 00  ................
	0x0040 00 00 2d 01 12 73 00 00 2d 00 00 00 00 00 00 00  ..-..s..-.......
	0x0050 00 11 7e 72 30 00 01 2d 00 00 00 00 00 00        ..~r0..-......
	rel 0+0 t=R_USETYPE type:[]int<0>+0
	rel 44+8 t=R_ADDR command-line-arguments.SliceExtensionConst<1>+0
	rel 52+8 t=R_ADDR command-line-arguments.SliceExtensionConst<1>+105
	rel 73+4 t=R_DWARFSECREF go:info.[]int<0>+0
	rel 77+4 t=R_DWARFSECREF <0>+0
	rel 88+4 t=R_DWARFSECREF go:info.[]int<0>+0
aux for command-line-arguments.SliceExtensionConstInt64<0> SDWARFLOC size=85
	0x0000 ff ff ff ff ff ff ff ff 00 00 00 00 00 00 00 00  ................
	0x0010 00 00 00 00 00 00 00 00 17 00 00 00 00 00 00 00  ................
	0x0020 09 00 50 93 08 53 93 08 52 93 08 17 00 00 00 00  ..P..S..R.......
	0x0030 00 00 00 2d 00 00 00 00 00 00 00 08 00 50 93 08  ...-.........P..
	0x0040 93 08 52 93 08 00 00 00 00 00 00 00 00 00 00 00  ..R.............
	0x0050 00 00 00 00 00                                   .....
	rel 8+8 t=R_ADDR command-line-arguments.SliceExtensionConstInt64<1>+0
aux for command-line-arguments.SliceExtensionConstInt64<0> SDWARFLINES size=39
	0x0000 00 09 02 00 00 00 00 00 00 00 00 04 02 03 32 14  ..............2.
	0x0010 0a 73 06 37 06 03 03 46 06 37 06 eb 06 37 06 03  .s.7...F.7...7..
	0x0020 7c c9 02 25 00 01 01                             |..%...
	rel 3+8 t=R_ADDR command-line-arguments.SliceExtensionConstInt64<1>+0
aux for command-line-arguments.SliceExtensionConstInt64<0> SDWARFFCN size=99
	0x0000 03 63 6f 6d 6d 61 6e 64 2d 6c 69 6e 65 2d 61 72  .command-line-ar
	0x0010 67 75 6d 65 6e 74 73 2e 53 6c 69 63 65 45 78 74  guments.SliceExt
	0x0020 65 6e 73 69 6f 6e 43 6f 6e 73 74 49 6e 74 36 34  ensionConstInt64
	0x0030 00 00 00 00 00 00 00 00 00 00 00 00 00 00 00 00  ................
	0x0040 00 01 9c 02 00 00 00 38 01 12 73 00 00 38 00 00  .......8..s..8..
	0x0050 00 00 00 00 00 00 11 7e 72 30 00 01 38 00 00 00  .......~r0..8...
	0x0060 00 00 00                                         ...
	rel 0+0 t=R_USETYPE type:[]int<0>+0
	rel 49+8 t=R_ADDR command-line-arguments.SliceExtensionConstInt64<1>+0
	rel 57+8 t=R_ADDR command-line-arguments.SliceExtensionConstInt64<1>+105
	rel 78+4 t=R_DWARFSECREF go:info.[]int<0>+0
	rel 82+4 t=R_DWARFSECREF <0>+0
	rel 93+4 t=R_DWARFSECREF go:info.[]int<0>+0
aux for command-line-arguments.SliceExtensionConstUint64<0> SDWARFLOC size=85
	0x0000 ff ff ff ff ff ff ff ff 00 00 00 00 00 00 00 00  ................
	0x0010 00 00 00 00 00 00 00 00 17 00 00 00 00 00 00 00  ................
	0x0020 09 00 50 93 08 53 93 08 52 93 08 17 00 00 00 00  ..P..S..R.......
	0x0030 00 00 00 2d 00 00 00 00 00 00 00 08 00 50 93 08  ...-.........P..
	0x0040 93 08 52 93 08 00 00 00 00 00 00 00 00 00 00 00  ..R.............
	0x0050 00 00 00 00 00                                   .....
	rel 8+8 t=R_ADDR command-line-arguments.SliceExtensionConstUint64<1>+0
aux for command-line-arguments.SliceExtensionConstUint64<0> SDWARFLINES size=39
	0x0000 00 09 02 00 00 00 00 00 00 00 00 04 02 03 3d 14  ..............=.
	0x0010 0a 73 06 37 06 03 03 46 06 37 06 eb 06 37 06 03  .s.7...F.7...7..
	0x0020 7c c9 02 25 00 01 01                             |..%...
	rel 3+8 t=R_ADDR command-line-arguments.SliceExtensionConstUint64<1>+0
aux for command-line-arguments.SliceExtensionConstUint64<0> SDWARFFCN size=100
	0x0000 03 63 6f 6d 6d 61 6e 64 2d 6c 69 6e 65 2d 61 72  .command-line-ar
	0x0010 67 75 6d 65 6e 74 73 2e 53 6c 69 63 65 45 78 74  guments.SliceExt
	0x0020 65 6e 73 69 6f 6e 43 6f 6e 73 74 55 69 6e 74 36  ensionConstUint6
	0x0030 34 00 00 00 00 00 00 00 00 00 00 00 00 00 00 00  4...............
	0x0040 00 00 01 9c 02 00 00 00 43 01 12 73 00 00 43 00  ........C..s..C.
	0x0050 00 00 00 00 00 00 00 11 7e 72 30 00 01 43 00 00  ........~r0..C..
	0x0060 00 00 00 00                                      ....
	rel 0+0 t=R_USETYPE type:[]int<0>+0
	rel 50+8 t=R_ADDR command-line-arguments.SliceExtensionConstUint64<1>+0
	rel 58+8 t=R_ADDR command-line-arguments.SliceExtensionConstUint64<1>+105
	rel 79+4 t=R_DWARFSECREF go:info.[]int<0>+0
	rel 83+4 t=R_DWARFSECREF <0>+0
	rel 94+4 t=R_DWARFSECREF go:info.[]int<0>+0
aux for command-line-arguments.SliceExtensionConstUint<0> SDWARFLOC size=85
	0x0000 ff ff ff ff ff ff ff ff 00 00 00 00 00 00 00 00  ................
	0x0010 00 00 00 00 00 00 00 00 17 00 00 00 00 00 00 00  ................
	0x0020 09 00 50 93 08 53 93 08 52 93 08 17 00 00 00 00  ..P..S..R.......
	0x0030 00 00 00 2d 00 00 00 00 00 00 00 08 00 50 93 08  ...-.........P..
	0x0040 93 08 52 93 08 00 00 00 00 00 00 00 00 00 00 00  ..R.............
	0x0050 00 00 00 00 00                                   .....
	rel 8+8 t=R_ADDR command-line-arguments.SliceExtensionConstUint<1>+0
aux for command-line-arguments.SliceExtensionConstUint<0> SDWARFLINES size=40
	0x0000 00 09 02 00 00 00 00 00 00 00 00 04 02 03 c8 00  ................
	0x0010 14 0a 73 06 37 06 03 03 46 06 37 06 eb 06 37 06  ..s.7...F.7...7.
	0x0020 03 7c c9 02 25 00 01 01                          .|..%...
	rel 3+8 t=R_ADDR command-line-arguments.SliceExtensionConstUint<1>+0
aux for command-line-arguments.SliceExtensionConstUint<0> SDWARFFCN size=98
	0x0000 03 63 6f 6d 6d 61 6e 64 2d 6c 69 6e 65 2d 61 72  .command-line-ar
	0x0010 67 75 6d 65 6e 74 73 2e 53 6c 69 63 65 45 78 74  guments.SliceExt
	0x0020 65 6e 73 69 6f 6e 43 6f 6e 73 74 55 69 6e 74 00  ensionConstUint.
	0x0030 00 00 00 00 00 00 00 00 00 00 00 00 00 00 00 00  ................
	0x0040 01 9c 02 00 00 00 4e 01 12 73 00 00 4e 00 00 00  ......N..s..N...
	0x0050 00 00 00 00 00 11 7e 72 30 00 01 4e 00 00 00 00  ......~r0..N....
	0x0060 00 00                                            ..
	rel 0+0 t=R_USETYPE type:[]int<0>+0
	rel 48+8 t=R_ADDR command-line-arguments.SliceExtensionConstUint<1>+0
	rel 56+8 t=R_ADDR command-line-arguments.SliceExtensionConstUint<1>+105
	rel 77+4 t=R_DWARFSECREF go:info.[]int<0>+0
	rel 81+4 t=R_DWARFSECREF <0>+0
	rel 92+4 t=R_DWARFSECREF go:info.[]int<0>+0
aux for command-line-arguments.SliceExtensionConst512<0> SDWARFLOC size=85
	0x0000 ff ff ff ff ff ff ff ff 00 00 00 00 00 00 00 00  ................
	0x0010 00 00 00 00 00 00 00 00 1a 00 00 00 00 00 00 00  ................
	0x0020 09 00 50 93 08 53 93 08 52 93 08 1a 00 00 00 00  ..P..S..R.......
	0x0030 00 00 00 30 00 00 00 00 00 00 00 08 00 50 93 08  ...0.........P..
	0x0040 93 08 52 93 08 00 00 00 00 00 00 00 00 00 00 00  ..R.............
	0x0050 00 00 00 00 00                                   .....
	rel 8+8 t=R_ADDR command-line-arguments.SliceExtensionConst512<1>+0
aux for command-line-arguments.SliceExtensionConst512<0> SDWARFLINES size=37
	0x0000 00 09 02 00 00 00 00 00 00 00 00 04 02 03 d5 00  ................
	0x0010 14 0a 73 06 37 06 44 06 55 06 eb 06 37 06 08 7a  ..s.7.D.U...7..z
	0x0020 02 25 00 01 01                                   .%...
	rel 3+8 t=R_ADDR command-line-arguments.SliceExtensionConst512<1>+0
aux for command-line-arguments.SliceExtensionConst512<0> SDWARFFCN size=97
	0x0000 03 63 6f 6d 6d 61 6e 64 2d 6c 69 6e 65 2d 61 72  .command-line-ar
	0x0010 67 75 6d 65 6e 74 73 2e 53 6c 69 63 65 45 78 74  guments.SliceExt
	0x0020 65 6e 73 69 6f 6e 43 6f 6e 73 74 35 31 32 00 00  ensionConst512..
	0x0030 00 00 00 00 00 00 00 00 00 00 00 00 00 00 00 01  ................
	0x0040 9c 02 00 00 00 5b 01 12 73 00 00 5b 00 00 00 00  .....[..s..[....
	0x0050 00 00 00 00 11 7e 72 30 00 01 5b 00 00 00 00 00  .....~r0..[.....
	0x0060 00                                               .
	rel 0+0 t=R_USETYPE type:[]int<0>+0
	rel 47+8 t=R_ADDR command-line-arguments.SliceExtensionConst512<1>+0
	rel 55+8 t=R_ADDR command-line-arguments.SliceExtensionConst512<1>+124
	rel 76+4 t=R_DWARFSECREF go:info.[]int<0>+0
	rel 80+4 t=R_DWARFSECREF <0>+0
	rel 91+4 t=R_DWARFSECREF go:info.[]int<0>+0
aux for command-line-arguments.SliceExtensionPointer<0> SDWARFLOC size=245
	0x0000 ff ff ff ff ff ff ff ff 00 00 00 00 00 00 00 00  ................
	0x0010 00 00 00 00 00 00 00 00 38 00 00 00 00 00 00 00  ........8.......
	0x0020 09 00 50 93 08 53 93 08 52 93 08 38 00 00 00 00  ..P..S..R..8....
	0x0030 00 00 00 3f 00 00 00 00 00 00 00 0a 00 9c 93 08  ...?............
	0x0040 53 93 08 91 10 93 08 3f 00 00 00 00 00 00 00 42  S......?.......B
	0x0050 00 00 00 00 00 00 00 09 00 9c 93 08 93 08 91 10  ................
	0x0060 93 08 42 00 00 00 00 00 00 00 58 00 00 00 00 00  ..B.......X.....
	0x0070 00 00 09 00 9c 93 08 93 08 91 10 93 08 58 00 00  .............X..
	0x0080 00 00 00 00 00 5b 00 00 00 00 00 00 00 09 00 50  .....[.........P
	0x0090 93 08 53 93 08 52 93 08 5b 00 00 00 00 00 00 00  ..S..R..[.......
	0x00a0 67 00 00 00 00 00 00 00 08 00 50 93 08 93 08 52  g.........P....R
	0x00b0 93 08 00 00 00 00 00 00 00 00 00 00 00 00 00 00  ................
	0x00c0 00 00 ff ff ff ff ff ff ff ff 00 00 00 00 00 00  ................
	0x00d0 00 00 00 00 00 00 00 00 00 00 3c 00 00 00 00 00  ..........<.....
	0x00e0 00 00 01 00 55 00 00 00 00 00 00 00 00 00 00 00  ....U...........
	0x00f0 00 00 00 00 00                                   .....
	rel 8+8 t=R_ADDR command-line-arguments.SliceExtensionPointer<1>+0
	rel 202+8 t=R_ADDR command-line-arguments.SliceExtensionPointer<1>+0
aux for command-line-arguments.SliceExtensionPointer<0> SDWARFLINES size=41
	0x0000 00 09 02 00 00 00 00 00 00 00 00 04 02 03 db 00  ................
	0x0010 14 0a 73 06 37 06 46 06 2d 06 02 39 ff 06 4b 06  ..s.7.F.-..9..K.
	0x0020 41 03 7f 15 02 32 00 01 01                       A....2...
	rel 3+8 t=R_ADDR command-line-arguments.SliceExtensionPointer<1>+0
aux for command-line-arguments.SliceExtensionPointer<0> SDWARFFCN size=109
	0x0000 03 63 6f 6d 6d 61 6e 64 2d 6c 69 6e 65 2d 61 72  .command-line-ar
	0x0010 67 75 6d 65 6e 74 73 2e 53 6c 69 63 65 45 78 74  guments.SliceExt
	0x0020 65 6e 73 69 6f 6e 50 6f 69 6e 74 65 72 00 00 00  ensionPointer...
	0x0030 00 00 00 00 00 00 00 00 00 00 00 00 00 00 01 9c  ................
	0x0040 02 00 00 00 61 01 12 73 00 00 61 00 00 00 00 00  ....a..s..a.....
	0x0050 00 00 00 12 6c 00 00 61 00 00 00 00 00 00 00 00  ....l..a........
	0x0060 11 7e 72 30 00 01 61 00 00 00 00 00 00           .~r0..a......
	rel 0+0 t=R_USETYPE type:[]*int<0>+0
	rel 46+8 t=R_ADDR command-line-arguments.SliceExtensionPointer<1>+0
	rel 54+8 t=R_ADDR command-line-arguments.SliceExtensionPointer<1>+165
	rel 75+4 t=R_DWARFSECREF go:info.[]*int<0>+0
	rel 79+4 t=R_DWARFSECREF <0>+0
	rel 88+4 t=R_DWARFSECREF go:info.int<0>+0
	rel 92+4 t=R_DWARFSECREF <0>+194
	rel 103+4 t=R_DWARFSECREF go:info.[]*int<0>+0
aux for command-line-arguments.SliceExtensionVar<0> SDWARFLOC size=175
	0x0000 ff ff ff ff ff ff ff ff 00 00 00 00 00 00 00 00  ................
	0x0010 00 00 00 00 00 00 00 00 20 00 00 00 00 00 00 00  ........ .......
	0x0020 09 00 50 93 08 53 93 08 52 93 08 20 00 00 00 00  ..P..S..R.. ....
	0x0030 00 00 00 36 00 00 00 00 00 00 00 08 00 50 93 08  ...6.........P..
	0x0040 93 08 52 93 08 00 00 00 00 00 00 00 00 00 00 00  ..R.............
	0x0050 00 00 00 00 00 ff ff ff ff ff ff ff ff 00 00 00  ................
	0x0060 00 00 00 00 00 00 00 00 00 00 00 00 00 36 00 00  .............6..
	0x0070 00 00 00 00 00 01 00 55 36 00 00 00 00 00 00 00  .......U6.......
	0x0080 3b 00 00 00 00 00 00 00 02 00 91 18 3b 00 00 00  ;...........;...
	0x0090 00 00 00 00 5c 00 00 00 00 00 00 00 01 00 55 00  ....\.........U.
	0x00a0 00 00 00 00 00 00 00 00 00 00 00 00 00 00 00     ...............
	rel 8+8 t=R_ADDR command-line-arguments.SliceExtensionVar<1>+0
	rel 93+8 t=R_ADDR command-line-arguments.SliceExtensionVar<1>+0
aux for command-line-arguments.SliceExtensionVar<0> SDWARFLINES size=42
	0x0000 00 09 02 00 00 00 00 00 00 00 00 04 02 03 e3 00  ................
	0x0010 14 0a 73 06 37 06 46 06 2d 06 08 91 06 41 06 02  ..s.7.F.-....A..
	0x0020 1e ff 03 7f 15 02 32 00 01 01                    ......2...
	rel 3+8 t=R_ADDR command-line-arguments.SliceExtensionVar<1>+0
aux for command-line-arguments.SliceExtensionVar<0> SDWARFFCN size=105
	0x0000 03 63 6f 6d 6d 61 6e 64 2d 6c 69 6e 65 2d 61 72  .command-line-ar
	0x0010 67 75 6d 65 6e 74 73 2e 53 6c 69 63 65 45 78 74  guments.SliceExt
	0x0020 65 6e 73 69 6f 6e 56 61 72 00 00 00 00 00 00 00  ensionVar.......
	0x0030 00 00 00 00 00 00 00 00 00 00 01 9c 02 00 00 00  ................
	0x0040 69 01 12 73 00 00 69 00 00 00 00 00 00 00 00 12  i..s..i.........
	0x0050 6c 00 00 69 00 00 00 00 00 00 00 00 11 7e 72 30  l..i.........~r0
	0x0060 00 01 69 00 00 00 00 00 00                       ..i......
	rel 0+0 t=R_USETYPE type:*uint8<0>+0
	rel 0+0 t=R_USETYPE type:[]uint8<0>+0
	rel 42+8 t=R_ADDR command-line-arguments.SliceExtensionVar<1>+0
	rel 50+8 t=R_ADDR command-line-arguments.SliceExtensionVar<1>+169
	rel 71+4 t=R_DWARFSECREF go:info.[]uint8<0>+0
	rel 75+4 t=R_DWARFSECREF <0>+0
	rel 84+4 t=R_DWARFSECREF go:info.int<0>+0
	rel 88+4 t=R_DWARFSECREF <0>+85
	rel 99+4 t=R_DWARFSECREF go:info.[]uint8<0>+0
aux for command-line-arguments.SliceExtensionVarInt64<0> SDWARFLOC size=175
	0x0000 ff ff ff ff ff ff ff ff 00 00 00 00 00 00 00 00  ................
	0x0010 00 00 00 00 00 00 00 00 20 00 00 00 00 00 00 00  ........ .......
	0x0020 09 00 50 93 08 53 93 08 52 93 08 20 00 00 00 00  ..P..S..R.. ....
	0x0030 00 00 00 36 00 00 00 00 00 00 00 08 00 50 93 08  ...6.........P..
	0x0040 93 08 52 93 08 00 00 00 00 00 00 00 00 00 00 00  ..R.............
	0x0050 00 00 00 00 00 ff ff ff ff ff ff ff ff 00 00 00  ................
	0x0060 00 00 00 00 00 00 00 00 00 00 00 00 00 36 00 00  .............6..
	0x0070 00 00 00 00 00 01 00 55 36 00 00 00 00 00 00 00  .......U6.......
	0x0080 3b 00 00 00 00 00 00 00 02 00 91 18 3b 00 00 00  ;...........;...
	0x0090 00 00 00 00 5c 00 00 00 00 00 00 00 01 00 55 00  ....\.........U.
	0x00a0 00 00 00 00 00 00 00 00 00 00 00 00 00 00 00     ...............
	rel 8+8 t=R_ADDR command-line-arguments.SliceExtensionVarInt64<1>+0
	rel 93+8 t=R_ADDR command-line-arguments.SliceExtensionVarInt64<1>+0
aux for command-line-arguments.SliceExtensionVarInt64<0> SDWARFLINES size=40
	0x0000 00 09 02 00 00 00 00 00 00 00 00 04 02 03 eb 00  ................
	0x0010 14 0a 73 06 37 06 45 06 2d 06 08 91 06 41 06 02  ..s.7.E.-....A..
	0x0020 1e ff 15 02 32 00 01 01                          ....2...
	rel 3+8 t=R_ADDR command-line-arguments.SliceExtensionVarInt64<1>+0
aux for command-line-arguments.SliceExtensionVarInt64<0> SDWARFFCN size=110
	0x0000 03 63 6f 6d 6d 61 6e 64 2d 6c 69 6e 65 2d 61 72  .command-line-ar
	0x0010 67 75 6d 65 6e 74 73 2e 53 6c 69 63 65 45 78 74  guments.SliceExt
	0x0020 65 6e 73 69 6f 6e 56 61 72 49 6e 74 36 34 00 00  ensionVarInt64..
	0x0030 00 00 00 00 00 00 00 00 00 00 00 00 00 00 00 01  ................
	0x0040 9c 02 00 00 00 71 01 12 73 00 00 71 00 00 00 00  .....q..s..q....
	0x0050 00 00 00 00 12 6c 00 00 71 00 00 00 00 00 00 00  .....l..q.......
	0x0060 00 11 7e 72 30 00 01 71 00 00 00 00 00 00        ..~r0..q......
	rel 0+0 t=R_USETYPE type:*uint8<0>+0
	rel 0+0 t=R_USETYPE type:[]uint8<0>+0
	rel 0+0 t=R_USETYPE type:int<0>+0
	rel 47+8 t=R_ADDR command-line-arguments.SliceExtensionVarInt64<1>+0
	rel 55+8 t=R_ADDR command-line-arguments.SliceExtensionVarInt64<1>+169
	rel 76+4 t=R_DWARFSECREF go:info.[]uint8<0>+0
	rel 80+4 t=R_DWARFSECREF <0>+0
	rel 89+4 t=R_DWARFSECREF go:info.int64<0>+0
	rel 93+4 t=R_DWARFSECREF <0>+85
	rel 104+4 t=R_DWARFSECREF go:info.[]uint8<0>+0
aux for command-line-arguments.SliceExtensionVarUint64<0> SDWARFLOC size=175
	0x0000 ff ff ff ff ff ff ff ff 00 00 00 00 00 00 00 00  ................
	0x0010 00 00 00 00 00 00 00 00 20 00 00 00 00 00 00 00  ........ .......
	0x0020 09 00 50 93 08 53 93 08 52 93 08 20 00 00 00 00  ..P..S..R.. ....
	0x0030 00 00 00 36 00 00 00 00 00 00 00 08 00 50 93 08  ...6.........P..
	0x0040 93 08 52 93 08 00 00 00 00 00 00 00 00 00 00 00  ..R.............
	0x0050 00 00 00 00 00 ff ff ff ff ff ff ff ff 00 00 00  ................
	0x0060 00 00 00 00 00 00 00 00 00 00 00 00 00 36 00 00  .............6..
	0x0070 00 00 00 00 00 01 00 55 36 00 00 00 00 00 00 00  .......U6.......
	0x0080 3b 00 00 00 00 00 00 00 02 00 91 18 3b 00 00 00  ;...........;...
	0x0090 00 00 00 00 5c 00 00 00 00 00 00 00 01 00 55 00  ....\.........U.
	0x00a0 00 00 00 00 00 00 00 00 00 00 00 00 00 00 00     ...............
	rel 8+8 t=R_ADDR command-line-arguments.SliceExtensionVarUint64<1>+0
	rel 93+8 t=R_ADDR command-line-arguments.SliceExtensionVarUint64<1>+0
aux for command-line-arguments.SliceExtensionVarUint64<0> SDWARFLINES size=40
	0x0000 00 09 02 00 00 00 00 00 00 00 00 04 02 03 f2 00  ................
	0x0010 14 0a 73 06 37 06 45 06 2d 06 08 91 06 41 06 02  ..s.7.E.-....A..
	0x0020 1e ff 15 02 32 00 01 01                          ....2...
	rel 3+8 t=R_ADDR command-line-arguments.SliceExtensionVarUint64<1>+0
aux for command-line-arguments.SliceExtensionVarUint64<0> SDWARFFCN size=111
	0x0000 03 63 6f 6d 6d 61 6e 64 2d 6c 69 6e 65 2d 61 72  .command-line-ar
	0x0010 67 75 6d 65 6e 74 73 2e 53 6c 69 63 65 45 78 74  guments.SliceExt
	0x0020 65 6e 73 69 6f 6e 56 61 72 55 69 6e 74 36 34 00  ensionVarUint64.
	0x0030 00 00 00 00 00 00 00 00 00 00 00 00 00 00 00 00  ................
	0x0040 01 9c 02 00 00 00 78 01 12 73 00 00 78 00 00 00  ......x..s..x...
	0x0050 00 00 00 00 00 12 6c 00 00 78 00 00 00 00 00 00  ......l..x......
	0x0060 00 00 11 7e 72 30 00 01 78 00 00 00 00 00 00     ...~r0..x......
	rel 0+0 t=R_USETYPE type:*uint8<0>+0
	rel 0+0 t=R_USETYPE type:[]uint8<0>+0
	rel 0+0 t=R_USETYPE type:int<0>+0
	rel 48+8 t=R_ADDR command-line-arguments.SliceExtensionVarUint64<1>+0
	rel 56+8 t=R_ADDR command-line-arguments.SliceExtensionVarUint64<1>+169
	rel 77+4 t=R_DWARFSECREF go:info.[]uint8<0>+0
	rel 81+4 t=R_DWARFSECREF <0>+0
	rel 90+4 t=R_DWARFSECREF go:info.uint64<0>+0
	rel 94+4 t=R_DWARFSECREF <0>+85
	rel 105+4 t=R_DWARFSECREF go:info.[]uint8<0>+0
aux for command-line-arguments.SliceExtensionVarUint<0> SDWARFLOC size=175
	0x0000 ff ff ff ff ff ff ff ff 00 00 00 00 00 00 00 00  ................
	0x0010 00 00 00 00 00 00 00 00 20 00 00 00 00 00 00 00  ........ .......
	0x0020 09 00 50 93 08 53 93 08 52 93 08 20 00 00 00 00  ..P..S..R.. ....
	0x0030 00 00 00 36 00 00 00 00 00 00 00 08 00 50 93 08  ...6.........P..
	0x0040 93 08 52 93 08 00 00 00 00 00 00 00 00 00 00 00  ..R.............
	0x0050 00 00 00 00 00 ff ff ff ff ff ff ff ff 00 00 00  ................
	0x0060 00 00 00 00 00 00 00 00 00 00 00 00 00 36 00 00  .............6..
	0x0070 00 00 00 00 00 01 00 55 36 00 00 00 00 00 00 00  .......U6.......
	0x0080 3b 00 00 00 00 00 00 00 02 00 91 18 3b 00 00 00  ;...........;...
	0x0090 00 00 00 00 5c 00 00 00 00 00 00 00 01 00 55 00  ....\.........U.
	0x00a0 00 00 00 00 00 00 00 00 00 00 00 00 00 00 00     ...............
	rel 8+8 t=R_ADDR command-line-arguments.SliceExtensionVarUint<1>+0
	rel 93+8 t=R_ADDR command-line-arguments.SliceExtensionVarUint<1>+0
aux for command-line-arguments.SliceExtensionVarUint<0> SDWARFLINES size=40
	0x0000 00 09 02 00 00 00 00 00 00 00 00 04 02 03 f9 00  ................
	0x0010 14 0a 73 06 37 06 45 06 2d 06 08 91 06 41 06 02  ..s.7.E.-....A..
	0x0020 1e ff 15 02 32 00 01 01                          ....2...
	rel 3+8 t=R_ADDR command-line-arguments.SliceExtensionVarUint<1>+0
aux for command-line-arguments.SliceExtensionVarUint<0> SDWARFFCN size=109
	0x0000 03 63 6f 6d 6d 61 6e 64 2d 6c 69 6e 65 2d 61 72  .command-line-ar
	0x0010 67 75 6d 65 6e 74 73 2e 53 6c 69 63 65 45 78 74  guments.SliceExt
	0x0020 65 6e 73 69 6f 6e 56 61 72 55 69 6e 74 00 00 00  ensionVarUint...
	0x0030 00 00 00 00 00 00 00 00 00 00 00 00 00 00 01 9c  ................
	0x0040 02 00 00 00 7f 01 12 73 00 00 7f 00 00 00 00 00  .......s........
	0x0050 00 00 00 12 6c 00 00 7f 00 00 00 00 00 00 00 00  ....l...........
	0x0060 11 7e 72 30 00 01 7f 00 00 00 00 00 00           .~r0.........
	rel 0+0 t=R_USETYPE type:*uint8<0>+0
	rel 0+0 t=R_USETYPE type:[]uint8<0>+0
	rel 0+0 t=R_USETYPE type:int<0>+0
	rel 46+8 t=R_ADDR command-line-arguments.SliceExtensionVarUint<1>+0
	rel 54+8 t=R_ADDR command-line-arguments.SliceExtensionVarUint<1>+169
	rel 75+4 t=R_DWARFSECREF go:info.[]uint8<0>+0
	rel 79+4 t=R_DWARFSECREF <0>+0
	rel 88+4 t=R_DWARFSECREF go:info.uint<0>+0
	rel 92+4 t=R_DWARFSECREF <0>+85
	rel 103+4 t=R_DWARFSECREF go:info.[]uint8<0>+0
aux for command-line-arguments.SliceExtensionInt64<0> SDWARFLOC size=175
	0x0000 ff ff ff ff ff ff ff ff 00 00 00 00 00 00 00 00  ................
	0x0010 00 00 00 00 00 00 00 00 20 00 00 00 00 00 00 00  ........ .......
	0x0020 09 00 50 93 08 53 93 08 52 93 08 20 00 00 00 00  ..P..S..R.. ....
	0x0030 00 00 00 36 00 00 00 00 00 00 00 08 00 50 93 08  ...6.........P..
	0x0040 93 08 52 93 08 00 00 00 00 00 00 00 00 00 00 00  ..R.............
	0x0050 00 00 00 00 00 ff ff ff ff ff ff ff ff 00 00 00  ................
	0x0060 00 00 00 00 00 00 00 00 00 00 00 00 00 36 00 00  .............6..
	0x0070 00 00 00 00 00 01 00 55 36 00 00 00 00 00 00 00  .......U6.......
	0x0080 3b 00 00 00 00 00 00 00 02 00 91 18 3b 00 00 00  ;...........;...
	0x0090 00 00 00 00 55 00 00 00 00 00 00 00 01 00 55 00  ....U.........U.
	0x00a0 00 00 00 00 00 00 00 00 00 00 00 00 00 00 00     ...............
	rel 8+8 t=R_ADDR command-line-arguments.SliceExtensionInt64<1>+0
	rel 93+8 t=R_ADDR command-line-arguments.SliceExtensionInt64<1>+0
aux for command-line-arguments.SliceExtensionInt64<0> SDWARFLINES size=40
	0x0000 00 09 02 00 00 00 00 00 00 00 00 04 02 03 80 01  ................
	0x0010 14 0a 73 06 37 06 44 06 2d 06 08 91 06 41 06 02  ..s.7.D.-....A..
	0x0020 27 ff 16 02 32 00 01 01                          '...2...
	rel 3+8 t=R_ADDR command-line-arguments.SliceExtensionInt64<1>+0
aux for command-line-arguments.SliceExtensionInt64<0> SDWARFFCN size=113
	0x0000 03 63 6f 6d 6d 61 6e 64 2d 6c 69 6e 65 2d 61 72  .command-line-ar
	0x0010 67 75 6d 65 6e 74 73 2e 53 6c 69 63 65 45 78 74  guments.SliceExt
	0x0020 65 6e 73 69 6f 6e 49 6e 74 36 34 00 00 00 00 00  ensionInt64.....
	0x0030 00 00 00 00 00 00 00 00 00 00 00 00 01 9c 02 00  ................
	0x0040 00 00 86 01 01 12 73 00 00 86 01 00 00 00 00 00  ......s.........
	0x0050 00 00 00 12 6c 36 34 00 00 86 01 00 00 00 00 00  ....l64.........
	0x0060 00 00 00 11 7e 72 30 00 01 86 01 00 00 00 00 00  ....~r0.........
	0x0070 00                                               .
	rel 0+0 t=R_USETYPE type:*int<0>+0
	rel 0+0 t=R_USETYPE type:[]int<0>+0
	rel 0+0 t=R_USETYPE type:int<0>+0
	rel 44+8 t=R_ADDR command-line-arguments.SliceExtensionInt64<1>+0
	rel 52+8 t=R_ADDR command-line-arguments.SliceExtensionInt64<1>+178
	rel 75+4 t=R_DWARFSECREF go:info.[]int<0>+0
	rel 79+4 t=R_DWARFSECREF <0>+0
	rel 91+4 t=R_DWARFSECREF go:info.int64<0>+0
	rel 95+4 t=R_DWARFSECREF <0>+85
	rel 107+4 t=R_DWARFSECREF go:info.[]int<0>+0
aux for command-line-arguments.SliceMakeCopyLen<0> SDWARFLOC size=286
	0x0000 ff ff ff ff ff ff ff ff 00 00 00 00 00 00 00 00  ................
	0x0010 00 00 00 00 00 00 00 00 1c 00 00 00 00 00 00 00  ................
	0x0020 09 00 50 93 08 53 93 08 52 93 08 1c 00 00 00 00  ..P..S..R.......
	0x0030 00 00 00 23 00 00 00 00 00 00 00 0a 00 9c 93 08  ...#............
	0x0040 91 08 93 08 52 93 08 23 00 00 00 00 00 00 00 26  ....R..#.......&
	0x0050 00 00 00 00 00 00 00 09 00 9c 93 08 91 08 93 08  ................
	0x0060 93 08 26 00 00 00 00 00 00 00 7d 00 00 00 00 00  ..&.......}.....
	0x0070 00 00 09 00 9c 93 08 91 08 93 08 93 08 00 00 00  ................
	0x0080 00 00 00 00 00 00 00 00 00 00 00 00 00 ff ff ff  ................
	0x0090 ff ff ff ff ff 00 00 00 00 00 00 00 00 00 00 00  ................
	0x00a0 00 00 00 00 00 1c 00 00 00 00 00 00 00 08 00 93  ................
	0x00b0 08 53 93 08 53 93 08 1c 00 00 00 00 00 00 00 2d  .S..S..........-
	0x00c0 00 00 00 00 00 00 00 0a 00 93 08 91 08 93 08 91  ................
	0x00d0 08 93 08 2d 00 00 00 00 00 00 00 45 00 00 00 00  ...-.......E....
	0x00e0 00 00 00 0b 00 50 93 08 91 08 93 08 91 08 93 08  .....P..........
	0x00f0 45 00 00 00 00 00 00 00 7d 00 00 00 00 00 00 00  E.......}.......
	0x0100 0c 00 91 68 93 08 91 08 93 08 91 08 93 08 00 00  ...h............
	0x0110 00 00 00 00 00 00 00 00 00 00 00 00 00 00        ..............
	rel 8+8 t=R_ADDR command-line-arguments.SliceMakeCopyLen<1>+0
	rel 149+8 t=R_ADDR command-line-arguments.SliceMakeCopyLen<1>+0
aux for command-line-arguments.SliceMakeCopyLen<0> SDWARFLINES size=41
	0x0000 00 09 02 00 00 00 00 00 00 00 00 04 02 03 8c 01  ................
	0x0010 14 0a 73 06 03 04 3c 06 71 06 37 06 08 bb 06 41  ..s...<.q.7....A
	0x0020 06 03 7b 97 02 25 00 01 01                       ..{..%...
	rel 3+8 t=R_ADDR command-line-arguments.SliceMakeCopyLen<1>+0
aux for command-line-arguments.SliceMakeCopyLen<0> SDWARFFCN size=107
	0x0000 03 63 6f 6d 6d 61 6e 64 2d 6c 69 6e 65 2d 61 72  .command-line-ar
	0x0010 67 75 6d 65 6e 74 73 2e 53 6c 69 63 65 4d 61 6b  guments.SliceMak
	0x0020 65 43 6f 70 79 4c 65 6e 00 00 00 00 00 00 00 00  eCopyLen........
	0x0030 00 00 00 00 00 00 00 00 00 01 9c 02 00 00 00 92  ................
	0x0040 01 01 12 73 00 00 92 01 00 00 00 00 00 00 00 00  ...s............
	0x0050 11 7e 72 30 00 01 92 01 00 00 00 00 00 0d 61 00  .~r0..........a.
	0x0060 99 01 00 00 00 00 00 00 00 00 00                 ...........
	rel 0+0 t=R_USETYPE type:[]int<0>+0
	rel 0+0 t=R_USETYPE type:uintptr<0>+0
	rel 0+0 t=R_USETYPE type:unsafe.Pointer<0>+0
	rel 41+8 t=R_ADDR command-line-arguments.SliceMakeCopyLen<1>+0
	rel 49+8 t=R_ADDR command-line-arguments.SliceMakeCopyLen<1>+125
	rel 72+4 t=R_DWARFSECREF go:info.[]int<0>+0
	rel 76+4 t=R_DWARFSECREF <0>+0
	rel 88+4 t=R_DWARFSECREF go:info.[]int<0>+0
	rel 98+4 t=R_DWARFSECREF go:info.[]int<0>+0
	rel 102+4 t=R_DWARFSECREF <0>+141
aux for command-line-arguments.SliceMakeCopyLenPtr<0> SDWARFLOC size=253
	0x0000 ff ff ff ff ff ff ff ff 00 00 00 00 00 00 00 00  ................
	0x0010 00 00 00 00 00 00 00 00 1b 00 00 00 00 00 00 00  ................
	0x0020 09 00 50 93 08 53 93 08 52 93 08 1b 00 00 00 00  ..P..S..R.......
	0x0030 00 00 00 25 00 00 00 00 00 00 00 09 00 50 93 08  ...%.........P..
	0x0040 91 08 93 08 93 08 25 00 00 00 00 00 00 00 2a 00  ......%.......*.
	0x0050 00 00 00 00 00 00 08 00 93 08 91 08 93 08 93 08  ................
	0x0060 2a 00 00 00 00 00 00 00 5d 00 00 00 00 00 00 00  *.......].......
	0x0070 08 00 93 08 91 08 93 08 93 08 00 00 00 00 00 00  ................
	0x0080 00 00 00 00 00 00 00 00 00 00 ff ff ff ff ff ff  ................
	0x0090 ff ff 00 00 00 00 00 00 00 00 00 00 00 00 00 00  ................
	0x00a0 00 00 2a 00 00 00 00 00 00 00 08 00 93 08 53 93  ..*...........S.
	0x00b0 08 53 93 08 2a 00 00 00 00 00 00 00 2a 00 00 00  .S..*.......*...
	0x00c0 00 00 00 00 0a 00 93 08 91 08 93 08 91 08 93 08  ................
	0x00d0 2a 00 00 00 00 00 00 00 5d 00 00 00 00 00 00 00  *.......].......
	0x00e0 0b 00 50 93 08 91 08 93 08 91 08 93 08 00 00 00  ..P.............
	0x00f0 00 00 00 00 00 00 00 00 00 00 00 00 00           .............
	rel 8+8 t=R_ADDR command-line-arguments.SliceMakeCopyLenPtr<1>+0
	rel 146+8 t=R_ADDR command-line-arguments.SliceMakeCopyLenPtr<1>+0
aux for command-line-arguments.SliceMakeCopyLenPtr<0> SDWARFLINES size=41
	0x0000 00 09 02 00 00 00 00 00 00 00 00 04 02 03 98 01  ................
	0x0010 14 0a 73 06 37 03 04 46 06 3f 06 2d 06 a7 06 41  ..s.7..F.?.-...A
	0x0020 06 03 7b 65 02 25 00 01 01                       ..{e.%...
	rel 3+8 t=R_ADDR command-line-arguments.SliceMakeCopyLenPtr<1>+0
aux for command-line-arguments.SliceMakeCopyLenPtr<0> SDWARFFCN size=110
	0x0000 03 63 6f 6d 6d 61 6e 64 2d 6c 69 6e 65 2d 61 72  .command-line-ar
	0x0010 67 75 6d 65 6e 74 73 2e 53 6c 69 63 65 4d 61 6b  guments.SliceMak
	0x0020 65 43 6f 70 79 4c 65 6e 50 74 72 00 00 00 00 00  eCopyLenPtr.....
	0x0030 00 00 00 00 00 00 00 00 00 00 00 00 01 9c 02 00  ................
	0x0040 00 00 9e 01 01 12 73 00 00 9e 01 00 00 00 00 00  ......s.........
	0x0050 00 00 00 11 7e 72 30 00 01 9e 01 00 00 00 00 00  ....~r0.........
	0x0060 0d 61 00 a5 01 00 00 00 00 00 00 00 00 00        .a............
	rel 0+0 t=R_USETYPE type:[]*int<0>+0
	rel 44+8 t=R_ADDR command-line-arguments.SliceMakeCopyLenPtr<1>+0
	rel 52+8 t=R_ADDR command-line-arguments.SliceMakeCopyLenPtr<1>+93
	rel 75+4 t=R_DWARFSECREF go:info.[]*int<0>+0
	rel 79+4 t=R_DWARFSECREF <0>+0
	rel 91+4 t=R_DWARFSECREF go:info.[]*int<0>+0
	rel 101+4 t=R_DWARFSECREF go:info.[]*int<0>+0
	rel 105+4 t=R_DWARFSECREF <0>+138
aux for command-line-arguments.SliceMakeCopyConst<0> SDWARFLOC size=167
	0x0000 ff ff ff ff ff ff ff ff 00 00 00 00 00 00 00 00  ................
	0x0010 00 00 00 00 00 00 00 00 16 00 00 00 00 00 00 00  ................
	0x0020 09 00 50 93 08 53 93 08 52 93 08 16 00 00 00 00  ..P..S..R.......
	0x0030 00 00 00 20 00 00 00 00 00 00 00 08 00 50 93 08  ... .........P..
	0x0040 53 93 08 93 08 20 00 00 00 00 00 00 00 25 00 00  S.... .......%..
	0x0050 00 00 00 00 00 07 00 93 08 53 93 08 93 08 00 00  .........S......
	0x0060 00 00 00 00 00 00 00 00 00 00 00 00 00 00 ff ff  ................
	0x0070 ff ff ff ff ff ff 00 00 00 00 00 00 00 00 2a 00  ..............*.
	0x0080 00 00 00 00 00 00 5d 00 00 00 00 00 00 00 07 00  ......].........
	0x0090 50 93 08 93 08 93 08 00 00 00 00 00 00 00 00 00  P...............
	0x00a0 00 00 00 00 00 00 00                             .......
	rel 8+8 t=R_ADDR command-line-arguments.SliceMakeCopyConst<1>+0
	rel 118+8 t=R_ADDR command-line-arguments.SliceMakeCopyConst<1>+0
aux for command-line-arguments.SliceMakeCopyConst<0> SDWARFLINES size=38
	0x0000 00 09 02 00 00 00 00 00 00 00 00 04 02 03 a4 01  ................
	0x0010 14 0a 73 06 37 06 45 06 2d 06 d9 06 41 06 03 7e  ..s.7.E.-...A..~
	0x0020 65 02 25 00 01 01                                e.%...
	rel 3+8 t=R_ADDR command-line-arguments.SliceMakeCopyConst<1>+0
aux for command-line-arguments.SliceMakeCopyConst<0> SDWARFFCN size=109
	0x0000 03 63 6f 6d 6d 61 6e 64 2d 6c 69 6e 65 2d 61 72  .command-line-ar
	0x0010 67 75 6d 65 6e 74 73 2e 53 6c 69 63 65 4d 61 6b  guments.SliceMak
	0x0020 65 43 6f 70 79 43 6f 6e 73 74 00 00 00 00 00 00  eCopyConst......
	0x0030 00 00 00 00 00 00 00 00 00 00 00 01 9c 02 00 00  ................
	0x0040 00 aa 01 01 12 73 00 00 aa 01 00 00 00 00 00 00  .....s..........
	0x0050 00 00 11 7e 72 30 00 01 aa 01 00 00 00 00 00 0d  ...~r0..........
	0x0060 61 00 ae 01 00 00 00 00 00 00 00 00 00           a............
	rel 0+0 t=R_USETYPE type:[]int<0>+0
	rel 43+8 t=R_ADDR command-line-arguments.SliceMakeCopyConst<1>+0
	rel 51+8 t=R_ADDR command-line-arguments.SliceMakeCopyConst<1>+93
	rel 74+4 t=R_DWARFSECREF go:info.[]int<0>+0
	rel 78+4 t=R_DWARFSECREF <0>+0
	rel 90+4 t=R_DWARFSECREF go:info.[]int<0>+0
	rel 100+4 t=R_DWARFSECREF go:info.[]int<0>+0
	rel 104+4 t=R_DWARFSECREF <0>+110
aux for command-line-arguments.SliceMakeCopyConstPtr<0> SDWARFLOC size=167
	0x0000 ff ff ff ff ff ff ff ff 00 00 00 00 00 00 00 00  ................
	0x0010 00 00 00 00 00 00 00 00 16 00 00 00 00 00 00 00  ................
	0x0020 09 00 50 93 08 53 93 08 52 93 08 16 00 00 00 00  ..P..S..R.......
	0x0030 00 00 00 20 00 00 00 00 00 00 00 08 00 50 93 08  ... .........P..
	0x0040 53 93 08 93 08 20 00 00 00 00 00 00 00 25 00 00  S.... .......%..
	0x0050 00 00 00 00 00 07 00 93 08 53 93 08 93 08 00 00  .........S......
	0x0060 00 00 00 00 00 00 00 00 00 00 00 00 00 00 ff ff  ................
	0x0070 ff ff ff ff ff ff 00 00 00 00 00 00 00 00 2a 00  ..............*.
	0x0080 00 00 00 00 00 00 5d 00 00 00 00 00 00 00 07 00  ......].........
	0x0090 50 93 08 93 08 93 08 00 00 00 00 00 00 00 00 00  P...............
	0x00a0 00 00 00 00 00 00 00                             .......
	rel 8+8 t=R_ADDR command-line-arguments.SliceMakeCopyConstPtr<1>+0
	rel 118+8 t=R_ADDR command-line-arguments.SliceMakeCopyConstPtr<1>+0
aux for command-line-arguments.SliceMakeCopyConstPtr<0> SDWARFLINES size=38
	0x0000 00 09 02 00 00 00 00 00 00 00 00 04 02 03 ad 01  ................
	0x0010 14 0a 73 06 37 06 45 06 2d 06 d9 06 41 06 03 7e  ..s.7.E.-...A..~
	0x0020 65 02 25 00 01 01                                e.%...
	rel 3+8 t=R_ADDR command-line-arguments.SliceMakeCopyConstPtr<1>+0
aux for command-line-arguments.SliceMakeCopyConstPtr<0> SDWARFFCN size=112
	0x0000 03 63 6f 6d 6d 61 6e 64 2d 6c 69 6e 65 2d 61 72  .command-line-ar
	0x0010 67 75 6d 65 6e 74 73 2e 53 6c 69 63 65 4d 61 6b  guments.SliceMak
	0x0020 65 43 6f 70 79 43 6f 6e 73 74 50 74 72 00 00 00  eCopyConstPtr...
	0x0030 00 00 00 00 00 00 00 00 00 00 00 00 00 00 01 9c  ................
	0x0040 02 00 00 00 b3 01 01 12 73 00 00 b3 01 00 00 00  ........s.......
	0x0050 00 00 00 00 00 11 7e 72 30 00 01 b3 01 00 00 00  ......~r0.......
	0x0060 00 00 0d 61 00 b7 01 00 00 00 00 00 00 00 00 00  ...a............
	rel 0+0 t=R_USETYPE type:[]*int<0>+0
	rel 46+8 t=R_ADDR command-line-arguments.SliceMakeCopyConstPtr<1>+0
	rel 54+8 t=R_ADDR command-line-arguments.SliceMakeCopyConstPtr<1>+93
	rel 77+4 t=R_DWARFSECREF go:info.[]*int<0>+0
	rel 81+4 t=R_DWARFSECREF <0>+0
	rel 93+4 t=R_DWARFSECREF go:info.[]*int<0>+0
	rel 103+4 t=R_DWARFSECREF go:info.[]*int<0>+0
	rel 107+4 t=R_DWARFSECREF <0>+110
aux for command-line-arguments.SliceMakeCopyNoOptNoDeref<0> SDWARFLOC size=140
	0x0000 ff ff ff ff ff ff ff ff 00 00 00 00 00 00 00 00  ................
	0x0010 00 00 00 00 00 00 00 00 2c 00 00 00 00 00 00 00  ........,.......
	0x0020 09 00 50 93 08 53 93 08 52 93 08 2c 00 00 00 00  ..P..S..R..,....
	0x0030 00 00 00 33 00 00 00 00 00 00 00 09 00 9c 93 08  ...3............
	0x0040 91 08 93 08 93 08 33 00 00 00 00 00 00 00 36 00  ......3.......6.
	0x0050 00 00 00 00 00 00 09 00 9c 93 08 91 08 93 08 93  ................
	0x0060 08 36 00 00 00 00 00 00 00 ad 00 00 00 00 00 00  .6..............
	0x0070 00 09 00 9c 93 08 91 08 93 08 93 08 00 00 00 00  ................
	0x0080 00 00 00 00 00 00 00 00 00 00 00 00              ............
	rel 8+8 t=R_ADDR command-line-arguments.SliceMakeCopyNoOptNoDeref<1>+0
aux for command-line-arguments.SliceMakeCopyNoOptNoDeref<0> SDWARFLINES size=50
	0x0000 00 09 02 00 00 00 00 00 00 00 00 04 02 03 b6 01  ................
	0x0010 14 0a 73 06 03 03 3c 06 6f 06 66 06 4e 06 41 06  ..s...<.o.f.N.A.
	0x0020 08 9e 06 2d 06 eb 42 06 41 06 03 7c ab 02 28 00  ...-..B.A..|..(.
	0x0030 01 01                                            ..
	rel 3+8 t=R_ADDR command-line-arguments.SliceMakeCopyNoOptNoDeref<1>+0
aux for command-line-arguments.SliceMakeCopyNoOptNoDeref<0> SDWARFFCN size=103
	0x0000 03 63 6f 6d 6d 61 6e 64 2d 6c 69 6e 65 2d 61 72  .command-line-ar
	0x0010 67 75 6d 65 6e 74 73 2e 53 6c 69 63 65 4d 61 6b  guments.SliceMak
	0x0020 65 43 6f 70 79 4e 6f 4f 70 74 4e 6f 44 65 72 65  eCopyNoOptNoDere
	0x0030 66 00 00 00 00 00 00 00 00 00 00 00 00 00 00 00  f...............
	0x0040 00 00 01 9c 02 00 00 00 bc 01 01 12 73 00 00 bc  ............s...
	0x0050 01 00 00 00 00 00 00 00 00 11 7e 72 30 00 01 bc  ..........~r0...
	0x0060 01 00 00 00 00 00 00                             .......
	rel 0+0 t=R_USETYPE type:[]*int<0>+0
	rel 50+8 t=R_ADDR command-line-arguments.SliceMakeCopyNoOptNoDeref<1>+0
	rel 58+8 t=R_ADDR command-line-arguments.SliceMakeCopyNoOptNoDeref<1>+173
	rel 81+4 t=R_DWARFSECREF go:info.[]*int<0>+0
	rel 85+4 t=R_DWARFSECREF <0>+0
	rel 97+4 t=R_DWARFSECREF go:info.[]*int<0>+0
aux for command-line-arguments.SliceMakeCopyNoOptNoVar<0> SDWARFLOC size=140
	0x0000 ff ff ff ff ff ff ff ff 00 00 00 00 00 00 00 00  ................
	0x0010 00 00 00 00 00 00 00 00 2c 00 00 00 00 00 00 00  ........,.......
	0x0020 09 00 50 93 08 53 93 08 52 93 08 2c 00 00 00 00  ..P..S..R..,....
	0x0030 00 00 00 33 00 00 00 00 00 00 00 09 00 9c 93 08  ...3............
	0x0040 91 08 93 08 93 08 33 00 00 00 00 00 00 00 36 00  ......3.......6.
	0x0050 00 00 00 00 00 00 09 00 9c 93 08 91 08 93 08 93  ................
	0x0060 08 36 00 00 00 00 00 00 00 ad 00 00 00 00 00 00  .6..............
	0x0070 00 09 00 9c 93 08 91 08 93 08 93 08 00 00 00 00  ................
	0x0080 00 00 00 00 00 00 00 00 00 00 00 00              ............
	rel 8+8 t=R_ADDR command-line-arguments.SliceMakeCopyNoOptNoVar<1>+0
aux for command-line-arguments.SliceMakeCopyNoOptNoVar<0> SDWARFLINES size=50
	0x0000 00 09 02 00 00 00 00 00 00 00 00 04 02 03 c1 01  ................
	0x0010 14 0a 73 06 03 03 3c 06 6f 06 66 06 4e 06 41 06  ..s...<.o.f.N.A.
	0x0020 08 9e 06 2d 06 eb 42 06 41 06 03 7c ab 02 28 00  ...-..B.A..|..(.
	0x0030 01 01                                            ..
	rel 3+8 t=R_ADDR command-line-arguments.SliceMakeCopyNoOptNoVar<1>+0
aux for command-line-arguments.SliceMakeCopyNoOptNoVar<0> SDWARFFCN size=101
	0x0000 03 63 6f 6d 6d 61 6e 64 2d 6c 69 6e 65 2d 61 72  .command-line-ar
	0x0010 67 75 6d 65 6e 74 73 2e 53 6c 69 63 65 4d 61 6b  guments.SliceMak
	0x0020 65 43 6f 70 79 4e 6f 4f 70 74 4e 6f 56 61 72 00  eCopyNoOptNoVar.
	0x0030 00 00 00 00 00 00 00 00 00 00 00 00 00 00 00 00  ................
	0x0040 01 9c 02 00 00 00 c7 01 01 12 73 00 00 c7 01 00  ..........s.....
	0x0050 00 00 00 00 00 00 00 11 7e 72 30 00 01 c7 01 00  ........~r0.....
	0x0060 00 00 00 00 00                                   .....
	rel 0+0 t=R_USETYPE type:[1][]*int<0>+0
	rel 0+0 t=R_USETYPE type:[]*int<0>+0
	rel 48+8 t=R_ADDR command-line-arguments.SliceMakeCopyNoOptNoVar<1>+0
	rel 56+8 t=R_ADDR command-line-arguments.SliceMakeCopyNoOptNoVar<1>+173
	rel 79+4 t=R_DWARFSECREF go:info.[]*int<0>+0
	rel 83+4 t=R_DWARFSECREF <0>+0
	rel 95+4 t=R_DWARFSECREF go:info.[]*int<0>+0
aux for command-line-arguments.SliceMakeCopyNoOptBlank<0> SDWARFLOC size=110
	0x0000 ff ff ff ff ff ff ff ff 00 00 00 00 00 00 00 00  ................
	0x0010 00 00 00 00 00 00 00 00 15 00 00 00 00 00 00 00  ................
	0x0020 09 00 50 93 08 53 93 08 52 93 08 15 00 00 00 00  ..P..S..R.......
	0x0030 00 00 00 22 00 00 00 00 00 00 00 08 00 50 93 08  ...".........P..
	0x0040 53 93 08 93 08 22 00 00 00 00 00 00 00 24 00 00  S....".......$..
	0x0050 00 00 00 00 00 07 00 93 08 53 93 08 93 08 00 00  .........S......
	0x0060 00 00 00 00 00 00 00 00 00 00 00 00 00 00        ..............
	rel 8+8 t=R_ADDR command-line-arguments.SliceMakeCopyNoOptBlank<1>+0
aux for command-line-arguments.SliceMakeCopyNoOptBlank<0> SDWARFLINES size=40
	0x0000 00 09 02 00 00 00 00 00 00 00 00 04 02 03 cc 01  ................
	0x0010 14 0a 73 06 37 06 03 01 46 06 23 06 d8 06 23 06  ..s.7...F.#...#.
	0x0020 03 7d 79 02 25 00 01 01                          .}y.%...
	rel 3+8 t=R_ADDR command-line-arguments.SliceMakeCopyNoOptBlank<1>+0
aux for command-line-arguments.SliceMakeCopyNoOptBlank<0> SDWARFFCN size=111
	0x0000 03 63 6f 6d 6d 61 6e 64 2d 6c 69 6e 65 2d 61 72  .command-line-ar
	0x0010 67 75 6d 65 6e 74 73 2e 53 6c 69 63 65 4d 61 6b  guments.SliceMak
	0x0020 65 43 6f 70 79 4e 6f 4f 70 74 42 6c 61 6e 6b 00  eCopyNoOptBlank.
	0x0030 00 00 00 00 00 00 00 00 00 00 00 00 00 00 00 00  ................
	0x0040 01 9c 02 00 00 00 d2 01 01 12 73 00 00 d2 01 00  ..........s.....
	0x0050 00 00 00 00 00 00 00 11 7e 72 30 00 01 d2 01 00  ........~r0.....
	0x0060 00 00 00 00 0c 61 00 d3 01 00 00 00 00 00 00     .....a.........
	rel 0+0 t=R_USETYPE type:[]*int<0>+0
	rel 48+8 t=R_ADDR command-line-arguments.SliceMakeCopyNoOptBlank<1>+0
	rel 56+8 t=R_ADDR command-line-arguments.SliceMakeCopyNoOptBlank<1>+91
	rel 79+4 t=R_DWARFSECREF go:info.[]*int<0>+0
	rel 83+4 t=R_DWARFSECREF <0>+0
	rel 95+4 t=R_DWARFSECREF go:info.[]*int<0>+0
	rel 105+4 t=R_DWARFSECREF go:info.[]*int<0>+0
aux for command-line-arguments.SliceMakeCopyNoOptNoMake<0> SDWARFLOC size=110
	0x0000 ff ff ff ff ff ff ff ff 00 00 00 00 00 00 00 00  ................
	0x0010 00 00 00 00 00 00 00 00 15 00 00 00 00 00 00 00  ................
	0x0020 09 00 50 93 08 53 93 08 52 93 08 15 00 00 00 00  ..P..S..R.......
	0x0030 00 00 00 22 00 00 00 00 00 00 00 08 00 50 93 08  ...".........P..
	0x0040 53 93 08 93 08 22 00 00 00 00 00 00 00 24 00 00  S....".......$..
	0x0050 00 00 00 00 00 07 00 93 08 53 93 08 93 08 00 00  .........S......
	0x0060 00 00 00 00 00 00 00 00 00 00 00 00 00 00        ..............
	rel 8+8 t=R_ADDR command-line-arguments.SliceMakeCopyNoOptNoMake<1>+0
aux for command-line-arguments.SliceMakeCopyNoOptNoMake<0> SDWARFLINES size=40
	0x0000 00 09 02 00 00 00 00 00 00 00 00 04 02 03 d6 01  ................
	0x0010 14 0a 73 06 37 06 03 01 46 06 23 06 d8 06 23 06  ..s.7...F.#...#.
	0x0020 03 7d 79 02 25 00 01 01                          .}y.%...
	rel 3+8 t=R_ADDR command-line-arguments.SliceMakeCopyNoOptNoMake<1>+0
aux for command-line-arguments.SliceMakeCopyNoOptNoMake<0> SDWARFFCN size=102
	0x0000 03 63 6f 6d 6d 61 6e 64 2d 6c 69 6e 65 2d 61 72  .command-line-ar
	0x0010 67 75 6d 65 6e 74 73 2e 53 6c 69 63 65 4d 61 6b  guments.SliceMak
	0x0020 65 43 6f 70 79 4e 6f 4f 70 74 4e 6f 4d 61 6b 65  eCopyNoOptNoMake
	0x0030 00 00 00 00 00 00 00 00 00 00 00 00 00 00 00 00  ................
	0x0040 00 01 9c 02 00 00 00 dc 01 01 12 73 00 00 dc 01  ...........s....
	0x0050 00 00 00 00 00 00 00 00 11 7e 72 30 00 01 dc 01  .........~r0....
	0x0060 00 00 00 00 00 00                                ......
	rel 0+0 t=R_USETYPE type:[]*int<0>+0
	rel 49+8 t=R_ADDR command-line-arguments.SliceMakeCopyNoOptNoMake<1>+0
	rel 57+8 t=R_ADDR command-line-arguments.SliceMakeCopyNoOptNoMake<1>+91
	rel 80+4 t=R_DWARFSECREF go:info.[]*int<0>+0
	rel 84+4 t=R_DWARFSECREF <0>+0
	rel 96+4 t=R_DWARFSECREF go:info.[]*int<0>+0
aux for command-line-arguments.SliceMakeCopyNoOptNoHeapAlloc<0> SDWARFLOC size=110
	0x0000 ff ff ff ff ff ff ff ff 00 00 00 00 00 00 00 00  ................
	0x0010 00 00 00 00 00 00 00 00 24 00 00 00 00 00 00 00  ........$.......
	0x0020 09 00 50 93 08 53 93 08 52 93 08 24 00 00 00 00  ..P..S..R..$....
	0x0030 00 00 00 31 00 00 00 00 00 00 00 08 00 50 93 08  ...1.........P..
	0x0040 53 93 08 93 08 31 00 00 00 00 00 00 00 36 00 00  S....1.......6..
	0x0050 00 00 00 00 00 07 00 93 08 53 93 08 93 08 00 00  .........S......
	0x0060 00 00 00 00 00 00 00 00 00 00 00 00 00 00        ..............
	rel 8+8 t=R_ADDR command-line-arguments.SliceMakeCopyNoOptNoHeapAlloc<1>+0
aux for command-line-arguments.SliceMakeCopyNoOptNoHeapAlloc<0> SDWARFLINES size=43
	0x0000 00 09 02 00 00 00 00 00 00 00 00 04 02 03 e0 01  ................
	0x0010 14 0a 73 06 37 06 43 06 4b 06 4e 06 41 06 c3 42  ..s.7.C.K.N.A..B
	0x0020 06 41 06 03 7e 47 02 25 00 01 01                 .A..~G.%...
	rel 3+8 t=R_ADDR command-line-arguments.SliceMakeCopyNoOptNoHeapAlloc<1>+0
aux for command-line-arguments.SliceMakeCopyNoOptNoHeapAlloc<0> SDWARFFCN size=117
	0x0000 03 63 6f 6d 6d 61 6e 64 2d 6c 69 6e 65 2d 61 72  .command-line-ar
	0x0010 67 75 6d 65 6e 74 73 2e 53 6c 69 63 65 4d 61 6b  guments.SliceMak
	0x0020 65 43 6f 70 79 4e 6f 4f 70 74 4e 6f 48 65 61 70  eCopyNoOptNoHeap
	0x0030 41 6c 6c 6f 63 00 00 00 00 00 00 00 00 00 00 00  Alloc...........
	0x0040 00 00 00 00 00 00 01 9c 02 00 00 00 e6 01 01 12  ................
	0x0050 73 00 00 e6 01 00 00 00 00 00 00 00 00 11 7e 72  s.............~r
	0x0060 30 00 01 e6 01 00 00 00 00 00 0c 61 00 e8 01 00  0..........a....
	0x0070 00 00 00 00 00                                   .....
	rel 0+0 t=R_USETYPE type:[4]*int<0>+0
	rel 0+0 t=R_USETYPE type:int<0>+0
	rel 54+8 t=R_ADDR command-line-arguments.SliceMakeCopyNoOptNoHeapAlloc<1>+0
	rel 62+8 t=R_ADDR command-line-arguments.SliceMakeCopyNoOptNoHeapAlloc<1>+107
	rel 85+4 t=R_DWARFSECREF go:info.[]*int<0>+0
	rel 89+4 t=R_DWARFSECREF <0>+0
	rel 101+4 t=R_DWARFSECREF go:info.int<0>+0
	rel 111+4 t=R_DWARFSECREF go:info.[]*int<0>+0
aux for command-line-arguments.SliceMakeCopyNoOptNoCap<0> SDWARFLOC size=223
	0x0000 ff ff ff ff ff ff ff ff 00 00 00 00 00 00 00 00  ................
	0x0010 00 00 00 00 00 00 00 00 1d 00 00 00 00 00 00 00  ................
	0x0020 09 00 50 93 08 53 93 08 52 93 08 1d 00 00 00 00  ..P..S..R.......
	0x0030 00 00 00 24 00 00 00 00 00 00 00 09 00 9c 93 08  ...$............
	0x0040 91 08 93 08 93 08 24 00 00 00 00 00 00 00 26 00  ......$.......&.
	0x0050 00 00 00 00 00 00 09 00 9c 93 08 91 08 93 08 93  ................
	0x0060 08 26 00 00 00 00 00 00 00 85 00 00 00 00 00 00  .&..............
	0x0070 00 09 00 9c 93 08 91 08 93 08 93 08 00 00 00 00  ................
	0x0080 00 00 00 00 00 00 00 00 00 00 00 00 ff ff ff ff  ................
	0x0090 ff ff ff ff 00 00 00 00 00 00 00 00 2b 00 00 00  ............+...
	0x00a0 00 00 00 00 46 00 00 00 00 00 00 00 07 00 50 93  ....F.........P.
	0x00b0 08 93 08 93 08 46 00 00 00 00 00 00 00 85 00 00  .....F..........
	0x00c0 00 00 00 00 00 08 00 91 68 93 08 93 08 93 08 00  ........h.......
	0x00d0 00 00 00 00 00 00 00 00 00 00 00 00 00 00 00     ...............
	rel 8+8 t=R_ADDR command-line-arguments.SliceMakeCopyNoOptNoCap<1>+0
	rel 148+8 t=R_ADDR command-line-arguments.SliceMakeCopyNoOptNoCap<1>+0
aux for command-line-arguments.SliceMakeCopyNoOptNoCap<0> SDWARFLINES size=45
	0x0000 00 09 02 00 00 00 00 00 00 00 00 04 02 03 e9 01  ................
	0x0010 14 0a 73 06 03 02 3c 06 6f 06 41 06 d0 06 2d 06  ..s...<.o.A...-.
	0x0020 cd 42 06 41 06 03 7d 8d 02 28 00 01 01           .B.A..}..(...
	rel 3+8 t=R_ADDR command-line-arguments.SliceMakeCopyNoOptNoCap<1>+0
aux for command-line-arguments.SliceMakeCopyNoOptNoCap<0> SDWARFFCN size=114
	0x0000 03 63 6f 6d 6d 61 6e 64 2d 6c 69 6e 65 2d 61 72  .command-line-ar
	0x0010 67 75 6d 65 6e 74 73 2e 53 6c 69 63 65 4d 61 6b  guments.SliceMak
	0x0020 65 43 6f 70 79 4e 6f 4f 70 74 4e 6f 43 61 70 00  eCopyNoOptNoCap.
	0x0030 00 00 00 00 00 00 00 00 00 00 00 00 00 00 00 00  ................
	0x0040 01 9c 02 00 00 00 ef 01 01 12 73 00 00 ef 01 00  ..........s.....
	0x0050 00 00 00 00 00 00 00 11 7e 72 30 00 01 ef 01 00  ........~r0.....
	0x0060 00 00 00 00 0d 61 00 f2 01 00 00 00 00 00 00 00  .....a..........
	0x0070 00 00                                            ..
	rel 0+0 t=R_USETYPE type:[]*int<0>+0
	rel 0+0 t=R_USETYPE type:unsafe.Pointer<0>+0
	rel 48+8 t=R_ADDR command-line-arguments.SliceMakeCopyNoOptNoCap<1>+0
	rel 56+8 t=R_ADDR command-line-arguments.SliceMakeCopyNoOptNoCap<1>+133
	rel 79+4 t=R_DWARFSECREF go:info.[]*int<0>+0
	rel 83+4 t=R_DWARFSECREF <0>+0
	rel 95+4 t=R_DWARFSECREF go:info.[]*int<0>+0
	rel 105+4 t=R_DWARFSECREF go:info.[]*int<0>+0
	rel 109+4 t=R_DWARFSECREF <0>+140
aux for command-line-arguments.SliceMakeCopyNoOptNoCopy<0> SDWARFLOC size=167
	0x0000 ff ff ff ff ff ff ff ff 00 00 00 00 00 00 00 00  ................
	0x0010 00 00 00 00 00 00 00 00 15 00 00 00 00 00 00 00  ................
	0x0020 09 00 50 93 08 53 93 08 52 93 08 15 00 00 00 00  ..P..S..R.......
	0x0030 00 00 00 1a 00 00 00 00 00 00 00 08 00 93 08 53  ...............S
	0x0040 93 08 52 93 08 1a 00 00 00 00 00 00 00 1d 00 00  ..R.............
	0x0050 00 00 00 00 00 07 00 93 08 93 08 52 93 08 00 00  ...........R....
	0x0060 00 00 00 00 00 00 00 00 00 00 00 00 00 00 ff ff  ................
	0x0070 ff ff ff ff ff ff 00 00 00 00 00 00 00 00 25 00  ..............%.
	0x0080 00 00 00 00 00 00 3a 00 00 00 00 00 00 00 07 00  ......:.........
	0x0090 50 93 08 93 08 93 08 00 00 00 00 00 00 00 00 00  P...............
	0x00a0 00 00 00 00 00 00 00                             .......
	rel 8+8 t=R_ADDR command-line-arguments.SliceMakeCopyNoOptNoCopy<1>+0
	rel 118+8 t=R_ADDR command-line-arguments.SliceMakeCopyNoOptNoCopy<1>+0
aux for command-line-arguments.SliceMakeCopyNoOptNoCopy<0> SDWARFLINES size=35
	0x0000 00 09 02 00 00 00 00 00 00 00 00 04 02 03 f3 01  ................
	0x0010 14 0a 73 3b 06 55 06 b2 06 41 06 03 7d 65 02 07  ..s;.U...A..}e..
	0x0020 00 01 01                                         ...
	rel 3+8 t=R_ADDR command-line-arguments.SliceMakeCopyNoOptNoCopy<1>+0
aux for command-line-arguments.SliceMakeCopyNoOptNoCopy<0> SDWARFFCN size=115
	0x0000 03 63 6f 6d 6d 61 6e 64 2d 6c 69 6e 65 2d 61 72  .command-line-ar
	0x0010 67 75 6d 65 6e 74 73 2e 53 6c 69 63 65 4d 61 6b  guments.SliceMak
	0x0020 65 43 6f 70 79 4e 6f 4f 70 74 4e 6f 43 6f 70 79  eCopyNoOptNoCopy
	0x0030 00 00 00 00 00 00 00 00 00 00 00 00 00 00 00 00  ................
	0x0040 00 01 9c 02 00 00 00 f9 01 01 12 73 00 00 f9 01  ...........s....
	0x0050 00 00 00 00 00 00 00 00 11 7e 72 30 00 01 f9 01  .........~r0....
	0x0060 00 00 00 00 00 0d 61 00 fd 01 00 00 00 00 00 00  ......a.........
	0x0070 00 00 00                                         ...
	rel 0+0 t=R_USETYPE type:[]*int<0>+0
	rel 49+8 t=R_ADDR command-line-arguments.SliceMakeCopyNoOptNoCopy<1>+0
	rel 57+8 t=R_ADDR command-line-arguments.SliceMakeCopyNoOptNoCopy<1>+58
	rel 80+4 t=R_DWARFSECREF go:info.[]*int<0>+0
	rel 84+4 t=R_DWARFSECREF <0>+0
	rel 96+4 t=R_DWARFSECREF go:info.[]*int<0>+0
	rel 106+4 t=R_DWARFSECREF go:info.[]*int<0>+0
	rel 110+4 t=R_DWARFSECREF <0>+110
aux for command-line-arguments.SliceMakeCopyNoOptWrongOrder<0> SDWARFLOC size=223
	0x0000 ff ff ff ff ff ff ff ff 00 00 00 00 00 00 00 00  ................
	0x0010 00 00 00 00 00 00 00 00 1d 00 00 00 00 00 00 00  ................
	0x0020 09 00 50 93 08 53 93 08 52 93 08 1d 00 00 00 00  ..P..S..R.......
	0x0030 00 00 00 24 00 00 00 00 00 00 00 09 00 9c 93 08  ...$............
	0x0040 91 08 93 08 93 08 24 00 00 00 00 00 00 00 27 00  ......$.......'.
	0x0050 00 00 00 00 00 00 09 00 9c 93 08 91 08 93 08 93  ................
	0x0060 08 27 00 00 00 00 00 00 00 8a 00 00 00 00 00 00  .'..............
	0x0070 00 09 00 9c 93 08 91 08 93 08 93 08 00 00 00 00  ................
	0x0080 00 00 00 00 00 00 00 00 00 00 00 00 ff ff ff ff  ................
	0x0090 ff ff ff ff 00 00 00 00 00 00 00 00 2c 00 00 00  ............,...
	0x00a0 00 00 00 00 4a 00 00 00 00 00 00 00 07 00 50 93  ....J.........P.
	0x00b0 08 93 08 93 08 4a 00 00 00 00 00 00 00 8a 00 00  .....J..........
	0x00c0 00 00 00 00 00 08 00 91 68 93 08 93 08 93 08 00  ........h.......
	0x00d0 00 00 00 00 00 00 00 00 00 00 00 00 00 00 00     ...............
	rel 8+8 t=R_ADDR command-line-arguments.SliceMakeCopyNoOptWrongOrder<1>+0
	rel 148+8 t=R_ADDR command-line-arguments.SliceMakeCopyNoOptWrongOrder<1>+0
aux for command-line-arguments.SliceMakeCopyNoOptWrongOrder<0> SDWARFLINES size=45
	0x0000 00 09 02 00 00 00 00 00 00 00 00 04 02 03 fd 01  ................
	0x0010 14 0a 73 06 03 02 3c 06 6f 06 41 06 da 06 41 06  ..s...<.o.A...A.
	0x0020 d7 42 06 41 06 03 7d 97 02 28 00 01 01           .B.A..}..(...
	rel 3+8 t=R_ADDR command-line-arguments.SliceMakeCopyNoOptWrongOrder<1>+0
aux for command-line-arguments.SliceMakeCopyNoOptWrongOrder<0> SDWARFFCN size=119
	0x0000 03 63 6f 6d 6d 61 6e 64 2d 6c 69 6e 65 2d 61 72  .command-line-ar
	0x0010 67 75 6d 65 6e 74 73 2e 53 6c 69 63 65 4d 61 6b  guments.SliceMak
	0x0020 65 43 6f 70 79 4e 6f 4f 70 74 57 72 6f 6e 67 4f  eCopyNoOptWrongO
	0x0030 72 64 65 72 00 00 00 00 00 00 00 00 00 00 00 00  rder............
	0x0040 00 00 00 00 00 01 9c 02 00 00 00 83 02 01 12 73  ...............s
	0x0050 00 00 83 02 00 00 00 00 00 00 00 00 11 7e 72 30  .............~r0
	0x0060 00 01 83 02 00 00 00 00 00 0d 61 00 86 02 00 00  ..........a.....
	0x0070 00 00 00 00 00 00 00                             .......
	rel 0+0 t=R_USETYPE type:[]*int<0>+0
	rel 0+0 t=R_USETYPE type:unsafe.Pointer<0>+0
	rel 53+8 t=R_ADDR command-line-arguments.SliceMakeCopyNoOptWrongOrder<1>+0
	rel 61+8 t=R_ADDR command-line-arguments.SliceMakeCopyNoOptWrongOrder<1>+138
	rel 84+4 t=R_DWARFSECREF go:info.[]*int<0>+0
	rel 88+4 t=R_DWARFSECREF <0>+0
	rel 100+4 t=R_DWARFSECREF go:info.[]*int<0>+0
	rel 110+4 t=R_DWARFSECREF go:info.[]*int<0>+0
	rel 114+4 t=R_DWARFSECREF <0>+140
aux for command-line-arguments.SliceMakeCopyNoOptWrongAssign<0> SDWARFLOC size=83
	0x0000 ff ff ff ff ff ff ff ff 00 00 00 00 00 00 00 00  ................
	0x0010 25 00 00 00 00 00 00 00 3d 00 00 00 00 00 00 00  %.......=.......
	0x0020 07 00 50 93 08 93 08 93 08 3d 00 00 00 00 00 00  ..P......=......
	0x0030 00 5f 00 00 00 00 00 00 00 08 00 91 68 93 08 93  ._..........h...
	0x0040 08 93 08 00 00 00 00 00 00 00 00 00 00 00 00 00  ................
	0x0050 00 00 00                                         ...
	rel 8+8 t=R_ADDR command-line-arguments.SliceMakeCopyNoOptWrongAssign<1>+0
aux for command-line-arguments.SliceMakeCopyNoOptWrongAssign<0> SDWARFLINES size=40
	0x0000 00 09 02 00 00 00 00 00 00 00 00 04 02 03 87 02  ................
	0x0010 14 0a 73 3b 06 55 06 e4 06 23 06 d7 42 06 41 06  ..s;.U...#..B.A.
	0x0020 03 7c 97 02 07 00 01 01                          .|......
	rel 3+8 t=R_ADDR command-line-arguments.SliceMakeCopyNoOptWrongAssign<1>+0
aux for command-line-arguments.SliceMakeCopyNoOptWrongAssign<0> SDWARFFCN size=117
	0x0000 03 63 6f 6d 6d 61 6e 64 2d 6c 69 6e 65 2d 61 72  .command-line-ar
	0x0010 67 75 6d 65 6e 74 73 2e 53 6c 69 63 65 4d 61 6b  guments.SliceMak
	0x0020 65 43 6f 70 79 4e 6f 4f 70 74 57 72 6f 6e 67 41  eCopyNoOptWrongA
	0x0030 73 73 69 67 6e 00 00 00 00 00 00 00 00 00 00 00  ssign...........
	0x0040 00 00 00 00 00 00 01 9c 02 00 00 00 8d 02 01 12  ................
	0x0050 73 00 00 8d 02 00 00 00 00 00 00 00 00 11 7e 72  s.............~r
	0x0060 30 00 01 8d 02 00 00 00 00 00 0c 61 00 8e 02 00  0..........a....
	0x0070 00 00 00 00 00                                   .....
	rel 0+0 t=R_USETYPE type:[]*int<0>+0
	rel 0+0 t=R_USETYPE type:unsafe.Pointer<0>+0
	rel 54+8 t=R_ADDR command-line-arguments.SliceMakeCopyNoOptWrongAssign<1>+0
	rel 62+8 t=R_ADDR command-line-arguments.SliceMakeCopyNoOptWrongAssign<1>+95
	rel 85+4 t=R_DWARFSECREF go:info.[]*int<0>+0
	rel 89+4 t=R_DWARFSECREF <0>+0
	rel 101+4 t=R_DWARFSECREF go:info.[]*int<0>+0
	rel 111+4 t=R_DWARFSECREF go:info.[]*int<0>+0
aux for command-line-arguments.SliceMakeCopyNoOptCopyLength<0> SDWARFLOC size=274
	0x0000 ff ff ff ff ff ff ff ff 00 00 00 00 00 00 00 00  ................
	0x0010 00 00 00 00 00 00 00 00 1d 00 00 00 00 00 00 00  ................
	0x0020 09 00 50 93 08 53 93 08 52 93 08 1d 00 00 00 00  ..P..S..R.......
	0x0030 00 00 00 24 00 00 00 00 00 00 00 09 00 9c 93 08  ...$............
	0x0040 91 08 93 08 93 08 24 00 00 00 00 00 00 00 27 00  ......$.......'.
	0x0050 00 00 00 00 00 00 09 00 9c 93 08 91 08 93 08 93  ................
	0x0060 08 27 00 00 00 00 00 00 00 8a 00 00 00 00 00 00  .'..............
	0x0070 00 09 00 9c 93 08 91 08 93 08 93 08 00 00 00 00  ................
	0x0080 00 00 00 00 00 00 00 00 00 00 00 00 ff ff ff ff  ................
	0x0090 ff ff ff ff 00 00 00 00 00 00 00 00 4f 00 00 00  ............O...
	0x00a0 00 00 00 00 8a 00 00 00 00 00 00 00 01 00 50 00  ..............P.
	0x00b0 00 00 00 00 00 00 00 00 00 00 00 00 00 00 00 ff  ................
	0x00c0 ff ff ff ff ff ff ff 00 00 00 00 00 00 00 00 2c  ...............,
	0x00d0 00 00 00 00 00 00 00 4a 00 00 00 00 00 00 00 07  .......J........
	0x00e0 00 50 93 08 93 08 93 08 4a 00 00 00 00 00 00 00  .P......J.......
	0x00f0 8a 00 00 00 00 00 00 00 08 00 91 68 93 08 93 08  ...........h....
	0x0100 93 08 00 00 00 00 00 00 00 00 00 00 00 00 00 00  ................
	0x0110 00 00                                            ..
	rel 8+8 t=R_ADDR command-line-arguments.SliceMakeCopyNoOptCopyLength<1>+0
	rel 148+8 t=R_ADDR command-line-arguments.SliceMakeCopyNoOptCopyLength<1>+0
	rel 199+8 t=R_ADDR command-line-arguments.SliceMakeCopyNoOptCopyLength<1>+0
aux for command-line-arguments.SliceMakeCopyNoOptCopyLength<0> SDWARFLINES size=45
	0x0000 00 09 02 00 00 00 00 00 00 00 00 04 02 03 92 02  ................
	0x0010 14 0a 73 06 03 02 3c 06 6f 06 41 06 da 06 2d 06  ..s...<.o.A...-.
	0x0020 eb 42 06 41 06 03 7d 97 02 28 00 01 01           .B.A..}..(...
	rel 3+8 t=R_ADDR command-line-arguments.SliceMakeCopyNoOptCopyLength<1>+0
aux for command-line-arguments.SliceMakeCopyNoOptCopyLength<0> SDWARFFCN size=145
	0x0000 03 63 6f 6d 6d 61 6e 64 2d 6c 69 6e 65 2d 61 72  .command-line-ar
	0x0010 67 75 6d 65 6e 74 73 2e 53 6c 69 63 65 4d 61 6b  guments.SliceMak
	0x0020 65 43 6f 70 79 4e 6f 4f 70 74 43 6f 70 79 4c 65  eCopyNoOptCopyLe
	0x0030 6e 67 74 68 00 00 00 00 00 00 00 00 00 00 00 00  ngth............
	0x0040 00 00 00 00 00 01 9c 02 00 00 00 98 02 01 12 73  ...............s
	0x0050 00 00 98 02 00 00 00 00 00 00 00 00 11 7e 72 30  .............~r0
	0x0060 00 01 98 02 00 00 00 00 00 11 7e 72 31 00 01 98  ..........~r1...
	0x0070 02 00 00 00 00 00 0d 6e 00 9e 02 00 00 00 00 00  .......n........
	0x0080 00 00 00 0d 61 00 9b 02 00 00 00 00 00 00 00 00  ....a...........
	0x0090 00                                               .
	rel 0+0 t=R_USETYPE type:[]*int<0>+0
	rel 0+0 t=R_USETYPE type:int<0>+0
	rel 0+0 t=R_USETYPE type:unsafe.Pointer<0>+0
	rel 53+8 t=R_ADDR command-line-arguments.SliceMakeCopyNoOptCopyLength<1>+0
	rel 61+8 t=R_ADDR command-line-arguments.SliceMakeCopyNoOptCopyLength<1>+138
	rel 84+4 t=R_DWARFSECREF go:info.[]*int<0>+0
	rel 88+4 t=R_DWARFSECREF <0>+0
	rel 100+4 t=R_DWARFSECREF go:info.int<0>+0
	rel 113+4 t=R_DWARFSECREF go:info.[]*int<0>+0
	rel 123+4 t=R_DWARFSECREF go:info.int<0>+0
	rel 127+4 t=R_DWARFSECREF <0>+140
	rel 136+4 t=R_DWARFSECREF go:info.[]*int<0>+0
	rel 140+4 t=R_DWARFSECREF <0>+191
aux for command-line-arguments.SliceMakeCopyNoOptSelfCopy<0> SDWARFLOC size=193
	0x0000 ff ff ff ff ff ff ff ff 00 00 00 00 00 00 00 00  ................
	0x0010 00 00 00 00 00 00 00 00 15 00 00 00 00 00 00 00  ................
	0x0020 09 00 50 93 08 53 93 08 52 93 08 15 00 00 00 00  ..P..S..R.......
	0x0030 00 00 00 1a 00 00 00 00 00 00 00 08 00 93 08 53  ...............S
	0x0040 93 08 52 93 08 1a 00 00 00 00 00 00 00 1d 00 00  ..R.............
	0x0050 00 00 00 00 00 07 00 93 08 93 08 52 93 08 00 00  ...........R....
	0x0060 00 00 00 00 00 00 00 00 00 00 00 00 00 00 ff ff  ................
	0x0070 ff ff ff ff ff ff 00 00 00 00 00 00 00 00 25 00  ..............%.
	0x0080 00 00 00 00 00 00 3f 00 00 00 00 00 00 00 07 00  ......?.........
	0x0090 50 93 08 93 08 93 08 3f 00 00 00 00 00 00 00 5f  P......?......._
	0x00a0 00 00 00 00 00 00 00 08 00 91 68 93 08 93 08 93  ..........h.....
	0x00b0 08 00 00 00 00 00 00 00 00 00 00 00 00 00 00 00  ................
	0x00c0 00                                               .
	rel 8+8 t=R_ADDR command-line-arguments.SliceMakeCopyNoOptSelfCopy<1>+0
	rel 118+8 t=R_ADDR command-line-arguments.SliceMakeCopyNoOptSelfCopy<1>+0
aux for command-line-arguments.SliceMakeCopyNoOptSelfCopy<0> SDWARFLINES size=40
	0x0000 00 09 02 00 00 00 00 00 00 00 00 04 02 03 9c 02  ................
	0x0010 14 0a 73 3a 06 55 06 e4 06 2d 06 cd 42 06 41 06  ..s:.U...-..B.A.
	0x0020 03 7d 97 02 07 00 01 01                          .}......
	rel 3+8 t=R_ADDR command-line-arguments.SliceMakeCopyNoOptSelfCopy<1>+0
aux for command-line-arguments.SliceMakeCopyNoOptSelfCopy<0> SDWARFFCN size=117
	0x0000 03 63 6f 6d 6d 61 6e 64 2d 6c 69 6e 65 2d 61 72  .command-line-ar
	0x0010 67 75 6d 65 6e 74 73 2e 53 6c 69 63 65 4d 61 6b  guments.SliceMak
	0x0020 65 43 6f 70 79 4e 6f 4f 70 74 53 65 6c 66 43 6f  eCopyNoOptSelfCo
	0x0030 70 79 00 00 00 00 00 00 00 00 00 00 00 00 00 00  py..............
	0x0040 00 00 00 01 9c 02 00 00 00 a2 02 01 12 73 00 00  .............s..
	0x0050 a2 02 00 00 00 00 00 00 00 00 11 7e 72 30 00 01  ...........~r0..
	0x0060 a2 02 00 00 00 00 00 0d 61 00 a5 02 00 00 00 00  ........a.......
	0x0070 00 00 00 00 00                                   .....
	rel 0+0 t=R_USETYPE type:[]*int<0>+0
	rel 0+0 t=R_USETYPE type:unsafe.Pointer<0>+0
	rel 51+8 t=R_ADDR command-line-arguments.SliceMakeCopyNoOptSelfCopy<1>+0
	rel 59+8 t=R_ADDR command-line-arguments.SliceMakeCopyNoOptSelfCopy<1>+95
	rel 82+4 t=R_DWARFSECREF go:info.[]*int<0>+0
	rel 86+4 t=R_DWARFSECREF <0>+0
	rel 98+4 t=R_DWARFSECREF go:info.[]*int<0>+0
	rel 108+4 t=R_DWARFSECREF go:info.[]*int<0>+0
	rel 112+4 t=R_DWARFSECREF <0>+110
aux for command-line-arguments.SliceMakeCopyNoOptTargetReference<0> SDWARFLOC size=248
	0x0000 ff ff ff ff ff ff ff ff 00 00 00 00 00 00 00 00  ................
	0x0010 00 00 00 00 00 00 00 00 1d 00 00 00 00 00 00 00  ................
	0x0020 09 00 50 93 08 53 93 08 52 93 08 1d 00 00 00 00  ..P..S..R.......
	0x0030 00 00 00 24 00 00 00 00 00 00 00 09 00 9c 93 08  ...$............
	0x0040 93 08 91 10 93 08 24 00 00 00 00 00 00 00 27 00  ......$.......'.
	0x0050 00 00 00 00 00 00 09 00 9c 93 08 93 08 91 10 93  ................
	0x0060 08 27 00 00 00 00 00 00 00 9e 00 00 00 00 00 00  .'..............
	0x0070 00 09 00 9c 93 08 93 08 91 10 93 08 00 00 00 00  ................
	0x0080 00 00 00 00 00 00 00 00 00 00 00 00 ff ff ff ff  ................
	0x0090 ff ff ff ff 00 00 00 00 00 00 00 00 2c 00 00 00  ............,...
	0x00a0 00 00 00 00 53 00 00 00 00 00 00 00 07 00 50 93  ....S.........P.
	0x00b0 08 93 08 93 08 53 00 00 00 00 00 00 00 6b 00 00  .....S.......k..
	0x00c0 00 00 00 00 00 08 00 91 68 93 08 93 08 93 08 6b  ........h......k
	0x00d0 00 00 00 00 00 00 00 9e 00 00 00 00 00 00 00 07  ................
	0x00e0 00 50 93 08 93 08 93 08 00 00 00 00 00 00 00 00  .P..............
	0x00f0 00 00 00 00 00 00 00 00                          ........
	rel 8+8 t=R_ADDR command-line-arguments.SliceMakeCopyNoOptTargetReference<1>+0
	rel 148+8 t=R_ADDR command-line-arguments.SliceMakeCopyNoOptTargetReference<1>+0
aux for command-line-arguments.SliceMakeCopyNoOptTargetReference<0> SDWARFLINES size=49
	0x0000 00 09 02 00 00 00 00 00 00 00 00 04 02 03 a6 02  ................
	0x0010 14 0a 73 06 03 01 3c 06 70 06 41 06 a8 06 41 48  ..s...<.p.A...AH
	0x0020 44 06 08 38 06 41 9a 06 73 03 7e 15 02 28 00 01  D..8.A..s.~..(..
	0x0030 01                                               .
	rel 3+8 t=R_ADDR command-line-arguments.SliceMakeCopyNoOptTargetReference<1>+0
aux for command-line-arguments.SliceMakeCopyNoOptTargetReference<0> SDWARFFCN size=124
	0x0000 03 63 6f 6d 6d 61 6e 64 2d 6c 69 6e 65 2d 61 72  .command-line-ar
	0x0010 67 75 6d 65 6e 74 73 2e 53 6c 69 63 65 4d 61 6b  guments.SliceMak
	0x0020 65 43 6f 70 79 4e 6f 4f 70 74 54 61 72 67 65 74  eCopyNoOptTarget
	0x0030 52 65 66 65 72 65 6e 63 65 00 00 00 00 00 00 00  Reference.......
	0x0040 00 00 00 00 00 00 00 00 00 00 01 9c 02 00 00 00  ................
	0x0050 ac 02 01 12 73 00 00 ac 02 00 00 00 00 00 00 00  ....s...........
	0x0060 00 11 7e 72 30 00 01 ac 02 00 00 00 00 00 0d 61  ..~r0..........a
	0x0070 00 af 02 00 00 00 00 00 00 00 00 00              ............
	rel 0+0 t=R_USETYPE type:[]*int<0>+0
	rel 0+0 t=R_USETYPE type:unsafe.Pointer<0>+0
	rel 58+8 t=R_ADDR command-line-arguments.SliceMakeCopyNoOptTargetReference<1>+0
	rel 66+8 t=R_ADDR command-line-arguments.SliceMakeCopyNoOptTargetReference<1>+158
	rel 89+4 t=R_DWARFSECREF go:info.[]*int<0>+0
	rel 93+4 t=R_DWARFSECREF <0>+0
	rel 105+4 t=R_DWARFSECREF go:info.[]*int<0>+0
	rel 115+4 t=R_DWARFSECREF go:info.[]*int<0>+0
	rel 119+4 t=R_DWARFSECREF <0>+140
aux for command-line-arguments.SliceMakeCopyNoOptCap<0> SDWARFLOC size=305
	0x0000 ff ff ff ff ff ff ff ff 00 00 00 00 00 00 00 00  ................
	0x0010 00 00 00 00 00 00 00 00 1d 00 00 00 00 00 00 00  ................
	0x0020 09 00 50 93 08 53 93 08 52 93 08 1d 00 00 00 00  ..P..S..R.......
	0x0030 00 00 00 24 00 00 00 00 00 00 00 09 00 9c 93 08  ...$............
	0x0040 91 08 93 08 93 08 24 00 00 00 00 00 00 00 29 00  ......$.......).
	0x0050 00 00 00 00 00 00 09 00 9c 93 08 91 08 93 08 93  ................
	0x0060 08 29 00 00 00 00 00 00 00 89 00 00 00 00 00 00  .)..............
	0x0070 00 09 00 9c 93 08 91 08 93 08 93 08 00 00 00 00  ................
	0x0080 00 00 00 00 00 00 00 00 00 00 00 00 ff ff ff ff  ................
	0x0090 ff ff ff ff 00 00 00 00 00 00 00 00 00 00 00 00  ................
	0x00a0 00 00 00 00 29 00 00 00 00 00 00 00 07 00 93 08  ....)...........
	0x00b0 53 93 08 93 08 29 00 00 00 00 00 00 00 29 00 00  S....).......)..
	0x00c0 00 00 00 00 00 08 00 93 08 91 08 93 08 93 08 29  ...............)
	0x00d0 00 00 00 00 00 00 00 4c 00 00 00 00 00 00 00 09  .......L........
	0x00e0 00 50 93 08 91 08 93 08 93 08 4c 00 00 00 00 00  .P........L.....
	0x00f0 00 00 51 00 00 00 00 00 00 00 0a 00 91 68 93 08  ..Q..........h..
	0x0100 91 08 93 08 93 08 51 00 00 00 00 00 00 00 89 00  ......Q.........
	0x0110 00 00 00 00 00 00 09 00 50 93 08 91 08 93 08 93  ........P.......
	0x0120 08 00 00 00 00 00 00 00 00 00 00 00 00 00 00 00  ................
	0x0130 00                                               .
	rel 8+8 t=R_ADDR command-line-arguments.SliceMakeCopyNoOptCap<1>+0
	rel 148+8 t=R_ADDR command-line-arguments.SliceMakeCopyNoOptCap<1>+0
aux for command-line-arguments.SliceMakeCopyNoOptCap<0> SDWARFLINES size=47
	0x0000 00 09 02 00 00 00 00 00 00 00 00 04 02 03 b0 02  ................
	0x0010 14 0a 73 06 03 01 3c 06 70 06 41 06 8a 06 41 3e  ..s...<.p.A...A>
	0x0020 44 d8 06 41 06 41 06 03 7d 79 02 28 00 01 01     D..A.A..}y.(...
	rel 3+8 t=R_ADDR command-line-arguments.SliceMakeCopyNoOptCap<1>+0
aux for command-line-arguments.SliceMakeCopyNoOptCap<0> SDWARFFCN size=112
	0x0000 03 63 6f 6d 6d 61 6e 64 2d 6c 69 6e 65 2d 61 72  .command-line-ar
	0x0010 67 75 6d 65 6e 74 73 2e 53 6c 69 63 65 4d 61 6b  guments.SliceMak
	0x0020 65 43 6f 70 79 4e 6f 4f 70 74 43 61 70 00 00 00  eCopyNoOptCap...
	0x0030 00 00 00 00 00 00 00 00 00 00 00 00 00 00 01 9c  ................
	0x0040 02 00 00 00 b6 02 01 12 73 00 00 b6 02 00 00 00  ........s.......
	0x0050 00 00 00 00 00 11 7e 72 30 00 01 b6 02 00 00 00  ......~r0.......
	0x0060 00 00 0d 61 00 b9 02 00 00 00 00 00 00 00 00 00  ...a............
	rel 0+0 t=R_USETYPE type:[]int<0>+0
	rel 0+0 t=R_USETYPE type:unsafe.Pointer<0>+0
	rel 46+8 t=R_ADDR command-line-arguments.SliceMakeCopyNoOptCap<1>+0
	rel 54+8 t=R_ADDR command-line-arguments.SliceMakeCopyNoOptCap<1>+137
	rel 77+4 t=R_DWARFSECREF go:info.[]int<0>+0
	rel 81+4 t=R_DWARFSECREF <0>+0
	rel 93+4 t=R_DWARFSECREF go:info.[]int<0>+0
	rel 103+4 t=R_DWARFSECREF go:info.[]int<0>+0
	rel 107+4 t=R_DWARFSECREF <0>+140
aux for command-line-arguments.SliceMakeCopyNoMemmoveDifferentLen<0> SDWARFLOC size=225
	0x0000 ff ff ff ff ff ff ff ff 00 00 00 00 00 00 00 00  ................
	0x0010 00 00 00 00 00 00 00 00 1f 00 00 00 00 00 00 00  ................
	0x0020 09 00 50 93 08 53 93 08 52 93 08 1f 00 00 00 00  ..P..S..R.......
	0x0030 00 00 00 29 00 00 00 00 00 00 00 08 00 50 93 08  ...).........P..
	0x0040 53 93 08 93 08 29 00 00 00 00 00 00 00 2c 00 00  S....).......,..
	0x0050 00 00 00 00 00 07 00 93 08 53 93 08 93 08 00 00  .........S......
	0x0060 00 00 00 00 00 00 00 00 00 00 00 00 00 00 ff ff  ................
	0x0070 ff ff ff ff ff ff 00 00 00 00 00 00 00 00 17 00  ................
	0x0080 00 00 00 00 00 00 31 00 00 00 00 00 00 00 08 00  ......1.........
	0x0090 93 08 51 93 08 51 93 08 31 00 00 00 00 00 00 00  ..Q..Q..1.......
	0x00a0 31 00 00 00 00 00 00 00 0a 00 93 08 91 68 93 08  1............h..
	0x00b0 91 68 93 08 31 00 00 00 00 00 00 00 64 00 00 00  .h..1.......d...
	0x00c0 00 00 00 00 0b 00 50 93 08 91 68 93 08 91 68 93  ......P...h...h.
	0x00d0 08 00 00 00 00 00 00 00 00 00 00 00 00 00 00 00  ................
	0x00e0 00                                               .
	rel 8+8 t=R_ADDR command-line-arguments.SliceMakeCopyNoMemmoveDifferentLen<1>+0
	rel 118+8 t=R_ADDR command-line-arguments.SliceMakeCopyNoMemmoveDifferentLen<1>+0
aux for command-line-arguments.SliceMakeCopyNoMemmoveDifferentLen<0> SDWARFLINES size=39
	0x0000 00 09 02 00 00 00 00 00 00 00 00 04 02 03 ba 02  ................
	0x0010 14 0a 73 06 37 06 44 06 37 06 08 26 06 41 06 03  ..s.7.D.7..&.A..
	0x0020 7e 65 02 25 00 01 01                             ~e.%...
	rel 3+8 t=R_ADDR command-line-arguments.SliceMakeCopyNoMemmoveDifferentLen<1>+0
aux for command-line-arguments.SliceMakeCopyNoMemmoveDifferentLen<0> SDWARFFCN size=125
	0x0000 03 63 6f 6d 6d 61 6e 64 2d 6c 69 6e 65 2d 61 72  .command-line-ar
	0x0010 67 75 6d 65 6e 74 73 2e 53 6c 69 63 65 4d 61 6b  guments.SliceMak
	0x0020 65 43 6f 70 79 4e 6f 4d 65 6d 6d 6f 76 65 44 69  eCopyNoMemmoveDi
	0x0030 66 66 65 72 65 6e 74 4c 65 6e 00 00 00 00 00 00  fferentLen......
	0x0040 00 00 00 00 00 00 00 00 00 00 00 01 9c 02 00 00  ................
	0x0050 00 c0 02 01 12 73 00 00 c0 02 00 00 00 00 00 00  .....s..........
	0x0060 00 00 11 7e 72 30 00 01 c0 02 00 00 00 00 00 0d  ...~r0..........
	0x0070 61 00 c3 02 00 00 00 00 00 00 00 00 00           a............
	rel 0+0 t=R_USETYPE type:[]int<0>+0
	rel 0+0 t=R_USETYPE type:int<0>+0
	rel 59+8 t=R_ADDR command-line-arguments.SliceMakeCopyNoMemmoveDifferentLen<1>+0
	rel 67+8 t=R_ADDR command-line-arguments.SliceMakeCopyNoMemmoveDifferentLen<1>+100
	rel 90+4 t=R_DWARFSECREF go:info.[]int<0>+0
	rel 94+4 t=R_DWARFSECREF <0>+0
	rel 106+4 t=R_DWARFSECREF go:info.[]int<0>+0
	rel 116+4 t=R_DWARFSECREF go:info.[]int<0>+0
	rel 120+4 t=R_DWARFSECREF <0>+110
aux for command-line-arguments.SliceMakeEmptyPointerToZerobase<0> SDWARFLINES size=24
	0x0000 00 09 02 00 00 00 00 00 00 00 00 04 02 03 c6 02  ................
	0x0010 14 06 55 02 06 00 01 01                          ..U.....
	rel 3+8 t=R_ADDR command-line-arguments.SliceMakeEmptyPointerToZerobase<1>+0
aux for command-line-arguments.SliceMakeEmptyPointerToZerobase<0> SDWARFFCN size=95
	0x0000 03 63 6f 6d 6d 61 6e 64 2d 6c 69 6e 65 2d 61 72  .command-line-ar
	0x0010 67 75 6d 65 6e 74 73 2e 53 6c 69 63 65 4d 61 6b  guments.SliceMak
	0x0020 65 45 6d 70 74 79 50 6f 69 6e 74 65 72 54 6f 5a  eEmptyPointerToZ
	0x0030 65 72 6f 62 61 73 65 00 00 00 00 00 00 00 00 00  erobase.........
	0x0040 00 00 00 00 00 00 00 00 01 9c 02 00 00 00 c9 02  ................
	0x0050 01 11 7e 72 30 00 01 c9 02 00 00 00 00 00 00     ..~r0..........
	rel 0+0 t=R_USETYPE type:[]int<0>+0
	rel 56+8 t=R_ADDR command-line-arguments.SliceMakeEmptyPointerToZerobase<1>+0
	rel 64+8 t=R_ADDR command-line-arguments.SliceMakeEmptyPointerToZerobase<1>+13
	rel 89+4 t=R_DWARFSECREF go:info.[]int<0>+0
aux for command-line-arguments.SliceNilCheck<0> SDWARFLOC size=110
	0x0000 ff ff ff ff ff ff ff ff 00 00 00 00 00 00 00 00  ................
	0x0010 00 00 00 00 00 00 00 00 1a 00 00 00 00 00 00 00  ................
	0x0020 09 00 50 93 08 53 93 08 52 93 08 1a 00 00 00 00  ..P..S..R.......
	0x0030 00 00 00 1d 00 00 00 00 00 00 00 08 00 93 08 53  ...............S
	0x0040 93 08 52 93 08 1d 00 00 00 00 00 00 00 26 00 00  ..R..........&..
	0x0050 00 00 00 00 00 07 00 93 08 53 93 08 93 08 00 00  .........S......
	0x0060 00 00 00 00 00 00 00 00 00 00 00 00 00 00        ..............
	rel 8+8 t=R_ADDR command-line-arguments.SliceNilCheck<1>+0
aux for command-line-arguments.SliceNilCheck<0> SDWARFLINES size=36
	0x0000 00 09 02 00 00 00 00 00 00 00 00 04 02 03 cd 02  ................
	0x0010 14 0a 37 06 37 06 42 06 2d 06 26 06 48 06 91 02  ..7.7.B.-.&.H...
	0x0020 01 00 01 01                                      ....
	rel 3+8 t=R_ADDR command-line-arguments.SliceNilCheck<1>+0
aux for command-line-arguments.SliceNilCheck<0> SDWARFFCN size=78
	0x0000 03 63 6f 6d 6d 61 6e 64 2d 6c 69 6e 65 2d 61 72  .command-line-ar
	0x0010 67 75 6d 65 6e 74 73 2e 53 6c 69 63 65 4e 69 6c  guments.SliceNil
	0x0020 43 68 65 63 6b 00 00 00 00 00 00 00 00 00 00 00  Check...........
	0x0030 00 00 00 00 00 00 01 9c 02 00 00 00 d3 02 01 12  ................
	0x0040 73 00 00 d3 02 00 00 00 00 00 00 00 00 00        s.............
	rel 38+8 t=R_ADDR command-line-arguments.SliceNilCheck<1>+0
	rel 46+8 t=R_ADDR command-line-arguments.SliceNilCheck<1>+38
	rel 69+4 t=R_DWARFSECREF go:info.[]int<0>+0
	rel 73+4 t=R_DWARFSECREF <0>+0
aux for command-line-arguments.InitSmallSliceLiteral<0> SDWARFLINES size=30
	0x0000 00 09 02 00 00 00 00 00 00 00 00 04 02 03 d7 02  ................
	0x0010 14 0a 73 39 06 55 06 08 21 02 07 00 01 01        ..s9.U..!.....
	rel 3+8 t=R_ADDR command-line-arguments.InitSmallSliceLiteral<1>+0
aux for command-line-arguments.InitSmallSliceLiteral<0> SDWARFFCN size=85
	0x0000 03 63 6f 6d 6d 61 6e 64 2d 6c 69 6e 65 2d 61 72  .command-line-ar
	0x0010 67 75 6d 65 6e 74 73 2e 49 6e 69 74 53 6d 61 6c  guments.InitSmal
	0x0020 6c 53 6c 69 63 65 4c 69 74 65 72 61 6c 00 00 00  lSliceLiteral...
	0x0030 00 00 00 00 00 00 00 00 00 00 00 00 00 00 01 9c  ................
	0x0040 02 00 00 00 dd 02 01 11 7e 72 30 00 01 dd 02 00  ........~r0.....
	0x0050 00 00 00 00 00                                   .....
	rel 0+0 t=R_USETYPE type:[]int<0>+0
	rel 46+8 t=R_ADDR command-line-arguments.InitSmallSliceLiteral<1>+0
	rel 54+8 t=R_ADDR command-line-arguments.InitSmallSliceLiteral<1>+54
	rel 79+4 t=R_DWARFSECREF go:info.[]int<0>+0
aux for command-line-arguments.InitNotSmallSliceLiteral<0> SDWARFLINES size=30
	0x0000 00 09 02 00 00 00 00 00 00 00 00 04 02 03 dc 02  ................
	0x0010 14 0a 73 39 06 55 06 08 fd 02 07 00 01 01        ..s9.U........
	rel 3+8 t=R_ADDR command-line-arguments.InitNotSmallSliceLiteral<1>+0
aux for command-line-arguments.InitNotSmallSliceLiteral<0> SDWARFFCN size=88
	0x0000 03 63 6f 6d 6d 61 6e 64 2d 6c 69 6e 65 2d 61 72  .command-line-ar
	0x0010 67 75 6d 65 6e 74 73 2e 49 6e 69 74 4e 6f 74 53  guments.InitNotS
	0x0020 6d 61 6c 6c 53 6c 69 63 65 4c 69 74 65 72 61 6c  mallSliceLiteral
	0x0030 00 00 00 00 00 00 00 00 00 00 00 00 00 00 00 00  ................
	0x0040 00 01 9c 02 00 00 00 e2 02 01 11 7e 72 30 00 01  ...........~r0..
	0x0050 e2 02 00 00 00 00 00 00                          ........
	rel 0+0 t=R_USETYPE type:[]int<0>+0
	rel 49+8 t=R_ADDR command-line-arguments.InitNotSmallSliceLiteral<1>+0
	rel 57+8 t=R_ADDR command-line-arguments.InitNotSmallSliceLiteral<1>+76
	rel 82+4 t=R_DWARFSECREF go:info.[]int<0>+0
aux for command-line-arguments.SliceWithConstCompare<0> SDWARFLOC size=245
	0x0000 ff ff ff ff ff ff ff ff 00 00 00 00 00 00 00 00  ................
	0x0010 00 00 00 00 00 00 00 00 2d 00 00 00 00 00 00 00  ........-.......
	0x0020 09 00 50 93 08 53 93 08 52 93 08 2d 00 00 00 00  ..P..S..R..-....
	0x0030 00 00 00 32 00 00 00 00 00 00 00 0b 00 9c 93 08  ...2............
	0x0040 91 08 93 08 91 10 93 08 32 00 00 00 00 00 00 00  ........2.......
	0x0050 e7 00 00 00 00 00 00 00 0b 00 9c 93 08 91 08 93  ................
	0x0060 08 91 10 93 08 00 00 00 00 00 00 00 00 00 00 00  ................
	0x0070 00 00 00 00 00 ff ff ff ff ff ff ff ff 00 00 00  ................
	0x0080 00 00 00 00 00 00 00 00 00 00 00 00 00 32 00 00  .............2..
	0x0090 00 00 00 00 00 01 00 55 32 00 00 00 00 00 00 00  .......U2.......
	0x00a0 e7 00 00 00 00 00 00 00 02 00 91 18 00 00 00 00  ................
	0x00b0 00 00 00 00 00 00 00 00 00 00 00 00 ff ff ff ff  ................
	0x00c0 ff ff ff ff 00 00 00 00 00 00 00 00 32 00 00 00  ............2...
	0x00d0 00 00 00 00 8b 00 00 00 00 00 00 00 07 00 50 93  ..............P.
	0x00e0 08 93 08 93 08 00 00 00 00 00 00 00 00 00 00 00  ................
	0x00f0 00 00 00 00 00                                   .....
	rel 8+8 t=R_ADDR command-line-arguments.SliceWithConstCompare<1>+0
	rel 125+8 t=R_ADDR command-line-arguments.SliceWithConstCompare<1>+0
	rel 196+8 t=R_ADDR command-line-arguments.SliceWithConstCompare<1>+0
aux for command-line-arguments.SliceWithConstCompare<0> SDWARFLINES size=52
	0x0000 00 09 02 00 00 00 00 00 00 00 00 04 02 03 8b 03  ................
	0x0010 14 0a 9b 06 39 06 d6 06 55 06 08 d8 06 41 06 a7  ....9...U....A..
	0x0020 06 37 06 23 06 37 06 08 61 06 41 7b 06 91 15 02  .7.#.7..a.A{....
	0x0030 32 00 01 01                                      2...
	rel 3+8 t=R_ADDR command-line-arguments.SliceWithConstCompare<1>+0
aux for command-line-arguments.SliceWithConstCompare<0> SDWARFFCN size=126
	0x0000 03 63 6f 6d 6d 61 6e 64 2d 6c 69 6e 65 2d 61 72  .command-line-ar
	0x0010 67 75 6d 65 6e 74 73 2e 53 6c 69 63 65 57 69 74  guments.SliceWit
	0x0020 68 43 6f 6e 73 74 43 6f 6d 70 61 72 65 00 00 00  hConstCompare...
	0x0030 00 00 00 00 00 00 00 00 00 00 00 00 00 00 01 9c  ................
	0x0040 02 00 00 00 91 03 01 12 61 00 00 91 03 00 00 00  ........a.......
	0x0050 00 00 00 00 00 12 62 00 00 91 03 00 00 00 00 00  ......b.........
	0x0060 00 00 00 11 7e 72 30 00 01 91 03 00 00 00 00 00  ....~r0.........
	0x0070 0d 63 00 92 03 00 00 00 00 00 00 00 00 00        .c............
	rel 0+0 t=R_USETYPE type:[]int<0>+0
	rel 46+8 t=R_ADDR command-line-arguments.SliceWithConstCompare<1>+0
	rel 54+8 t=R_ADDR command-line-arguments.SliceWithConstCompare<1>+231
	rel 77+4 t=R_DWARFSECREF go:info.[]int<0>+0
	rel 81+4 t=R_DWARFSECREF <0>+0
	rel 91+4 t=R_DWARFSECREF go:info.int<0>+0
	rel 95+4 t=R_DWARFSECREF <0>+117
	rel 107+4 t=R_DWARFSECREF go:info.[]int<0>+0
	rel 117+4 t=R_DWARFSECREF go:info.[]int<0>+0
	rel 121+4 t=R_DWARFSECREF <0>+188
aux for command-line-arguments.SliceWithSubtractBound<0> SDWARFLOC size=212
	0x0000 ff ff ff ff ff ff ff ff 00 00 00 00 00 00 00 00  ................
	0x0010 00 00 00 00 00 00 00 00 21 00 00 00 00 00 00 00  ........!.......
	0x0020 09 00 50 93 08 53 93 08 52 93 08 21 00 00 00 00  ..P..S..R..!....
	0x0030 00 00 00 29 00 00 00 00 00 00 00 08 00 50 93 08  ...).........P..
	0x0040 53 93 08 93 08 29 00 00 00 00 00 00 00 3d 00 00  S....).......=..
	0x0050 00 00 00 00 00 07 00 50 93 08 93 08 93 08 46 00  .......P......F.
	0x0060 00 00 00 00 00 00 49 00 00 00 00 00 00 00 08 00  ......I.........
	0x0070 93 08 53 93 08 52 93 08 49 00 00 00 00 00 00 00  ..S..R..I.......
	0x0080 4f 00 00 00 00 00 00 00 07 00 93 08 53 93 08 93  O...........S...
	0x0090 08 00 00 00 00 00 00 00 00 00 00 00 00 00 00 00  ................
	0x00a0 00 ff ff ff ff ff ff ff ff 00 00 00 00 00 00 00  ................
	0x00b0 00 00 00 00 00 00 00 00 00 4f 00 00 00 00 00 00  .........O......
	0x00c0 00 01 00 55 00 00 00 00 00 00 00 00 00 00 00 00  ...U............
	0x00d0 00 00 00 00                                      ....
	rel 8+8 t=R_ADDR command-line-arguments.SliceWithSubtractBound<1>+0
	rel 169+8 t=R_ADDR command-line-arguments.SliceWithSubtractBound<1>+0
aux for command-line-arguments.SliceWithSubtractBound<0> SDWARFLINES size=38
	0x0000 00 09 02 00 00 00 00 00 00 00 00 04 02 03 94 03  ................
	0x0010 14 0a 37 06 37 06 43 06 37 06 5f 06 37 06 02 19  ..7.7.C.7._.7...
	0x0020 ff 02 01 00 01 01                                ......
	rel 3+8 t=R_ADDR command-line-arguments.SliceWithSubtractBound<1>+0
aux for command-line-arguments.SliceWithSubtractBound<0> SDWARFFCN size=114
	0x0000 03 63 6f 6d 6d 61 6e 64 2d 6c 69 6e 65 2d 61 72  .command-line-ar
	0x0010 67 75 6d 65 6e 74 73 2e 53 6c 69 63 65 57 69 74  guments.SliceWit
	0x0020 68 53 75 62 74 72 61 63 74 42 6f 75 6e 64 00 00  hSubtractBound..
	0x0030 00 00 00 00 00 00 00 00 00 00 00 00 00 00 00 01  ................
	0x0040 9c 02 00 00 00 9a 03 01 12 61 00 00 9a 03 00 00  .........a......
	0x0050 00 00 00 00 00 00 12 62 00 00 9a 03 00 00 00 00  .......b........
	0x0060 00 00 00 00 11 7e 72 30 00 01 9a 03 00 00 00 00  .....~r0........
	0x0070 00 00                                            ..
	rel 0+0 t=R_USETYPE type:[]int<0>+0
	rel 47+8 t=R_ADDR command-line-arguments.SliceWithSubtractBound<1>+0
	rel 55+8 t=R_ADDR command-line-arguments.SliceWithSubtractBound<1>+79
	rel 78+4 t=R_DWARFSECREF go:info.[]int<0>+0
	rel 82+4 t=R_DWARFSECREF <0>+0
	rel 92+4 t=R_DWARFSECREF go:info.int<0>+0
	rel 96+4 t=R_DWARFSECREF <0>+161
	rel 108+4 t=R_DWARFSECREF go:info.[]int<0>+0
aux for command-line-arguments.Slice1<0> SDWARFLOC size=102
	0x0000 ff ff ff ff ff ff ff ff 00 00 00 00 00 00 00 00  ................
	0x0010 00 00 00 00 00 00 00 00 2a 00 00 00 00 00 00 00  ........*.......
	0x0020 01 00 50 00 00 00 00 00 00 00 00 00 00 00 00 00  ..P.............
	0x0030 00 00 00 ff ff ff ff ff ff ff ff 00 00 00 00 00  ................
	0x0040 00 00 00 00 00 00 00 00 00 00 00 2a 00 00 00 00  ...........*....
	0x0050 00 00 00 01 00 53 00 00 00 00 00 00 00 00 00 00  .....S..........
	0x0060 00 00 00 00 00 00                                ......
	rel 8+8 t=R_ADDR command-line-arguments.Slice1<1>+0
	rel 59+8 t=R_ADDR command-line-arguments.Slice1<1>+0
aux for command-line-arguments.Slice1<0> SDWARFLINES size=38
	0x0000 00 09 02 00 00 00 00 00 00 00 00 04 02 03 9d 03  ................
	0x0010 14 0a 55 2f 06 2d 06 91 06 2d 06 f5 17 06 73 06  ..U/.-...-....s.
	0x0020 19 02 11 00 01 01                                ......
	rel 3+8 t=R_ADDR command-line-arguments.Slice1<1>+0
aux for command-line-arguments.Slice1<0> SDWARFFCN size=98
	0x0000 03 63 6f 6d 6d 61 6e 64 2d 6c 69 6e 65 2d 61 72  .command-line-ar
	0x0010 67 75 6d 65 6e 74 73 2e 53 6c 69 63 65 31 00 00  guments.Slice1..
	0x0020 00 00 00 00 00 00 00 00 00 00 00 00 00 00 00 01  ................
	0x0030 9c 02 00 00 00 a3 03 01 12 70 00 00 a3 03 00 00  .........p......
	0x0040 00 00 00 00 00 00 12 69 00 00 a3 03 00 00 00 00  .......i........
	0x0050 00 00 00 00 11 7e 72 30 00 01 a3 03 00 00 00 00  .....~r0........
	0x0060 00 00                                            ..
	rel 0+0 t=R_USETYPE type:[]uint8<0>+0
	rel 31+8 t=R_ADDR command-line-arguments.Slice1<1>+0
	rel 39+8 t=R_ADDR command-line-arguments.Slice1<1>+81
	rel 62+4 t=R_DWARFSECREF go:info.*uint8<0>+0
	rel 66+4 t=R_DWARFSECREF <0>+0
	rel 76+4 t=R_DWARFSECREF go:info.int<0>+0
	rel 80+4 t=R_DWARFSECREF <0>+51
	rel 92+4 t=R_DWARFSECREF go:info.[]uint8<0>+0
aux for command-line-arguments.Slice0<0> SDWARFLOC size=102
	0x0000 ff ff ff ff ff ff ff ff 00 00 00 00 00 00 00 00  ................
	0x0010 00 00 00 00 00 00 00 00 25 00 00 00 00 00 00 00  ........%.......
	0x0020 01 00 50 00 00 00 00 00 00 00 00 00 00 00 00 00  ..P.............
	0x0030 00 00 00 ff ff ff ff ff ff ff ff 00 00 00 00 00  ................
	0x0040 00 00 00 00 00 00 00 00 00 00 00 25 00 00 00 00  ...........%....
	0x0050 00 00 00 01 00 53 00 00 00 00 00 00 00 00 00 00  .....S..........
	0x0060 00 00 00 00 00 00                                ......
	rel 8+8 t=R_ADDR command-line-arguments.Slice0<1>+0
	rel 59+8 t=R_ADDR command-line-arguments.Slice0<1>+0
aux for command-line-arguments.Slice0<0> SDWARFLINES size=34
	0x0000 00 09 02 00 00 00 00 00 00 00 00 04 02 03 a1 03  ................
	0x0010 14 0a 55 2f 06 2d 06 87 06 2d 06 9b 17 02 1b 00  ..U/.-...-......
	0x0020 01 01                                            ..
	rel 3+8 t=R_ADDR command-line-arguments.Slice0<1>+0
aux for command-line-arguments.Slice0<0> SDWARFFCN size=98
	0x0000 03 63 6f 6d 6d 61 6e 64 2d 6c 69 6e 65 2d 61 72  .command-line-ar
	0x0010 67 75 6d 65 6e 74 73 2e 53 6c 69 63 65 30 00 00  guments.Slice0..
	0x0020 00 00 00 00 00 00 00 00 00 00 00 00 00 00 00 01  ................
	0x0030 9c 02 00 00 00 a7 03 01 12 70 00 00 a7 03 00 00  .........p......
	0x0040 00 00 00 00 00 00 12 69 00 00 a7 03 00 00 00 00  .......i........
	0x0050 00 00 00 00 11 7e 72 30 00 01 a7 03 00 00 00 00  .....~r0........
	0x0060 00 00                                            ..
	rel 0+0 t=R_USETYPE type:[]struct {}<0>+0
	rel 31+8 t=R_ADDR command-line-arguments.Slice0<1>+0
	rel 39+8 t=R_ADDR command-line-arguments.Slice0<1>+70
	rel 62+4 t=R_DWARFSECREF go:info.*struct {}<0>+0
	rel 66+4 t=R_DWARFSECREF <0>+0
	rel 76+4 t=R_DWARFSECREF go:info.int<0>+0
	rel 80+4 t=R_DWARFSECREF <0>+51
	rel 92+4 t=R_DWARFSECREF go:info.[]struct {}<0>+0
aux for command-line-arguments.SliceMakeCopyNoOptNoCopy.func1<0> SDWARFLOC size=118
	0x0000 ff ff ff ff ff ff ff ff 00 00 00 00 00 00 00 00  ................
	0x0010 00 00 00 00 00 00 00 00 01 00 00 00 00 00 00 00  ................
	0x0020 09 00 50 93 08 53 93 08 52 93 08 00 00 00 00 00  ..P..S..R.......
	0x0030 00 00 00 00 00 00 00 00 00 00 00 ff ff ff ff ff  ................
	0x0040 ff ff ff 00 00 00 00 00 00 00 00 00 00 00 00 00  ................
	0x0050 00 00 00 01 00 00 00 00 00 00 00 09 00 55 93 08  .............U..
	0x0060 54 93 08 58 93 08 00 00 00 00 00 00 00 00 00 00  T..X............
	0x0070 00 00 00 00 00 00                                ......
	rel 8+8 t=R_ADDR command-line-arguments.SliceMakeCopyNoOptNoCopy.func1<1>+0
	rel 67+8 t=R_ADDR command-line-arguments.SliceMakeCopyNoOptNoCopy.func1<1>+0
aux for command-line-arguments.SliceMakeCopyNoOptNoCopy.func1<0> SDWARFLINES size=22
	0x0000 00 09 02 00 00 00 00 00 00 00 00 04 02 03 f4 01  ................
	0x0010 14 02 01 00 01 01                                ......
	rel 3+8 t=R_ADDR command-line-arguments.SliceMakeCopyNoOptNoCopy.func1<1>+0
aux for command-line-arguments.SliceMakeCopyNoOptNoCopy.func1<0> SDWARFFCN size=42
	0x0000 06 00 00 00 00 00 00 00 00 00 00 00 00 00 00 00  ................
	0x0010 00 00 00 00 00 01 9c 15 00 00 00 00 00 00 00 00  ................
	0x0020 15 00 00 00 00 00 00 00 00 00                    ..........
	rel 1+4 t=R_DWARFSECREF go:info.command-line-arguments.SliceMakeCopyNoOptNoCopy.func1$abstract<0>+0
	rel 5+8 t=R_ADDR command-line-arguments.SliceMakeCopyNoOptNoCopy.func1<1>+0
	rel 13+8 t=R_ADDR command-line-arguments.SliceMakeCopyNoOptNoCopy.func1<1>+1
	rel 24+4 t=R_DWARFSECREF go:info.command-line-arguments.SliceMakeCopyNoOptNoCopy.func1$abstract<0>+59
	rel 28+4 t=R_DWARFSECREF <0>+0
	rel 33+4 t=R_DWARFSECREF go:info.command-line-arguments.SliceMakeCopyNoOptNoCopy.func1$abstract<0>+67
	rel 37+4 t=R_DWARFSECREF <0>+59
